; EQU:
; Data addresses used by the opcodes that point to uninitialized memory areas.
; Basic USR vector, 2 bytes
; default: 157Ch
VECT_BASIC_USR: equ  4000h
;
; Vector of character input, 2 bytes
; default: 035Ch
VECT_CH_INPUT: equ  4002h
;
; Vector of character output, 2 bytes
; default: 0283h
VECT_CH_OUTPUT: equ  4004h
;
; In case F1 or F2 is pressed besides a button this vector is called.
; A contains the code of the pressed button, and flag Z and C is set
; respectively if F1 or F2 was pressed.
; default: 0600h
VECT_F1_F2:  equ  4006h
;
; SHIFT ALTER FLAG
; Tells if the a button is pressed without SHIFT then capital or small letters should
; be printed. Even number means small letter
; default: 1Bh
FLAG_SHIFT_ALTER: equ  4008h
;
; Value of 0 means printing stops at the end of the screen and continues only when 
; SHIFT/SPACE is pressed
; defult: A7h
FLAG_SCROLL_STOP: equ  4009h
;
; Value of 1 means 64 chars wide screen, value of 2 means 32 chars wide screen, but
; this requires HW switch also
; default: 01h
FLAG_32_64:  equ  400Ah
;
; This is the output buffer pointer, used for printing screen, 1 byte
; default: 60h
BUFFER_POINTER: equ  400Bh
;
; Vector of RST_1 (SAVE/LOAD), 2 bytes long
; default: C105h (???)
VECT_RST_1:  equ  400Ch
;
; Vector for INPUT#
VECT_INPUT:  equ  400Eh
;
; Vector for PRINT#
VECT_PRINT:  equ  4010h
; 
; Variable for built-in monitor
VAR_MON01:   equ  4012h
;
; Cursor address in the Video RAM
ADDR_CURSOR_POS: equ  4014h
;
; End of RAM (high mem)
ADDR_END_OF_RAM: equ  4016h
;
; End of BASIC program
ADDR_END_OF_BASIC_PRG: equ  4018h
;
; End of table of BASIC variables
ADDR_END_OF_VARIABLES: equ  401Ah
;
; End of BASIC strings
ADDR_END_OF_STRINGS: equ  401Ch
;
; The P accumulator address. 4 bytes
VAR_P:       equ  401Eh
DATA02:      equ  401Fh	; 16415. Data accessed by: 0886h(in SUB051), 08BDh(in SUB051), 071Bh(in SUB042), 1C06h(in SUB125)
DATA03:      equ  4020h	; 16416. Data accessed by: 1124h(in SUB088), 1320h(in LBL01), 12D0h(in SUB094), 0726h(in SUB043), 1839h(in SUB117), 1225h(in SUB089), 0675h(in SUB034), 13E3h(in SUB097), 1450h(in SUB099), 188Ah(in SUB117), 0B64h(in SUB053), 1414h(in SUB097), 14F9h(in SUB101), 14BCh(in SUB100), 14CAh(in SUB100), 1F79h(in SUB132), 1A03h(in SUB123), 1731h(in SUB114), 18F1h(in SUB120), 18F5h(in SUB120), 0DEAh(in SUB062), 18D8h(in SUB119), 0DD0h(in SUB064), 078Ch(in SUB045), 076Dh(in SUB044)
DATA04:      equ  4021h	; 16417. Data accessed by: 1F7Fh(in SUB132)
;
; Stack on Page 1, 10 bytes
STACK_PAGE1: equ  4022h
DATA05:      equ  4028h	; 16424. Data accessed by: 0EE3h(in SUB076), 0F32h(in SUB077), 0FA0h(in SUB082), 1023h(in SUB082)
; Last element of stack:
DATA06:      equ  402Ah
;
; Variable for string handling routines
VAR_BASIC_STRING: equ  402Ch
;
; The number of current BASIC line being executed
VAR_BASIC_CUR_LINE: equ  402Eh
DATA07:      equ  402Fh	; 16431. Data accessed by: 15ABh(in SUB107)
;
; Beginning of the BASIC PRG
ADDR_START_OF_BASIC_PRG: equ  4030h
;
; BASIC flags
VAR_BASIC_FLAGS: equ  4032h
;
; SP storage during page switch
VAR_SP_STORAGE: equ  4033h
;
; Address of next command to be executed by the command CONT
ADDR_BASIC_CMD_4_CONT: equ  4035h
;
; Address of the next data for the READ BASIC command
ADDR_NEXT_BASIC_DATA_4_READ: equ  4037h
DATA08:      equ  403Fh	; 16447. Data accessed by: 0039h(in USR_RST_7)
DATA09:      equ  4043h	; 16451. Data accessed by: 0031h(in USR_RST_6)
DATA10:      equ  4047h	; 16455. Data accessed by: 05EBh(in SUB028), 05F1h(in READ_ONE_LINE)
DATA11:      equ  4049h	; 16457. Data accessed by: 1517h(in LBL03), 15B4h(in SUB107)
DATA12:      equ  404Bh	; 16459. Data accessed by: 1D79h(in SUB126)
DATA13:      equ  404Ch	; 16460. Data accessed by: 1FE1h(in SUB138)
DATA14:      equ  4050h	; 16464. Data accessed by: 3FF9h(in SETUP_HL_STARTBASIC)
DATA15:      equ  4052h	; 16466. Data accessed by: 1FECh(in SUB139)
DATA16:      equ  4054h	; 16468. Data accessed by: 1FF2h(in SUB140)
DATA17:      equ  4056h	; 16470. Data accessed by: 15B1h(in SUB107)
DATA18:      equ  4058h	; 16472. Data accessed by: 0185h(in SUB008)
DATA19:      equ  405Eh	; 16478. Data accessed by: 0410h(in SUB022)
DATA20:      equ  405Fh	; 16479. Data accessed by: 0413h(in SUB022), 0F93h(in SUB083)
DATA21:      equ  E802h	; 59394. Data accessed by: 00A1h(in READ_KEYB), 00F7h(in WAIT_FOR_SYNC), 00FDh(in WAIT_FOR_SYNC), 0110h(in SUB003), 0556h(in READ_ONE_LINE)
DATA22:      equ  E803h	; 59395. Data accessed by: 00A9h(in READ_KEYB), 166Eh(in SUB109)
DATA23:      equ  E880h	; 59520. Data accessed by: 010Ah(in SUB003)
DATA24:      equ  ED18h	; 60696. Data accessed by: 08A6h(in SUB051)
;
; Address of the first mirror of the screen RAM
ADDR_SCREEN1: equ  F000h
DATA25:      equ  F411h	; 62481. Data accessed by: 08ABh(in SUB051)
;
; Address of the second half of the screen RAM
ADDR_SCREEN2: equ  F800h


             org 0000h; 0000h


; Subroutine: Size=8, CC=1.
; Called by: NMI[0067h].
; Calls: INIT_CONT.
0000 RESET:
0000 21 6A 03     ld   hl,036Ah 	; 874
0003 11 00 40     ld   de,4000h 	; 16384
0006 18 35        jr   INIT_CONT 	; 003Dh


; Restart: Size=5, CC=1.
; Called by: LOAD_HDR[062Ah], SAVE_HDR[06B5h], SAVE_HDR[06BBh], SAVE_HDR[06C7h], LOAD_CONT_CHECK_PRGEND[0730h], LOAD_ONE_REC[075Dh], SAVE[07AAh], SAVE[07ABh], SUB049[07D2h], SUB049[07D5h], SUB049[07D8h], SUB049[07DBh], SUB049[07E0h], SUB049[07EBh].
; Calls: -
0008 CAS_SAVE_LOAD_JMP:
0008 E5           push hl     
0009 2A 0C 40     ld   hl,(VECT_RST_1) 	; 400Ch
000C E9           jp   (hl)   


000D .rst10_loop:
000D CD 3E 05     call SUB027 	; 053Eh


; Restart: Size=8, CC=2.
; Called by: TOKENIZER[0CAFh], SUB019[03E9h], SUB010[01E2h].
; Calls: CHECK_FOR_60h, SUB027.
0010 RST10:
0010 E7           rst  20h    
0011 28 FA        jr   z,.rst10_loop 	; 000Dh
0013 A7           and  a      
0014 C9           ret         


0015 .sub001_loop1:
0015 D6 10        sub  10h    	; 16
0017 C9           ret         


; Label not accessed.
0018 INPUT_CHAR:
0018 E5           push hl     
0019 2A 02 40     ld   hl,(VECT_CH_INPUT) 	; 4002h
001C E9           jp   (hl)   


001D .sub001_loop2:
001D D0           ret  nc     
001E 18 F5        jr   .sub001_loop1 	; 0015h


; Restart: Size=7, CC=1.
; Called by: MONITOR_D[03C7h], SAVE_HDR[06BCh], LOAD_CONT_CHECK_PRGEND[073Dh], SUB087[10DEh], RUN[179Bh], SUB126[1D85h], SUB009[01C7h], SUB009[01D2h], RST10[0010h], SUB089[1193h], SUB089[11B6h], LBL01[1312h], SUB095[12D5h], SUB113[1711h], SUB117[1816h], SUB117[181Bh], SUB117[181Dh], SUB117[181Fh], SUB104[152Eh], SUB104[1534h], SUB117[182Dh], SUB117[1832h], SUB117[1834h], SUB117[183Ch], SUB117[183Eh], SUB117[1840h], SUB050[07F3h], SUB050[07FAh], SUB093[12BAh], SUB061[0D7Eh], SUB050[082Ah], SUB050[0834h], SUB076[0EA8h], SUB076[0EEEh], SUB076[0EF2h], SUB076[0EFFh], SUB076[0F01h], SUB133[1F90h], SUB077[0F31h], SUB109[169Ah], SUB101[14FDh], SUB062[0DA6h], SUB067[0E18h], SUB067[0E1Ah], SUB069[0E2Ah], SUB086[1053h], SUB086[1057h], SUB086[1059h], SUB086[105Bh], SUB086[1065h], SUB086[106Ch], SUB086[106Eh], SUB086[1075h], SUB086[1077h], SUB109[164Eh], SUB112[16F3h], SUB112[1703h], SUB072[0E46h].
; Calls: -
0020 CHECK_FOR_60h:
0020 1A           ld   a,(de) 
0021 13           inc  de     
0022 18 09        jr   .check_for_60h_l 	; 002Dh


; Subroutine: Size=10, CC=2.
; Called by: SUB015[0295h].
; Calls: -
0024 SUB001:
0024 FE 20        cp   20h    	; 32, ' '
0026 18 F5        jr   .sub001_loop2 	; 001Dh


; Restart: Size=5, CC=1.
; Called by: PRINT_STRING[0192h], SUB008[0199h], PRINT_HEX2[01B8h], MONITOR_R[03A0h], MONITOR_R[03A2h], MONITOR_R[03A8h], MONITOR_R[03A9h], MONITOR_D[03C6h], READ_ONE_LINE[054Ah], LOAD_HDR[0621h], SUB024[0452h], SUB007[0165h], SUB025[049Eh], SUB107[15BDh], READ_ONE_LINE[05B5h], READ_ONE_LINE[05BAh], READ_ONE_LINE[05BBh], SUB008[0184h], SUB025[04A6h], SUB105[153Dh], SUB101[1505h], SUB068[0E29h], SUB070[0E2Fh], SUB112[16F7h], SUB112[1702h], SUB072[0E45h], SUB071[0E3Eh], SUB072[0E52h], SUB072[0E5Dh].
; Calls: -
0028 OUTPUT_CHAR:
0028 E5           push hl     
0029 2A 04 40     ld   hl,(VECT_CH_OUTPUT) 	; 4004h
002C E9           jp   (hl)   


002D .check_for_60h_l:
002D FE 60        cp   60h    	; 96, '`'
002F C9           ret         


; Label not accessed.
0030 USR_RST_6:
0030 E5           push hl     
0031 2A 43 40     ld   hl,(DATA09) 	; 4043h
0034 E9           jp   (hl)   


0035 .sub002_loop:
0035 C3 0F 05     jp   CHECK_2_4KB_IN_SYSINIT 	; 050Fh


; Label not accessed.
0038 USR_RST_7:
0038 E5           push hl     
0039 2A 3F 40     ld   hl,(DATA08) 	; 403Fh
003C E9           jp   (hl)   


; Subroutine: Size=55, CC=3.
; Called by: RESET[0006h].
; Calls: PRINT_STRING.
003D INIT_CONT:
003D 01 16 00     ld   bc,0016h 	; 22
0040 ED B0        ldir        
0042 D3 FF        out  (00FFh),a 	; 255
0044 22 00 F8     ld   (ADDR_SCREEN2),hl 	; F800h
0047 3A 00 F8     ld   a,(ADDR_SCREEN2) 	; F800h
004A BC           cp   h      
004B 3E 01        ld   a,01h  	; 1
004D 20 01        jr   nz,.init_cont_l1 	; 0050h
004F 3C           inc  a      
0050 .init_cont_l1:
0050 D3 7F        out  (007Fh),a 	; 127
0052 32 0A 40     ld   (FLAG_32_64),a 	; 400Ah
0055 21 00 40     ld   hl,4000h 	; 16384
0058 .init_cont_loop:
0058 24           inc  h      
0059 7E           ld   a,(hl) 
005A 47           ld   b,a    
005B 2F           cpl         
005C 77           ld   (hl),a 
005D BE           cp   (hl)   
005E 70           ld   (hl),b 
005F 28 F7        jr   z,.init_cont_loop 	; 0058h
0061 2B           dec  hl     
0062 ED 56        im   1      
0064 18 05        jr   .init_cont_l2 	; 006Bh


; Subroutine: Size=4, CC=1.
; Called by: -
; Calls: RESET.
0066 NMI:
0066 E1           pop  hl     
0067 C3 00 00     jp   RESET  	; 0000h


006A 00           defb 00h    	; 0


006B .init_cont_l2:
006B 22 16 40     ld   (ADDR_END_OF_RAM),hl 	; 4016h
006E F9           ld   sp,hl  
006F 21 18 05     ld   hl,0518h 	; 1304
0072 FD 21 00 40  ld   iy,4000h 	; 16384
0076 CD 8F 01     call PRINT_STRING 	; 018Fh


; Subroutine: Size=15, CC=2.
; Called by: LOAD[1EF9h].
; Calls: CHECK_2_4KB_IN_SYSINIT, BASIC_ENH_START.
0079 SUB002:
0079 3A 00 20     ld   a,(BASIC_ENH_START) 	; 2000h, WARNING: Instruction accesses code!
007C A7           and  a      
007D CA 00 20     jp   z,BASIC_ENH_START 	; 2000h
0080 3A 78 1A     ld   a,(DATA01) 	; 1A78h
0083 18 B0        jr   .sub002_loop 	; 0035h


; Subroutine: Size=113, CC=15.
; Called by: READ_ONE_LINE[0566h], SUB013[0240h], SUB084[0FA9h].
; Calls: SUB006, SUB029.
0085 READ_KEYB:
0085 11 00 28     ld   de,2800h 	; 10240
0088 21 00 E8     ld   hl,E800h 	; 59392,  -6144
008B .read_keyb_loop1:
008B 7E           ld   a,(hl) 
008C 06 04        ld   b,04h  	; 4
008E .read_keyb_loop2:
008E 1F           rra         
008F 38 01        jr   c,.read_keyb_l01 	; 0092h
0091 5A           ld   e,d    
0092 .read_keyb_l01:
0092 14           inc  d      
0093 10 F9        djnz .read_keyb_loop2 	; 008Eh
0095 2C           inc  l      
0096 7D           ld   a,l    
0097 FE 02        cp   02h    	; 2
0099 20 02        jr   nz,.read_keyb_l02 	; 009Dh
009B 2C           inc  l      
009C 2C           inc  l      
009D .read_keyb_l02:
009D FE 14        cp   14h    	; 20
009F 20 EA        jr   nz,.read_keyb_loop1 	; 008Bh
00A1 3A 02 E8     ld   a,(DATA21) 	; E802h
00A4 1F           rra         
00A5 1F           rra         
00A6 30 01        jr   nc,.read_keyb_l03 	; 00A9h
00A8 1F           rra         
00A9 .read_keyb_l03:
00A9 3A 03 E8     ld   a,(DATA22) 	; E803h
00AC 1F           rra         
00AD 07           rlca        
00AE CD 10 06     call SUB029 	; 0610h
00B1 21 40 01     ld   hl,0140h 	; 320
00B4 06 20        ld   b,20h  	; 32, ' '
00B6 .read_keyb_loop3:
00B6 BE           cp   (hl)   
00B7 28 14        jr   z,.read_keyb_l04 	; 00CDh
00B9 2C           inc  l      
00BA 10 FA        djnz .read_keyb_loop3 	; 00B6h
00BC A7           and  a      
00BD C8           ret  z      
00BE FE 30        cp   30h    	; 48, '0'
00C0 30 0C        jr   nc,.read_keyb_l05 	; 00CEh
00C2 CB 3B        srl  e      
00C4 8F           adc  a,a    
00C5 26 01        ld   h,01h  	; 1
00C7 D6 1C        sub  1Ch    	; 28
00C9 6F           ld   l,a    
00CA 7E           ld   a,(hl) 
00CB 18 1E        jr   .read_keyb_l09 	; 00EBh
00CD .read_keyb_l04:
00CD 7D           ld   a,l    
00CE .read_keyb_l05:
00CE 0E 10        ld   c,10h  	; 16
00D0 FE 3C        cp   3Ch    	; 60, '<'
00D2 28 04        jr   z,.read_keyb_l06 	; 00D8h
00D4 FE 3E        cp   3Eh    	; 62, '>'
00D6 20 01        jr   nz,.read_keyb_l07 	; 00D9h
00D8 .read_keyb_l06:
00D8 91           sub  c      
00D9 .read_keyb_l07:
00D9 FE 40        cp   40h    	; 64, '@'
00DB 38 09        jr   c,.read_keyb_l08 	; 00E6h
00DD 0E 20        ld   c,20h  	; 32, ' '
00DF FD CB 08 46  bit  0,(iy+8) 
00E3 20 01        jr   nz,.read_keyb_l08 	; 00E6h
00E5 A9           xor  c      
00E6 .read_keyb_l08:
00E6 CB 1B        rr   e      
00E8 38 01        jr   c,.read_keyb_l09 	; 00EBh
00EA A9           xor  c      
00EB .read_keyb_l09:
00EB CD 26 01     call SUB006 	; 0126h
00EE CB 3B        srl  e      
00F0 30 03        jr   nc,.read_keyb_l10 	; 00F5h
00F2 28 01        jr   z,.read_keyb_l10 	; 00F5h
00F4 C9           ret         
00F5 .read_keyb_l10:
00F5 E9           jp   (hl)   


; Waits for the screen drawing is finished then returns so drawing to the screen 
; after this method can avoid screen flickering
00F6 WAIT_FOR_SYNC:
00F6 F5           push af     
00F7 .wait_for_sync_loop1:
00F7 3A 02 E8     ld   a,(DATA21) 	; E802h
00FA 1F           rra         
00FB 38 FA        jr   c,.wait_for_sync_loop1 	; 00F7h
00FD .wait_for_sync_loop2:
00FD 3A 02 E8     ld   a,(DATA21) 	; E802h
0100 1F           rra         
0101 30 FA        jr   nc,.wait_for_sync_loop2 	; 00FDh
0103 F1           pop  af     
0104 C9           ret         


; Subroutine: Size=3, CC=1.
; Called by: SUB015[02C2h], SUB013[0245h].
; Calls: SUB003.
0105 BEEP_FIXED:
0105 21 40 20     ld   hl,2040h 	; 8256


; Subroutine: Size=22, CC=3.
; Called by: SUB005[0124h], READ_ONE_LINE[05A9h], BEEP_FIXED[0105h].
; Calls: -
0108 SUB003:
0108 C5           push bc     
0109 .sub003_loop1:
0109 45           ld   b,l    
010A .sub003_loop2:
010A 3A 80 E8     ld   a,(DATA23) 	; E880h
010D 10 FB        djnz .sub003_loop2 	; 010Ah
010F 45           ld   b,l    
0110 .sub003_loop3:
0110 3A 02 E8     ld   a,(DATA21) 	; E802h
0113 10 FB        djnz .sub003_loop3 	; 0110h
0115 B9           cp   c      
0116 28 F1        jr   z,.sub003_loop1 	; 0109h
0118 4F           ld   c,a    
0119 25           dec  h      
011A 20 ED        jr   nz,.sub003_loop1 	; 0109h
011C C1           pop  bc     
011D C9           ret         


; Subroutine: Size=3, CC=1.
; Called by: SUB013[0257h].
; Calls: SUB005.
011E SUB004:
011E FD 34        inc  (iy)   
0120 09           add  hl,bc  


; Subroutine: Size=5, CC=1.
; Called by: READ_ONE_LINE[055Eh], SUB004[0120h].
; Calls: SUB003.
0121 SUB005:
0121 21 60 10     ld   hl,1060h 	; 4192
0124 18 E2        jr   SUB003 	; 0108h


; Subroutine: Size=14, CC=3.
; Called by: READ_KEYB[00EBh].
; Calls: -
0126 SUB006:
0126 2A 06 40     ld   hl,(VECT_F1_F2) 	; 4006h
0129 FE 60        cp   60h    	; 96, '`'
012B 28 03        jr   z,.sub006_l 	; 0130h
012D FE 7F        cp   7Fh    	; 127
012F C0           ret  nz     
0130 .sub006_l:
0130 3D           dec  a      
0131 F6 20        or   20h    	; 32, ' '
0133 C9           ret         


0134 05           defb 05h    	; 5
0135 08           defb 08h    	; 8
0136 0E           defb 0Eh    	; 14
0137 09           defb 09h    	; 9
0138 06           defb 06h    	; 6
0139 0B           defb 0Bh    	; 11
013A 07           defb 07h    	; 7
013B 0A           defb 0Ah    	; 10
013C 0F           defb 0Fh    	; 15
013D 20           defb 20h    	; 32, ' '
013E 0C           defb 0Ch    	; 12
013F 0D           defb 0Dh    	; 13
0140 42           defb 42h    	; 66, 'B'
0141 41           defb 41h    	; 65, 'A'
0142 43           defb 43h    	; 67, 'C'
0143 44           defb 44h    	; 68, 'D'
0144 45           defb 45h    	; 69, 'E'
0145 46           defb 46h    	; 70, 'F'
0146 48           defb 48h    	; 72, 'H'
0147 49           defb 49h    	; 73, 'I'
0148 4A           defb 4Ah    	; 74, 'J'
0149 4B           defb 4Bh    	; 75, 'K'
014A 4C           defb 4Ch    	; 76, 'L'
014B 4D           defb 4Dh    	; 77, 'M'
014C 4E           defb 4Eh    	; 78, 'N'
014D 4F           defb 4Fh    	; 79, 'O'
014E 50           defb 50h    	; 80, 'P'
014F 51           defb 51h    	; 81, 'Q'
0150 54           defb 54h    	; 84, 'T'
0151 55           defb 55h    	; 85, 'U'
0152 56           defb 56h    	; 86, 'V'
0153 57           defb 57h    	; 87, 'W'
0154 58           defb 58h    	; 88, 'X'
0155 59           defb 59h    	; 89, 'Y'
0156 5B           defb 5Bh    	; 91, '['
0157 5C           defb 5Ch    	; 92, '\'
0158 5D           defb 5Dh    	; 93, ']'
0159 5E           defb 5Eh    	; 94, '^'
015A 5F           defb 5Fh    	; 95, '_'
015B 47           defb 47h    	; 71, 'G'
015C 53           defb 53h    	; 83, 'S'
015D 5A           defb 5Ah    	; 90, 'Z'
015E 40           defb 40h    	; 64, '@'
015F 52           defb 52h    	; 82, 'R'


; Subroutine: Size=7, CC=2.
; Called by: READ_ONE_LINE[0543h].
; Calls: OUTPUT_CHAR.
0160 SUB007:
0160 FE 20        cp   20h    	; 32, ' '
0162 C8           ret  z      
0163 3E 0D        ld   a,0Dh  	; 13
0165 EF           rst  28h    
0166 C9           ret         


; Subroutine: Size=42, CC=6.
; Called by: LOAD_ONE_REC[0762h], SUB107[15AEh], SUB108[158Fh].
; Calls: OUTPUT_CHAR.
0167 SUB008:
0167 0E 00        ld   c,00h  	; 0
0169 FE 80        cp   80h    	; 128, -128
016B 38 2C        jr   c,.sub008_l3 	; 0199h
016D D6 7F        sub  7Fh    	; 127
016F 47           ld   b,a    
0170 FE 4A        cp   4Ah    	; 74, 'J'
0172 30 11        jr   nc,.sub008_l2 	; 0185h
0174 FE 0E        cp   0Eh    	; 14
0176 38 0D        jr   c,.sub008_l2 	; 0185h
0178 FE 30        cp   30h    	; 48, '0'
017A 0E 20        ld   c,20h  	; 32, ' '
017C 38 04        jr   c,.sub008_l1 	; 0182h
017E 0E 28        ld   c,28h  	; 40, '('
0180 18 03        jr   .sub008_l2 	; 0185h
0182 .sub008_l1:
0182 3E 20        ld   a,20h  	; 32, ' '
0184 EF           rst  28h    
0185 .sub008_l2:
0185 2A 58 40     ld   hl,(DATA18) 	; 4058h
0188 .sub008_loop:
0188 CB 7E        bit  7,(hl) 
018A 23           inc  hl     
018B 28 FB        jr   z,.sub008_loop 	; 0188h
018D 10 F9        djnz .sub008_loop 	; 0188h


; Subroutine: Size=12, CC=2.
; Called by: SUB126[1D7Fh], INIT_CONT[0076h], MONITOR_S[03E6h].
; Calls: OUTPUT_CHAR.
018F PRINT_STRING:
018F 7E           ld   a,(hl) 
0190 E6 7F        and  7Fh    	; 127
0192 EF           rst  28h    
0193 CB 7E        bit  7,(hl) 
0195 23           inc  hl     
0196 28 F7        jr   z,PRINT_STRING 	; 018Fh
0198 79           ld   a,c    


0199 .sub008_l3:
0199 EF           rst  28h    
019A C9           ret         


019B 0D           defb 0Dh    	; 13
019C 45           defb 45h    	; 69, 'E'
019D 72           defb 72h    	; 114, 'r'
019E 72           defb 72h    	; 114, 'r'
019F 8D           defb 8Dh    	; 141, -115


; Subroutine: Size=5, CC=1.
; Called by: MONITOR_R[03A3h].
; Calls: PRINT_HEX2.
01A0 PRINT_HEX4:
01A0 7A           ld   a,d    
01A1 CD A5 01     call PRINT_HEX2 	; 01A5h
01A4 7B           ld   a,e    


; Subroutine: Size=25, CC=2.
; Called by: PRINT_HEX4[01A1h], MONITOR_D[03C8h], PRINT_HEX4[01A4h].
; Calls: OUTPUT_CHAR.
01A5 PRINT_HEX2:
01A5 F5           push af     
01A6 07           rlca        
01A7 07           rlca        
01A8 07           rlca        
01A9 07           rlca        
01AA CD AE 01     call .print_hex2_l1 	; 01AEh
01AD F1           pop  af     
01AE .print_hex2_l1:
01AE E6 0F        and  0Fh    	; 15
01B0 FE 0A        cp   0Ah    	; 10
01B2 38 02        jr   c,.print_hex2_l2 	; 01B6h
01B4 C6 07        add  a,07h  	; 7
01B6 .print_hex2_l2:
01B6 C6 30        add  a,30h  	; 48, '0'
01B8 EF           rst  28h    
01B9 ED 53 12 40  ld   (VAR_MON01),de 	; 4012h
01BD C9           ret         


; Subroutine: Size=29, CC=3.
; Called by: MONITOR[037Ch].
; Calls: CHECK_FOR_60h, SUB010, SUB019, SUB021, SUB022, SUB023, READ_ONE_LINE.
01BE SUB009:
01BE CD 23 04     call SUB023 	; 0423h
01C1 CD 43 05     call READ_ONE_LINE 	; 0543h
01C4 CD E9 03     call SUB019 	; 03E9h
01C7 E7           rst  20h    
01C8 A7           and  a      
01C9 28 F3        jr   z,SUB009 	; 01BEh
01CB FE 23        cp   23h    	; 35, '#'
01CD 20 04        jr   nz,.sub009_l 	; 01D3h
01CF CD 04 04     call SUB022 	; 0404h
01D2 E7           rst  20h    
01D3 .sub009_l:
01D3 47           ld   b,a    
01D4 08           ex   af,af' 
01D5 CD DC 01     call SUB010 	; 01DCh
01D8 C3 FB 03     jp   SUB021 	; 03FBh


01DB 00           defb 00h    	; 0


; Subroutine: Size=31, CC=5.
; Called by: SUB009[01D5h], SUB020[03F3h], SUB026[052Eh].
; Calls: RST10, SUB019.
01DC SUB010:
01DC 21 00 00     ld   hl,0000h 	; 0
01DF CD E9 03     call SUB019 	; 03E9h
01E2 .sub010_loop:
01E2 D7           rst  10h    
01E3 D6 30        sub  30h    	; 48, '0'
01E5 D8           ret  c      
01E6 FE 17        cp   17h    	; 23
01E8 D0           ret  nc     
01E9 FE 0A        cp   0Ah    	; 10
01EB 38 05        jr   c,.sub010_l 	; 01F2h
01ED FE 11        cp   11h    	; 17
01EF D8           ret  c      
01F0 D6 07        sub  07h    	; 7
01F2 .sub010_l:
01F2 29           add  hl,hl  
01F3 29           add  hl,hl  
01F4 29           add  hl,hl  
01F5 29           add  hl,hl  
01F6 B5           or   l      
01F7 6F           ld   l,a    
01F8 10 E8        djnz .sub010_loop 	; 01E2h
01FA C9           ret         


; Subroutine: Size=6, CC=1.
; Called by: SUB012[022Ch].
; Calls: SUB011.
01FB RST5_SCROLL:
01FB 01 40 F8     ld   bc,F840h 	; 63552,  -1984
01FE 11 00 F8     ld   de,F800h 	; 63488,  -2048


; Subroutine: Size=31, CC=4.
; Called by: SUB013[0272h], RST5_SCROLL[01FEh].
; Calls: WAIT_FOR_SYNC.
0201 SUB011:
0201 C5           push bc     
0202 A7           and  a      
0203 ED 42        sbc  hl,bc  
0205 E3           ex   (sp),hl 
0206 C1           pop  bc     
0207 F8           ret  m      
0208 .sub011_loop1:
0208 CD F6 00     call WAIT_FOR_SYNC 	; 00F6h
020B 78           ld   a,b    
020C FE 02        cp   02h    	; 2
020E 38 0B        jr   c,.sub011_l 	; 021Bh
0210 C5           push bc     
0211 01 00 02     ld   bc,0200h 	; 512
0214 ED B0        ldir        
0216 C1           pop  bc     
0217 05           dec  b      
0218 05           dec  b      
0219 18 ED        jr   .sub011_loop1 	; 0208h
021B .sub011_l:
021B B1           or   c      
021C C8           ret  z      
021D .sub011_loop2:
021D ED B0        ldir        
021F C9           ret         


; Subroutine: Size=15, CC=1.
; Called by: SUB015[030Fh], SUB013[024Dh].
; Calls: -
0220 RST5_CLS:
0220 11 01 F8     ld   de,F801h 	; 63489,  -2047
0223 21 00 F8     ld   hl,F800h 	; 63488,  -2048
0226 01 00 08     ld   bc,0800h 	; 2048
0229 71           ld   (hl),c 
022A 18 F1        jr   .sub011_loop2 	; 021Dh


; Subroutine: Size=13, CC=1.
; Called by: SUB015[02DFh], SUB013[0263h].
; Calls: RST5_SCROLL.
022C SUB012:
022C CD FB 01     call RST5_SCROLL 	; 01FBh
022F D5           push de     
0230 06 40        ld   b,40h  	; 64, '@'
0232 97           sub  a      
0233 .sub012_loop:
0233 12           ld   (de),a 
0234 13           inc  de     
0235 10 FC        djnz .sub012_loop 	; 0233h
0237 D1           pop  de     
0238 C9           ret         


; Subroutine: Size=62, CC=8.
; Called by: SUB015[029Eh], SUB015[02B1h].
; Calls: READ_KEYB, BEEP_FIXED, SUB004, SUB011, RST5_CLS, SUB012, SUB014.
0239 SUB013:
0239 C5           push bc     
023A EB           ex   de,hl  
023B CB 7A        bit  7,d    
023D 20 27        jr   nz,.sub013_l2 	; 0266h
023F .sub013_loop:
023F E5           push hl     
0240 CD 85 00     call READ_KEYB 	; 0085h
0243 FE 20        cp   20h    	; 32, ' '
0245 CC 05 01     call z,BEEP_FIXED 	; 0105h
0248 E1           pop  hl     
0249 28 15        jr   z,.sub013_l1 	; 0260h
024B FE 0C        cp   0Ch    	; 12
024D CC 20 02     call z,RST5_CLS 	; 0220h
0250 11 00 F8     ld   de,F800h 	; 63488,  -2048
0253 28 11        jr   z,.sub013_l2 	; 0266h
0255 FE 0F        cp   0Fh    	; 15
0257 CC 1E 01     call z,SUB004 	; 011Eh
025A FD CB 09 46  bit  0,(iy+9) 
025E 28 DF        jr   z,.sub013_loop 	; 023Fh
0260 .sub013_l1:
0260 21 00 00     ld   hl,0000h 	; 0
0263 CD 2C 02     call SUB012 	; 022Ch
0266 .sub013_l2:
0266 06 40        ld   b,40h  	; 64, '@'
0268 7B           ld   a,e    
0269 E6 3F        and  3Fh    	; 63, '?'
026B C6 60        add  a,60h  	; 96, '`'
026D 4F           ld   c,a    
026E 60           ld   h,b    
026F FD 6E 0B     ld   l,(iy+11) 
0272 CD 01 02     call SUB011 	; 0201h
0275 EB           ex   de,hl  
0276 C1           pop  bc     


; Subroutine: Size=12, CC=1.
; Called by: SUB015[02F4h], SUB015[0355h], READ_ONE_LINE[05D1h], SUB025[04D1h], SUB013[0276h].
; Calls: -
0277 SUB014:
0277 22 14 40     ld   (ADDR_CURSOR_POS),hl 	; 4014h
027A 7D           ld   a,l    
027B E6 3F        and  3Fh    	; 63, '?'
027D C6 60        add  a,60h  	; 96, '`'
027F 32 0B 40     ld   (BUFFER_POINTER),a 	; 400Bh
0282 C9           ret         


; Subroutine: Size=216, CC=26.
; Called by: -
; Calls: SUB001, WAIT_FOR_SYNC, BEEP_FIXED, RST5_CLS, SUB012, SUB013, SUB014, SWITCH_TO_PAGE2, SWITCH_TO_PAGE1.
0283 SUB015:
0283 E1           pop  hl     
0284 D9           exx         
0285 F5           push af     
0286 CD 33 05     call SWITCH_TO_PAGE2 	; 0533h
0289 2A 14 40     ld   hl,(ADDR_CURSOR_POS) 	; 4014h
028C 06 00        ld   b,00h  	; 0
028E FD 4E 0A     ld   c,(iy+10) 
0291 FE 10        cp   10h    	; 16
0293 38 1B        jr   c,.sub015_l01 	; 02B0h
0295 CD 24 00     call SUB001 	; 0024h
0298 .sub015_loop1:
0298 47           ld   b,a    
0299 3A 0B 40     ld   a,(BUFFER_POINTER) 	; 400Bh
029C FE A0        cp   A0h    	; 160,  -96
029E CC 39 02     call z,SUB013 	; 0239h
02A1 26 40        ld   h,40h  	; 64, '@'
02A3 81           add  a,c    
02A4 32 0B 40     ld   (BUFFER_POINTER),a 	; 400Bh
02A7 3D           dec  a      
02A8 6F           ld   l,a    
02A9 70           ld   (hl),b 
02AA .sub015_loop2:
02AA CD BE 05     call SWITCH_TO_PAGE1 	; 05BEh
02AD D9           exx         
02AE F1           pop  af     
02AF C9           ret         
02B0 .sub015_l01:
02B0 F5           push af     
02B1 CD 39 02     call SUB013 	; 0239h
02B4 F1           pop  af     
02B5 FE 03        cp   03h    	; 3
02B7 20 04        jr   nz,.sub015_l02 	; 02BDh
02B9 FD CB 09 C6  set  0,(iy+9) 
02BD .sub015_l02:
02BD 3D           dec  a      
02BE 28 D8        jr   z,.sub015_loop1 	; 0298h
02C0 D6 04        sub  04h    	; 4
02C2 CC 05 01     call z,BEEP_FIXED 	; 0105h
02C5 28 E3        jr   z,.sub015_loop2 	; 02AAh
02C7 3D           dec  a      
02C8 20 1D        jr   nz,.sub015_l03 	; 02E7h
02CA 7E           ld   a,(hl) 
02CB A7           and  a      
02CC 28 DC        jr   z,.sub015_loop2 	; 02AAh
02CE 00           nop         
02CF 00           nop         
02D0 00           nop         
02D1 E5           push hl     
02D2 16 20        ld   d,20h  	; 32, ' '
02D4 .sub015_loop3:
02D4 7E           ld   a,(hl) 
02D5 72           ld   (hl),d 
02D6 57           ld   d,a    
02D7 09           add  hl,bc  
02D8 A7           and  a      
02D9 20 F9        jr   nz,.sub015_loop3 	; 02D4h
02DB 7E           ld   a,(hl) 
02DC A7           and  a      
02DD .sub015_loop4:
02DD 28 CB        jr   z,.sub015_loop2 	; 02AAh
02DF CD 2C 02     call SUB012 	; 022Ch
02E2 E1           pop  hl     
02E3 0E 40        ld   c,40h  	; 64, '@'
02E5 ED 42        sbc  hl,bc  
02E7 .sub015_l03:
02E7 3D           dec  a      
02E8 20 1D        jr   nz,.sub015_l05 	; 0307h
02EA 7E           ld   a,(hl) 
02EB A7           and  a      
02EC 20 02        jr   nz,.sub015_l04 	; 02F0h
02EE ED 42        sbc  hl,bc  
02F0 .sub015_l04:
02F0 7E           ld   a,(hl) 
02F1 A7           and  a      
02F2 .sub015_loop5:
02F2 28 B6        jr   z,.sub015_loop2 	; 02AAh
02F4 CD 77 02     call SUB014 	; 0277h
02F7 CD F6 00     call WAIT_FOR_SYNC 	; 00F6h
02FA 54           ld   d,h    
02FB 5D           ld   e,l    
02FC E5           push hl     
02FD .sub015_loop6:
02FD 09           add  hl,bc  
02FE 7E           ld   a,(hl) 
02FF 12           ld   (de),a 
0300 EB           ex   de,hl  
0301 09           add  hl,bc  
0302 EB           ex   de,hl  
0303 A7           and  a      
0304 20 F7        jr   nz,.sub015_loop6 	; 02FDh
0306 E1           pop  hl     
0307 .sub015_l05:
0307 FE 08        cp   08h    	; 8
0309 28 07        jr   z,.sub015_l06 	; 0312h
030B FE 05        cp   05h    	; 5
030D 20 06        jr   nz,.sub015_l07 	; 0315h
030F CD 20 02     call RST5_CLS 	; 0220h
0312 .sub015_l06:
0312 21 00 F8     ld   hl,F800h 	; 63488,  -2048
0315 .sub015_l07:
0315 FE 07        cp   07h    	; 7
0317 20 13        jr   nz,.sub015_l08 	; 032Ch
0319 .sub015_loop7:
0319 3E 20        ld   a,20h  	; 32, ' '
031B 16 40        ld   d,40h  	; 64, '@'
031D FD 5E 0B     ld   e,(iy+11) 
0320 12           ld   (de),a 
0321 1C           inc  e      
0322 7B           ld   a,e    
0323 32 0B 40     ld   (BUFFER_POINTER),a 	; 400Bh
0326 E6 0F        and  0Fh    	; 15
0328 20 EF        jr   nz,.sub015_loop7 	; 0319h
032A 18 C6        jr   .sub015_loop5 	; 02F2h
032C .sub015_l08:
032C FE 03        cp   03h    	; 3
032E 20 02        jr   nz,.sub015_l09 	; 0332h
0330 ED 42        sbc  hl,bc  
0332 .sub015_l09:
0332 FE 04        cp   04h    	; 4
0334 20 01        jr   nz,.sub015_l10 	; 0337h
0336 09           add  hl,bc  
0337 .sub015_l10:
0337 0E 40        ld   c,40h  	; 64, '@'
0339 FE 06        cp   06h    	; 6
033B 20 08        jr   nz,.sub015_l11 	; 0345h
033D 7D           ld   a,l    
033E E6 C0        and  C0h    	; 192,  -64
0340 6F           ld   l,a    
0341 09           add  hl,bc  
0342 3C           inc  a      
0343 18 10        jr   .sub015_l14 	; 0355h
0345 .sub015_l11:
0345 3D           dec  a      
0346 20 01        jr   nz,.sub015_l12 	; 0349h
0348 09           add  hl,bc  
0349 .sub015_l12:
0349 3D           dec  a      
034A 20 03        jr   nz,.sub015_l13 	; 034Fh
034C A7           and  a      
034D ED 42        sbc  hl,bc  
034F .sub015_l13:
034F CB 7C        bit  7,h    
0351 28 05        jr   z,.sub015_l15 	; 0358h
0353 CB 5C        bit  3,h    
0355 .sub015_l14:
0355 C4 77 02     call nz,SUB014 	; 0277h
0358 .sub015_l15:
0358 97           sub  a      
0359 18 82        jr   .sub015_loop4 	; 02DDh


; Subroutine: Size=14, CC=1.
; Called by: SUB114[171Ch].
; Calls: SWITCH_TO_PAGE2, SWITCH_TO_PAGE1, SUB084.
035B SUB016:
035B E5           push hl     
035C D9           exx         
035D CD 33 05     call SWITCH_TO_PAGE2 	; 0533h
0360 CD A6 0F     call SUB084 	; 0FA6h
0363 CD BE 05     call SWITCH_TO_PAGE1 	; 05BEh
0366 D9           exx         
0367 .sub016_loop:
0367 E1           pop  hl     
0368 C9           ret         


0369 00           defb 00h    	; 0
036A 7C           defb 7Ch    	; 124, '|'
036B 15           defb 15h    	; 21
036C 5C           defb 5Ch    	; 92, '\'
036D 03           defb 03h    	; 3
036E 83           defb 83h    	; 131, -125
036F 02           defb 02h    	; 2
0370 00           defb 00h    	; 0
0371 06           defb 06h    	; 6


; Subroutine: Size=8, CC=1.
; Called by: SUB027[0540h].
; Calls: SUB028.
0372 SUB017:
0372 1B           dec  de     
0373 A7           and  a      
0374 CD DD 05     call SUB028 	; 05DDh
0377 C1           pop  bc     
0378 E1           pop  hl     
0379 C9           ret         


037A 7C           defb 7Ch    	; 124, '|'
037B 15           defb 15h    	; 21


; Label accessed by:
; 0513h(in CHECK_2_4KB_IN_SYSINIT)
037C MONITOR:
037C CD BE 01     call SUB009 	; 01BEh
037F CD 84 03     call SUB018 	; 0384h
0382 18 F8        jr   MONITOR 	; 037Ch


; Subroutine: Size=5, CC=2.
; Called by: MONITOR[037Fh].
; Calls: MONITOR_R.
0384 SUB018:
0384 FE 47        cp   47h    	; 71, 'G'
0386 20 01        jr   nz,MONITOR_R 	; 0389h
0388 E9           jp   (hl)   


; Subroutine: Size=36, CC=5.
; Called by: SUB018[0386h].
; Calls: OUTPUT_CHAR, PRINT_HEX4, MONITOR_D, SUB020.
0389 MONITOR_R:
0389 FE 52        cp   52h    	; 82, 'R'
038B 28 DA        jr   z,.sub016_loop 	; 0367h
038D 0E 3A        ld   c,3Ah  	; 58, ':'
038F B9           cp   c      
0390 20 19        jr   nz,MONITOR_D 	; 03ABh
0392 CD F0 03     call SUB020 	; 03F0h
0395 C0           ret  nz     
0396 .monitor_r_loop1:
0396 77           ld   (hl),a 
0397 23           inc  hl     
0398 CD F0 03     call SUB020 	; 03F0h
039B 28 F9        jr   z,.monitor_r_loop1 	; 0396h
039D EB           ex   de,hl  
039E .monitor_r_loop2:
039E 3E 0D        ld   a,0Dh  	; 13
03A0 EF           rst  28h    
03A1 79           ld   a,c    
03A2 EF           rst  28h    
03A3 CD A0 01     call PRINT_HEX4 	; 01A0h
03A6 3E 20        ld   a,20h  	; 32, ' '
03A8 EF           rst  28h    
03A9 EF           rst  28h    
03AA C9           ret         


; Subroutine: Size=44, CC=4.
; Called by: MONITOR_R[0390h].
; Calls: CHECK_FOR_60h, OUTPUT_CHAR, PRINT_HEX2, MONITOR_S, SUB026.
03AB MONITOR_D:
03AB E5           push hl     
03AC CD 2D 05     call SUB026 	; 052Dh
03AF FE 44        cp   44h    	; 68, 'D'
03B1 20 24        jr   nz,MONITOR_S 	; 03D7h
03B3 D1           pop  de     
03B4 06 10        ld   b,10h  	; 16
03B6 .monitor_d_loop1:
03B6 CD 9E 03     call .monitor_r_loop2 	; 039Eh
03B9 C5           push bc     
03BA 06 08        ld   b,08h  	; 8
03BC FD CB 0A 46  bit  0,(iy+10) 
03C0 28 02        jr   z,.monitor_d_loop2 	; 03C4h
03C2 06 10        ld   b,10h  	; 16
03C4 .monitor_d_loop2:
03C4 3E 20        ld   a,20h  	; 32, ' '
03C6 EF           rst  28h    
03C7 E7           rst  20h    
03C8 CD A5 01     call PRINT_HEX2 	; 01A5h
03CB 10 F7        djnz .monitor_d_loop2 	; 03C4h
03CD C1           pop  bc     
03CE 10 E6        djnz .monitor_d_loop1 	; 03B6h
03D0 04           inc  b      
03D1 ED 52        sbc  hl,de  
03D3 19           add  hl,de  
03D4 30 E0        jr   nc,.monitor_d_loop1 	; 03B6h
03D6 C9           ret         


; Subroutine: Size=18, CC=2.
; Called by: MONITOR_D[03B1h].
; Calls: PRINT_STRING, SUB019, SAVE.
03D7 MONITOR_S:
03D7 C1           pop  bc     
03D8 FE 53        cp   53h    	; 83, 'S'
03DA 20 06        jr   nz,.monitor_s_l 	; 03E2h
03DC CD E9 03     call SUB019 	; 03E9h
03DF C3 A3 07     jp   SAVE   	; 07A3h
03E2 .monitor_s_l:
03E2 21 9B 01     ld   hl,019Bh 	; 411
03E5 4C           ld   c,h    
03E6 C3 8F 01     jp   PRINT_STRING 	; 018Fh


; Subroutine: Size=7, CC=2.
; Called by: MONITOR_S[03DCh], SUB009[01C4h], SUB010[01DFh], SUB073[0E6Eh].
; Calls: RST10.
03E9 SUB019:
03E9 D7           rst  10h    
03EA FE 20        cp   20h    	; 32, ' '
03EC 28 FB        jr   z,SUB019 	; 03E9h
03EE 1B           dec  de     
03EF C9           ret         


; Subroutine: Size=11, CC=1.
; Called by: MONITOR_R[0392h], MONITOR_R[0398h].
; Calls: SUB010.
03F0 SUB020:
03F0 06 02        ld   b,02h  	; 2
03F2 E5           push hl     
03F3 CD DC 01     call SUB010 	; 01DCh
03F6 7D           ld   a,l    
03F7 E1           pop  hl     
03F8 CB 48        bit  1,b    
03FA C9           ret         


; Subroutine: Size=9, CC=2.
; Called by: SUB009[01D8h].
; Calls: -
03FB SUB021:
03FB 7C           ld   a,h    
03FC B5           or   l      
03FD 20 03        jr   nz,.sub021_l 	; 0402h
03FF 2A 12 40     ld   hl,(VAR_MON01) 	; 4012h
0402 .sub021_l:
0402 08           ex   af,af' 
0403 C9           ret         


; Subroutine: Size=31, CC=1.
; Called by: SUB009[01CFh].
; Calls: -
0404 SUB022:
0404 3E 0F        ld   a,0Fh  	; 15
0406 D3 02        out  (0002h),a 	; 2
0408 D3 00        out  (0000h),a 	; 0
040A 3E CF        ld   a,CFh  	; 207,  -49
040C D3 03        out  (0003h),a 	; 3
040E 3E 80        ld   a,80h  	; 128, -128
0410 32 5E 40     ld   (DATA19),a 	; 405Eh
0413 32 5F 40     ld   (DATA20),a 	; 405Fh
0416 D3 03        out  (0003h),a 	; 3
0418 3E FB        ld   a,FBh  	; 251,   -5
041A D3 01        out  (0001h),a 	; 1
041C 21 28 04     ld   hl,0428h 	; 1064
041F .sub022_loop:
041F 22 04 40     ld   (VECT_CH_OUTPUT),hl 	; 4004h
0422 C9           ret         


; Subroutine: Size=9, CC=1.
; Called by: READ_ONE_LINE[0546h], SUB009[01BEh].
; Calls: -
0423 SUB023:
0423 21 83 02     ld   hl,0283h 	; 643
0426 18 F7        jr   .sub022_loop 	; 041Fh


; Subroutine: Size=102, CC=15.
; Called by: -
; Calls: OUTPUT_CHAR.
0428 SUB024:
0428 E1           pop  hl     
0429 F5           push af     
042A FE 22        cp   22h    	; 34, '"'
042C 20 03        jr   nz,.sub024_l1 	; 0431h
042E FD 34        inc  (iy)   
0430 5F           ld   e,a    
0431 .sub024_l1:
0431 FD CB 5F 46  bit  0,(iy+95) 
0435 20 25        jr   nz,.sub024_l4 	; 045Ch
0437 A7           and  a      
0438 28 20        jr   z,.sub024_l3 	; 045Ah
043A FE 0D        cp   0Dh    	; 13
043C 20 06        jr   nz,.sub024_l2 	; 0444h
043E .sub024_loop1:
043E FD 36 5E 00  ld   (iy+94),00h 	; 0
0442 18 34        jr   .sub024_l9 	; 0478h
0444 .sub024_l2:
0444 FE 0C        cp   0Ch    	; 12
0446 28 F6        jr   z,.sub024_loop1 	; 043Eh
0448 FE 1B        cp   1Bh    	; 27
044A 28 2C        jr   z,.sub024_l9 	; 0478h
044C FE 0E        cp   0Eh    	; 14
044E 20 0C        jr   nz,.sub024_l4 	; 045Ch
0450 .sub024_loop2:
0450 3E 20        ld   a,20h  	; 32, ' '
0452 EF           rst  28h    
0453 FD 7E 5E     ld   a,(iy+94) 
0456 E6 0F        and  0Fh    	; 15
0458 20 F6        jr   nz,.sub024_loop2 	; 0450h
045A .sub024_l3:
045A F1           pop  af     
045B C9           ret         
045C .sub024_l4:
045C FE 5F        cp   5Fh    	; 95, '_'
045E 20 02        jr   nz,.sub024_l5 	; 0462h
0460 3E 4F        ld   a,4Fh  	; 79, 'O'
0462 .sub024_l5:
0462 FE 20        cp   20h    	; 32, ' '
0464 38 04        jr   c,.sub024_l6 	; 046Ah
0466 FE C0        cp   C0h    	; 192,  -64
0468 38 02        jr   c,.sub024_l7 	; 046Ch
046A .sub024_l6:
046A 3E 5F        ld   a,5Fh  	; 95, '_'
046C .sub024_l7:
046C FE 60        cp   60h    	; 96, '`'
046E 20 02        jr   nz,.sub024_l8 	; 0472h
0470 3E 20        ld   a,20h  	; 32, ' '
0472 .sub024_l8:
0472 FE 7F        cp   7Fh    	; 127
0474 20 02        jr   nz,.sub024_l9 	; 0478h
0476 3E 60        ld   a,60h  	; 96, '`'
0478 .sub024_l9:
0478 F5           push af     
0479 .sub024_loop3:
0479 DB 01        in   a,(0001h) 	; 1
047B 87           add  a,a    
047C 38 FB        jr   c,.sub024_loop3 	; 0479h
047E F1           pop  af     
047F D3 00        out  (0000h),a 	; 0
0481 3E BB        ld   a,BBh  	; 187,  -69
0483 D3 01        out  (0001h),a 	; 1
0485 3E FB        ld   a,FBh  	; 251,   -5
0487 D3 01        out  (0001h),a 	; 1
0489 FD 34        inc  (iy)   
048B 5E           ld   e,(hl) 
048C F1           pop  af     
048D C9           ret         


; Subroutine: Size=94, CC=9.
; Called by: SUB126[1D86h].
; Calls: OUTPUT_CHAR, SUB014, SUB043, SUB051, BASIC_INTERPRETER, SUB095, SUB096, SUB105.
048E SUB025:
048E FE 3A        cp   3Ah    	; 58, ':'
0490 C8           ret  z      
0491 FE 27        cp   27h    	; 39, '''
0493 C8           ret  z      
0494 FE 3B        cp   3Bh    	; 59, ';'
0496 28 3C        jr   z,.sub025_l5 	; 04D4h
0498 FE 2C        cp   2Ch    	; 44, ','
049A 20 05        jr   nz,.sub025_l1 	; 04A1h
049C 3E 0E        ld   a,0Eh  	; 14
049E EF           rst  28h    
049F 18 33        jr   .sub025_l5 	; 04D4h
04A1 .sub025_l1:
04A1 FE 8F        cp   8Fh    	; 143, -113
04A3 20 33        jr   nz,.sub025_l6 	; 04D8h
04A5 97           sub  a      
04A6 EF           rst  28h    
04A7 CD DB 12     call SUB096 	; 12DBh
04AA FD CB 0A 46  bit  0,(iy+10) 
04AE 20 01        jr   nz,.sub025_l2 	; 04B1h
04B0 87           add  a,a    
04B1 .sub025_l2:
04B1 E6 3F        and  3Fh    	; 63, '?'
04B3 F5           push af     
04B4 1A           ld   a,(de) 
04B5 FE 2C        cp   2Ch    	; 44, ','
04B7 28 09        jr   z,.sub025_l3 	; 04C2h
04B9 2A 14 40     ld   hl,(ADDR_CURSOR_POS) 	; 4014h
04BC 7D           ld   a,l    
04BD E6 C0        and  C0h    	; 192,  -64
04BF 6F           ld   l,a    
04C0 18 0C        jr   .sub025_l4 	; 04CEh
04C2 .sub025_l3:
04C2 CD D5 12     call SUB095 	; 12D5h
04C5 6F           ld   l,a    
04C6 29           add  hl,hl  
04C7 29           add  hl,hl  
04C8 29           add  hl,hl  
04C9 26 FF        ld   h,FFh  	; 255,   -1
04CB 29           add  hl,hl  
04CC 29           add  hl,hl  
04CD 29           add  hl,hl  
04CE .sub025_l4:
04CE F1           pop  af     
04CF B5           or   l      
04D0 6F           ld   l,a    
04D1 CD 77 02     call SUB014 	; 0277h
04D4 .sub025_l5:
04D4 26 00        ld   h,00h  	; 0
04D6 37           scf         
04D7 C9           ret         
04D8 .sub025_l6:
04D8 1B           dec  de     
04D9 CD CD 10     call BASIC_INTERPRETER 	; 10CDh
04DC D5           push de     
04DD 04           inc  b      
04DE C4 74 08     call nz,SUB051 	; 0874h
04E1 CD 26 07     call SUB043 	; 0726h
04E4 CD 38 15     call SUB105 	; 1538h
04E7 D1           pop  de     
04E8 26 0D        ld   h,0Dh  	; 13
04EA 37           scf         
04EB C9           ret         


04EC 1A           defb 1Ah    	; 26
04ED FE           defb FEh    	; 254,   -2
04EE 23           defb 23h    	; 35, '#'
04EF 20           defb 20h    	; 32, ' '
04F0 10           defb 10h    	; 16
04F1 13           defb 13h    	; 19
04F2 CD           defb CDh    	; 205,  -51
04F3 DB           defb DBh    	; 219,  -37
04F4 12           defb 12h    	; 18
04F5 FE           defb FEh    	; 254,   -2
04F6 02           defb 02h    	; 2
04F7 38           defb 38h    	; 56, '8'
04F8 04           defb 04h    	; 4
04F9 2A           defb 2Ah    	; 42, '*'
04FA 10           defb 10h    	; 16
04FB 40           defb 40h    	; 64, '@'
04FC E9           defb E9h    	; 233,  -23
04FD 3D           defb 3Dh    	; 61, '='
04FE CC           defb CCh    	; 204,  -52
04FF 04           defb 04h    	; 4
0500 04           defb 04h    	; 4
0501 26           defb 26h    	; 38, '&'
0502 0D           defb 0Dh    	; 13
0503 E7           defb E7h    	; 231,  -25
0504 C4           defb C4h    	; 196,  -60
0505 8E           defb 8Eh    	; 142, -114
0506 04           defb 04h    	; 4
0507 38           defb 38h    	; 56, '8'
0508 FA           defb FAh    	; 250,   -6
0509 7C           defb 7Ch    	; 124, '|'
050A EF           defb EFh    	; 239,  -17
050B 1B           defb 1Bh    	; 27
050C C3           defb C3h    	; 195,  -61
050D 23           defb 23h    	; 35, '#'
050E 04           defb 04h    	; 4


; Subroutine: Size=15, CC=2.
; Called by: SUB002[0035h].
; Calls: MONITOR, BASIC_SIMPLE_ENTRY_POINT.
050F CHECK_2_4KB_IN_SYSINIT:
050F A7           and  a      
0510 CA 4D 1D     jp   z,BASIC_SIMPLE_ENTRY_POINT 	; 1D4Dh
0513 C3 7C 03     jp   MONITOR 	; 037Ch


0516 00           defb 00h    	; 0
0517 00           defb 00h    	; 0
0518 0C           defb 0Ch    	; 12
0519 20           defb 20h    	; 32, ' '
051A 20           defb 20h    	; 32, ' '
051B 20           defb 20h    	; 32, ' '
051C 20           defb 20h    	; 32, ' '
051D 20           defb 20h    	; 32, ' '
051E 20           defb 20h    	; 32, ' '
051F 20           defb 20h    	; 32, ' '
0520 20           defb 20h    	; 32, ' '
0521 20           defb 20h    	; 32, ' '
0522 48           defb 48h    	; 72, 'H'
0523 6F           defb 6Fh    	; 111, 'o'
0524 6D           defb 6Dh    	; 109, 'm'
0525 65           defb 65h    	; 101, 'e'
0526 4C           defb 4Ch    	; 76, 'L'
0527 61           defb 61h    	; 97, 'a'
0528 62           defb 62h    	; 98, 'b'
0529 20           defb 20h    	; 32, ' '
052A 33           defb 33h    	; 51, '3'
052B 0D           defb 0Dh    	; 13
052C 8D           defb 8Dh    	; 141, -115


; Subroutine: Size=6, CC=1.
; Called by: MONITOR_D[03ACh].
; Calls: SUB010.
052D SUB026:
052D 08           ex   af,af' 
052E CD DC 01     call SUB010 	; 01DCh
0531 08           ex   af,af' 
0532 C9           ret         


; Subroutine: Size=11, CC=1.
; Called by: SUB015[0286h], READ_ONE_LINE[054Fh], SUB028[05DDh], SUB016[035Dh].
; Calls: -
0533 SWITCH_TO_PAGE2:
0533 E1           pop  hl     
0534 ED 73 33 40  ld   (VAR_SP_STORAGE),sp 	; 4033h
0538 31 2C 40     ld   sp,VAR_BASIC_STRING 	; 402Ch, top of stack
053B D3 FF        out  (00FFh),a 	; 255
053D E9           jp   (hl)   


; Subroutine: Size=5, CC=1.
; Called by: RST10[000Dh].
; Calls: SUB017.
053E SUB027:
053E E5           push hl     
053F C5           push bc     
0540 C3 72 03     jp   SUB017 	; 0372h


; Subroutine: Size=161, CC=13.
; Called by: SUB009[01C1h], SUB138[1FE5h].
; Calls: OUTPUT_CHAR, READ_KEYB, WAIT_FOR_SYNC, SUB003, SUB005, SUB007, SUB014, SUB023, SWITCH_TO_PAGE2, SWITCH_TO_PAGE1, SUB037, SUB038.
0543 READ_ONE_LINE:
0543 CD 60 01     call SUB007 	; 0160h
0546 CD 23 04     call SUB023 	; 0423h
0549 97           sub  a      
054A EF           rst  28h    
054B 1E 0D        ld   e,0Dh  	; 13
054D 16 02        ld   d,02h  	; 2
054F .read_one_line_loop1:
054F CD 33 05     call SWITCH_TO_PAGE2 	; 0533h
0552 2A 14 40     ld   hl,(ADDR_CURSOR_POS) 	; 4014h
0555 4E           ld   c,(hl) 
0556 .read_one_line_loop2:
0556 3A 02 E8     ld   a,(DATA21) 	; E802h
0559 CB 5F        bit  3,a    
055B 20 08        jr   nz,.read_one_line_loop3 	; 0565h
055D E5           push hl     
055E CD 21 01     call SUB005 	; 0121h
0561 FD 34        inc  (iy)   
0563 08           ex   af,af' 
0564 E1           pop  hl     
0565 .read_one_line_loop3:
0565 D9           exx         
0566 CD 85 00     call READ_KEYB 	; 0085h
0569 F5           push af     
056A 7A           ld   a,d    
056B 21 68 03     ld   hl,0368h 	; 872
056E 1F           rra         
056F 38 02        jr   c,.read_one_line_l1 	; 0573h
0571 2E 58        ld   l,58h  	; 88, 'X'
0573 .read_one_line_l1:
0573 1F           rra         
0574 30 03        jr   nc,.read_one_line_l2 	; 0579h
0576 1F           rra         
0577 38 02        jr   c,.read_one_line_l3 	; 057Bh
0579 .read_one_line_l2:
0579 2E 48        ld   l,48h  	; 72, 'H'
057B .read_one_line_l3:
057B D9           exx         
057C 3A 08 40     ld   a,(FLAG_SHIFT_ALTER) 	; 4008h
057F 1F           rra         
0580 3E 01        ld   a,01h  	; 1
0582 8F           adc  a,a    
0583 CB 5A        bit  3,d    
0585 28 01        jr   z,.read_one_line_l4 	; 0588h
0587 79           ld   a,c    
0588 .read_one_line_l4:
0588 CD F6 00     call WAIT_FOR_SYNC 	; 00F6h
058B 77           ld   (hl),a 
058C 15           dec  d      
058D F1           pop  af     
058E 20 08        jr   nz,.read_one_line_l5 	; 0598h
0590 B3           or   e      
0591 28 C3        jr   z,.read_one_line_loop2 	; 0556h
0593 11 00 19     ld   de,1900h 	; 6400
0596 18 BE        jr   .read_one_line_loop2 	; 0556h
0598 .read_one_line_l5:
0598 BB           cp   e      
0599 20 08        jr   nz,.read_one_line_l6 	; 05A3h
059B CB 7A        bit  7,d    
059D 28 C6        jr   z,.read_one_line_loop3 	; 0565h
059F 16 01        ld   d,01h  	; 1
05A1 18 02        jr   .read_one_line_l7 	; 05A5h
05A3 .read_one_line_l6:
05A3 16 19        ld   d,19h  	; 25
05A5 .read_one_line_l7:
05A5 5F           ld   e,a    
05A6 71           ld   (hl),c 
05A7 D5           push de     
05A8 D9           exx         
05A9 CD 08 01     call SUB003 	; 0108h
05AC D1           pop  de     
05AD 7B           ld   a,e    
05AE FE 0D        cp   0Dh    	; 13
05B0 28 14        jr   z,.read_one_line_l8 	; 05C6h
05B2 CD BE 05     call SWITCH_TO_PAGE1 	; 05BEh
05B5 EF           rst  28h    
05B6 FE 0E        cp   0Eh    	; 14
05B8 00           nop         
05B9 97           sub  a      
05BA EF           rst  28h    
05BB EF           rst  28h    
05BC 18 91        jr   .read_one_line_loop1 	; 054Fh


; Subroutine: Size=8, CC=1.
; Called by: SUB015[02AAh], READ_ONE_LINE[05FCh], READ_ONE_LINE[05B2h], SUB016[0363h].
; Calls: -
05BE SWITCH_TO_PAGE1:
05BE E1           pop  hl     
05BF ED 7B 33 40  ld   sp,(VAR_SP_STORAGE) 	; 4033h
05C3 D3 7F        out  (007Fh),a 	; 127
05C5 E9           jp   (hl)   


05C6 .read_one_line_l8:
05C6 CD F6 06     call SUB038 	; 06F6h
05C9 .read_one_line_loop4:
05C9 7E           ld   a,(hl) 
05CA 09           add  hl,bc  
05CB A7           and  a      
05CC 20 FB        jr   nz,.read_one_line_loop4 	; 05C9h
05CE ED 42        sbc  hl,bc  
05D0 00           nop         
05D1 CD 77 02     call SUB014 	; 0277h
05D4 .read_one_line_loop5:
05D4 ED 42        sbc  hl,bc  
05D6 7E           ld   a,(hl) 
05D7 A7           and  a      
05D8 20 FA        jr   nz,.read_one_line_loop5 	; 05D4h
05DA 09           add  hl,bc  
05DB 18 14        jr   .read_one_line_l9 	; 05F1h


; Subroutine: Size=35, CC=2.
; Called by: TOKENIZER[0CD1h], SUB017[0374h].
; Calls: SWITCH_TO_PAGE2, SUB038.
05DD SUB028:
05DD CD 33 05     call SWITCH_TO_PAGE2 	; 0533h
05E0 CD F6 06     call SUB038 	; 06F6h
05E3 7B           ld   a,e    
05E4 D6 60        sub  60h    	; 96, '`'
05E6 CB 41        bit  0,c    
05E8 20 01        jr   nz,.sub028_l 	; 05EBh
05EA 87           add  a,a    
05EB .sub028_l:
05EB 2A 47 40     ld   hl,(DATA10) 	; 4047h
05EE 5F           ld   e,a    
05EF 50           ld   d,b    
05F0 19           add  hl,de  


05F1 .read_one_line_l9:
05F1 22 47 40     ld   (DATA10),hl 	; 4047h
05F4 11 60 40     ld   de,4060h 	; 16480
05F7 0D           dec  c      
05F8 00           nop         
05F9 CD E8 06     call SUB037 	; 06E8h
05FC CD BE 05     call SWITCH_TO_PAGE1 	; 05BEh
05FF C9           ret         


0600 FE           defb FEh    	; 254,   -2
0601 10           defb 10h    	; 16
0602 30           defb 30h    	; 48, '0'
0603 03           defb 03h    	; 3
0604 C6           defb C6h    	; 198,  -58
0605 10           defb 10h    	; 16
0606 C9           defb C9h    	; 201,  -55
0607 CB           defb CBh    	; 203,  -53
0608 4A           defb 4Ah    	; 74, 'J'
0609 20           defb 20h    	; 32, ' '
060A 02           defb 02h    	; 2
060B C6           defb C6h    	; 198,  -58
060C 40           defb 40h    	; 64, '@'
060D C6           defb C6h    	; 198,  -58
060E 40           defb 40h    	; 64, '@'
060F C9           defb C9h    	; 201,  -55


; Subroutine: Size=6, CC=1.
; Called by: READ_KEYB[00AEh].
; Calls: -
0610 SUB029:
0610 E6 07        and  07h    	; 7
0612 57           ld   d,a    
0613 7B           ld   a,e    
0614 5A           ld   e,d    
0615 C9           ret         


; Subroutine: Size=9, CC=2.
; Called by: -
; Calls: SUB035.
0616 LOAD_1_BYTE:
0616 3E 01        ld   a,01h  	; 1
0618 .load_1_byte_loop:
0618 CD 7C 06     call SUB035 	; 067Ch
061B 30 FB        jr   nc,.load_1_byte_loop 	; 0618h
061D E1           pop  hl     
061E C9           ret         


; Subroutine: Size=27, CC=3.
; Called by: LOAD_ONE_REC[0751h].
; Calls: CAS_SAVE_LOAD_JMP, OUTPUT_CHAR, SUB035, SUB040.
061F LOAD_HDR:
061F 3E 0D        ld   a,0Dh  	; 13
0621 EF           rst  28h    
0622 21 16 06     ld   hl,0616h 	; 1558
0625 22 0C 40     ld   (VECT_RST_1),hl 	; 400Ch
0628 .load_hdr_loop1:
0628 06 80        ld   b,80h  	; 128, -128
;
; RST 8: CAS_SAVE_LOAD_JMP
062A .load_hdr_loop2:
062A CF           rst  08h    
062B 20 FB        jr   nz,.load_hdr_loop1 	; 0628h
062D 10 FB        djnz .load_hdr_loop2 	; 062Ah
062F .load_hdr_loop3:
062F CD 7C 06     call SUB035 	; 067Ch
0632 FE A5        cp   A5h    	; 165,  -91
0634 20 F9        jr   nz,.load_hdr_loop3 	; 062Fh
0636 D5           push de     
0637 C3 04 07     jp   SUB040 	; 0704h


; Subroutine: Size=11, CC=2.
; Called by: SUB092[1244h], SUB067[0E1Dh].
; Calls: SUB031.
063A SUB030:
063A 97           sub  a      
063B CB 7C        bit  7,h    
063D 28 06        jr   z,SUB031 	; 0645h
063F B4           or   h      
0640 EB           ex   de,hl  
0641 ED 62        sbc  hl,hl  
0643 ED 52        sbc  hl,de  


; Subroutine: Size=8, CC=1.
; Called by: SUB091[1253h], SUB030[063Dh], SUB030[0643h].
; Calls: SUB032.
0645 SUB031:
0645 08           ex   af,af' 
0646 7C           ld   a,h    
0647 65           ld   h,l    
0648 2E 00        ld   l,00h  	; 0
064A 16 90        ld   d,90h  	; 144, -112
064C A7           and  a      


; Subroutine: Size=30, CC=6.
; Called by: SUB132[1F8Dh], SUB044[07A0h], SUB031[064Ch].
; Calls: SUB033, SUB075.
064D SUB032:
064D 5F           ld   e,a    
064E 38 08        jr   c,.sub032_l1 	; 0658h
0650 B4           or   h      
0651 B5           or   l      
0652 20 04        jr   nz,.sub032_l1 	; 0658h
0654 54           ld   d,h    
0655 5C           ld   e,h    
0656 18 19        jr   SUB033 	; 0671h
0658 .sub032_l1:
0658 CD 99 0E     call SUB075 	; 0E99h
065B 18 06        jr   .sub032_l2 	; 0663h


065D 21           defb 21h    	; 33, '!'
065E 28           defb 28h    	; 40, '('
065F 06           defb 06h    	; 6
0660 C3           defb C3h    	; 195,  -61
0661 08           defb 08h    	; 8
0662 01           defb 01h    	; 1


0663 .sub032_l2:
0663 30 07        jr   nc,.sub032_l3 	; 066Ch
0665 2C           inc  l      
0666 20 04        jr   nz,.sub032_l3 	; 066Ch
0668 24           inc  h      
0669 20 01        jr   nz,.sub032_l3 	; 066Ch
066B 1C           inc  e      
066C .sub032_l3:
066C 08           ex   af,af' 
066D F6 7F        or   7Fh    	; 127
066F A3           and  e      
0670 5F           ld   e,a    


; Subroutine: Size=4, CC=1.
; Called by: SUB098[13F2h], SUB032[0656h], SUB051[093Ch], SUB036[06A5h].
; Calls: SUB034.
0671 SUB033:
0671 ED 53 1E 40  ld   (VAR_P),de 	; 401Eh


; Subroutine: Size=4, CC=1.
; Called by: SUB089[11E3h], SUB091[1237h], SUB033[0671h].
; Calls: -
0675 SUB034:
0675 22 20 40     ld   (DATA03),hl 	; 4020h
0678 C9           ret         


0679 E1           defb E1h    	; 225,  -31
067A ED           defb EDh    	; 237,  -19
067B 4D           defb 4Dh    	; 77, 'M'


; Subroutine: Size=34, CC=5.
; Called by: LOAD_1_BYTE[0618h], LOAD_HDR[062Fh].
; Calls: -
067C SUB035:
067C D9           exx         
067D D3 FF        out  (00FFh),a 	; 255
067F 5F           ld   e,a    
0680 21 83 E8     ld   hl,E883h 	; 59523,  -6013
0683 01 00 50     ld   bc,5000h 	; 20480
0686 .sub035_loop1:
0686 56           ld   d,(hl) 
0687 .sub035_loop2:
0687 0C           inc  c      
0688 7E           ld   a,(hl) 
0689 AA           xor  d      
068A 1F           rra         
068B 30 FA        jr   nc,.sub035_loop2 	; 0687h
068D CB 20        sla  b      
068F 30 F5        jr   nc,.sub035_loop1 	; 0686h
0691 28 05        jr   z,.sub035_l 	; 0698h
0693 79           ld   a,c    
0694 FE 6F        cp   6Fh    	; 111, 'o'
0696 38 EE        jr   c,.sub035_loop1 	; 0686h
0698 .sub035_l:
0698 7B           ld   a,e    
0699 D9           exx         
069A 8F           adc  a,a    
069B D3 7F        out  (007Fh),a 	; 127
069D C9           ret         


; Subroutine: Size=10, CC=1.
; Called by: SUB075[0E9Dh], SUB125[1C1Fh].
; Calls: SUB033.
069E SUB036:
069E F1           pop  af     
069F 16 00        ld   d,00h  	; 0
06A1 1E 00        ld   e,00h  	; 0
06A3 63           ld   h,e    
06A4 6B           ld   l,e    
06A5 .sub036_loop:
06A5 C3 71 06     jp   SUB033 	; 0671h


06A8 00           defb 00h    	; 0
06A9 C3           defb C3h    	; 195,  -61
06AA 13           defb 13h    	; 19
06AB 1F           defb 1Fh    	; 31


; Subroutine: Size=29, CC=4.
; Called by: SAVE[07A3h].
; Calls: CAS_SAVE_LOAD_JMP, CHECK_FOR_60h.
06AC SAVE_HDR:
06AC D9           exx         
06AD 21 C9 06     ld   hl,06C9h 	; 1737
06B0 22 0C 40     ld   (VECT_RST_1),hl 	; 400Ch
06B3 97           sub  a      
06B4 47           ld   b,a    
06B5 .save_hdr_loop1:
06B5 CF           rst  08h    
06B6 10 FD        djnz .save_hdr_loop1 	; 06B5h
06B8 3E A5        ld   a,A5h  	; 165,  -91
06BA D9           exx         
06BB .save_hdr_loop2:
06BB CF           rst  08h    
06BC E7           rst  20h    
06BD 28 07        jr   z,.save_hdr_l 	; 06C6h
06BF FE 22        cp   22h    	; 34, '"'
06C1 28 03        jr   z,.save_hdr_l 	; 06C6h
06C3 A7           and  a      
06C4 20 F5        jr   nz,.save_hdr_loop2 	; 06BBh
06C6 .save_hdr_l:
06C6 97           sub  a      
06C7 CF           rst  08h    
06C8 C9           ret         


; Subroutine: Size=31, CC=4.
; Called by: -
; Calls: -
06C9 SAVE_1_BYTE:
06C9 C5           push bc     
06CA F5           push af     
06CB 37           scf         
06CC 8F           adc  a,a    
06CD D3 FF        out  (00FFh),a 	; 255
06CF .save_1_byte_loop1:
06CF 21 01 E8     ld   hl,E801h 	; 59393,  -6143
06D2 30 02        jr   nc,.save_1_byte_loop2 	; 06D6h
06D4 2E 11        ld   l,11h  	; 17
06D6 .save_1_byte_loop2:
06D6 46           ld   b,(hl) 
06D7 06 29        ld   b,29h  	; 41, ')'
06D9 .save_1_byte_loop3:
06D9 10 FE        djnz .save_1_byte_loop3 	; 06D9h
06DB CB 25        sla  l      
06DD 20 F7        jr   nz,.save_1_byte_loop2 	; 06D6h
06DF 87           add  a,a    
06E0 20 ED        jr   nz,.save_1_byte_loop1 	; 06CFh
06E2 D3 7F        out  (007Fh),a 	; 127
06E4 F1           pop  af     
06E5 C1           pop  bc     
06E6 E1           pop  hl     
06E7 C9           ret         


; Subroutine: Size=14, CC=2.
; Called by: READ_ONE_LINE[05F9h].
; Calls: -
06E8 SUB037:
06E8 3E 3F        ld   a,3Fh  	; 63, '?'
06EA .sub037_loop:
06EA ED A0        ldi         
06EC 03           inc  bc     
06ED 09           add  hl,bc  
06EE 3D           dec  a      
06EF 20 F9        jr   nz,.sub037_loop 	; 06EAh
06F1 3E 60        ld   a,60h  	; 96, '`'
06F3 12           ld   (de),a 
06F4 5F           ld   e,a    
06F5 C9           ret         


; Subroutine: Size=14, CC=1.
; Called by: SUB028[05E0h], READ_ONE_LINE[05C6h].
; Calls: WAIT_FOR_SYNC.
06F6 SUB038:
06F6 CD F6 00     call WAIT_FOR_SYNC 	; 00F6h


06F9 06           defb 06h    	; 6


; Subroutine: Size=10, CC=1.
; Called by: SUB040[0704h].
; Calls: -
06FA SUB039:
06FA DD 2A 14 40  ld   ix,(ADDR_CURSOR_POS) 	; 4014h


06FE FD 4E 0A     ld   c,(iy+10) 
0701 06 00        ld   b,00h  	; 0
0703 C9           ret         


; Subroutine: Size=5, CC=1.
; Called by: LOAD_HDR[0637h].
; Calls: SUB039, LOAD_CONT_CHECK_PRGEND.
0704 SUB040:
0704 CD FA 06     call SUB039 	; 06FAh
0707 18 25        jr   LOAD_CONT_CHECK_PRGEND 	; 072Eh


0709 00           defb 00h    	; 0
070A 00           defb 00h    	; 0


; Subroutine: Size=3, CC=1.
; Called by: SUB051[08BAh].
; Calls: SUB042.
070B SUB041:
070B 11 80 80     ld   de,8080h 	; 32896, -32640


; Subroutine: Size=19, CC=3.
; Called by: SUB050[0824h], SUB041[070Bh].
; Calls: SUB120.
070E SUB042:
070E 21 00 00     ld   hl,0000h 	; 0
0711 18 08        jr   .sub042_l 	; 071Bh


0713 3A           defb 3Ah    	; 58, ':'
0714 1E           defb 1Eh    	; 30
0715 40           defb 40h    	; 64, '@'
0716 EE           defb EEh    	; 238,  -18
0717 80           defb 80h    	; 128, -128
0718 32           defb 32h    	; 50, '2'
0719 1E           defb 1Eh    	; 30
071A 40           defb 40h    	; 64, '@'


071B .sub042_l:
071B 3A 1F 40     ld   a,(DATA02) 	; 401Fh
071E A7           and  a      
071F 28 84        jr   z,.sub036_loop 	; 06A5h
0721 14           inc  d      
0722 15           dec  d      
0723 C2 EC 18     jp   nz,SUB120 	; 18ECh


; Subroutine: Size=8, CC=1.
; Called by: CALL[1967h], SUB096[12E3h], SUB115[174Bh], SUB136[1FD1h], SUB093[12ADh], SUB025[04E1h], SUB120[1906h].
; Calls: -
0726 SUB043:
0726 2A 20 40     ld   hl,(DATA03) 	; 4020h
0729 ED 5B 1E 40  ld   de,(VAR_P) 	; 401Eh
072D C9           ret         


; Subroutine: Size=32, CC=4.
; Called by: SUB040[0707h].
; Calls: CAS_SAVE_LOAD_JMP, CHECK_FOR_60h.
072E LOAD_CONT_CHECK_PRGEND:
072E 2E 00        ld   l,00h  	; 0
0730 .load_cont_check_prgend_loop:
0730 CF           rst  08h    
0731 28 18        jr   z,.load_cont_check_prgend_l3 	; 074Bh
0733 D3 FF        out  (00FFh),a 	; 255
0735 DD 77 00     ld   (ix+0),a 
0738 D3 7F        out  (007Fh),a 	; 127
073A DD 09        add  ix,bc  
073C 67           ld   h,a    
073D E7           rst  20h    
073E 28 04        jr   z,.load_cont_check_prgend_l1 	; 0744h
0740 FE 22        cp   22h    	; 34, '"'
0742 20 02        jr   nz,.load_cont_check_prgend_l2 	; 0746h
0744 .load_cont_check_prgend_l1:
0744 1B           dec  de     
0745 7C           ld   a,h    
0746 .load_cont_check_prgend_l2:
0746 94           sub  h      
0747 B5           or   l      
0748 6F           ld   l,a    
0749 18 E5        jr   .load_cont_check_prgend_loop 	; 0730h
074B .load_cont_check_prgend_l3:
074B D1           pop  de     
074C 7D           ld   a,l    
074D C9           ret         


; Subroutine: Size=3, CC=1.
; Called by: LOAD_ONE_REC[075Eh].
; Calls: LOAD_ONE_REC.
074E LOAD_FIRST_VALID_REC:
074E 11 04 00     ld   de,0004h 	; 4


; Subroutine: Size=21, CC=5.
; Called by: LOAD[1EF3h], LOAD_FIRST_VALID_REC[074Eh].
; Calls: CAS_SAVE_LOAD_JMP, SUB008, LOAD_HDR, LOAD_FIRST_VALID_REC, SUB049.
0751 LOAD_ONE_REC:
0751 CD 1F 06     call LOAD_HDR 	; 061Fh
0754 A7           and  a      
0755 20 FA        jr   nz,LOAD_ONE_REC 	; 0751h
0757 CD D2 07     call SUB049 	; 07D2h
075A BA           cp   d      
075B 20 03        jr   nz,.load_one_rec_l 	; 0760h
075D CF           rst  08h    
075E 20 EE        jr   nz,LOAD_FIRST_VALID_REC 	; 074Eh
0760 .load_one_rec_l:
0760 3E D8        ld   a,D8h  	; 216,  -40
0762 C4 67 01     call nz,SUB008 	; 0167h
0765 C9           ret         


0766 00           defb 00h    	; 0
0767 00           defb 00h    	; 0
0768 00           defb 00h    	; 0
0769 00           defb 00h    	; 0


; Subroutine: Size=36, CC=3.
; Called by: SUB103[152Bh].
; Calls: SUB032.
076A SUB044:
076A 08           ex   af,af' 
076B 44           ld   b,h    
076C 4D           ld   c,l    
076D 2A 20 40     ld   hl,(DATA03) 	; 4020h
0770 A7           and  a      
0771 ED 42        sbc  hl,bc  
0773 3A 1E 40     ld   a,(VAR_P) 	; 401Eh
0776 9B           sbc  a,e    
0777 30 27        jr   nc,.sub044_l 	; 07A0h
0779 08           ex   af,af' 
077A 2F           cpl         
077B 08           ex   af,af' 
077C 2F           cpl         
077D 44           ld   b,h    
077E 4D           ld   c,l    
077F A7           and  a      
0780 ED 62        sbc  hl,hl  
0782 ED 42        sbc  hl,bc  
0784 37           scf         
0785 3F           ccf         
0786 20 18        jr   nz,.sub044_l 	; 07A0h
0788 3C           inc  a      
0789 18 15        jr   .sub044_l 	; 07A0h


; Subroutine: Size=34, CC=3.
; Called by: SUB103[1528h].
; Calls: LBL04.
078B SUB045:
078B 08           ex   af,af' 
078C ED 4B 20 40  ld   bc,(DATA03) 	; 4020h
0790 09           add  hl,bc  
0791 3A 1E 40     ld   a,(VAR_P) 	; 401Eh
0794 8B           adc  a,e    
0795 30 09        jr   nc,.sub044_l 	; 07A0h
0797 14           inc  d      
0798 CA 54 15     jp   z,LBL04 	; 1554h
079B 1F           rra         
079C CB 1C        rr   h      
079E CB 1D        rr   l      


07A0 .sub044_l:
07A0 C3 4D 06     jp   SUB032 	; 064Dh


; Subroutine: Size=10, CC=1.
; Called by: MONITOR_S[03DFh].
; Calls: CAS_SAVE_LOAD_JMP, SAVE_HDR, SUB048.
07A3 SAVE:
07A3 CD AC 06     call SAVE_HDR 	; 06ACh
07A6 CD CE 07     call SUB048 	; 07CEh
07A9 97           sub  a      
07AA CF           rst  08h    
07AB CF           rst  08h    
07AC C9           ret         


07AD CD           defb CDh    	; 205,  -51
07AE CD           defb CDh    	; 205,  -51
07AF 10           defb 10h    	; 16
07B0 D5           defb D5h    	; 213,  -43
07B1 ED           defb EDh    	; 237,  -19
07B2 5B           defb 5Bh    	; 91, '['
07B3 20           defb 20h    	; 32, ' '
07B4 40           defb 40h    	; 64, '@'
07B5 CD           defb CDh    	; 205,  -51
07B6 C4           defb C4h    	; 196,  -60
07B7 01           defb 01h    	; 1
07B8 CD           defb CDh    	; 205,  -51
07B9 D8           defb D8h    	; 216,  -40
07BA 16           defb 16h    	; 22
07BB D1           defb D1h    	; 209,  -47
07BC C9           defb C9h    	; 201,  -55


; Subroutine: Size=11, CC=1.
; Called by: SUB050[080Eh], SUB050[0862h], SUB051[08A1h].
; Calls: SUB132.
07BD SUB046:
07BD 21 00 00     ld   hl,0000h 	; 0
07C0 11 20 84     ld   de,8420h 	; 33824, -31712
07C3 18 06        jr   .sub046_l 	; 07CBh


; Subroutine: Size=9, CC=1.
; Called by: SUB050[086Dh], SUB051[08B5h].
; Calls: -
07C5 SUB047:
07C5 21 CD CC     ld   hl,CCCDh 	; 52429, -13107
07C8 11 4C 7D     ld   de,7D4Ch 	; 32076


07CB .sub046_l:
07CB C3 6E 1F     jp   SUB132 	; 1F6Eh


; Subroutine: Size=4, CC=1.
; Called by: SAVE[07A6h].
; Calls: SUB049.
07CE SUB048:
07CE A7           and  a      
07CF ED 42        sbc  hl,bc  
07D1 79           ld   a,c    


; Subroutine: Size=27, CC=2.
; Called by: LOAD_ONE_REC[0757h], SUB048[07D1h].
; Calls: CAS_SAVE_LOAD_JMP.
07D2 SUB049:
07D2 CF           rst  08h    
07D3 4F           ld   c,a    
07D4 78           ld   a,b    
07D5 CF           rst  08h    
07D6 47           ld   b,a    
07D7 7D           ld   a,l    
07D8 CF           rst  08h    
07D9 6F           ld   l,a    
07DA 7C           ld   a,h    
07DB CF           rst  08h    
07DC 67           ld   h,a    
07DD 16 00        ld   d,00h  	; 0
07DF .sub049_loop:
07DF 0A           ld   a,(bc) 
07E0 CF           rst  08h    
07E1 02           ld   (bc),a 
07E2 82           add  a,d    
07E3 57           ld   d,a    
07E4 03           inc  bc     
07E5 2B           dec  hl     
07E6 7C           ld   a,h    
07E7 B5           or   l      
07E8 20 F5        jr   nz,.sub049_loop 	; 07DFh
07EA 7A           ld   a,d    
07EB CF           rst  08h    
07EC C9           ret         


; Subroutine: Size=145, CC=17.
; Called by: SUB089[11F0h].
; Calls: CHECK_FOR_60h, SUB042, SUB046, SUB047, SUB053, LBL04.
07ED SUB050:
07ED CD 5E 0B     call SUB053 	; 0B5Eh
07F0 01 00 80     ld   bc,8000h 	; 32768, -32768
07F3 .sub050_loop1:
07F3 E7           rst  20h    
07F4 FE 2E        cp   2Eh    	; 46, '.'
07F6 20 03        jr   nz,.sub050_l01 	; 07FBh
07F8 CB B8        res  7,b    
07FA E7           rst  20h    
07FB .sub050_l01:
07FB D6 30        sub  30h    	; 48, '0'
07FD 38 50        jr   c,.sub050_l07 	; 084Fh
07FF FE 15        cp   15h    	; 21
0801 28 27        jr   z,.sub050_loop3 	; 082Ah
0803 FE 0A        cp   0Ah    	; 10
0805 30 48        jr   nc,.sub050_l07 	; 084Fh
0807 F5           push af     
0808 CB 78        bit  7,b    
080A 20 01        jr   nz,.sub050_l02 	; 080Dh
080C 04           inc  b      
080D .sub050_l02:
080D D9           exx         
080E CD BD 07     call SUB046 	; 07BDh
0811 F1           pop  af     
0812 A7           and  a      
0813 16 00        ld   d,00h  	; 0
0815 28 0C        jr   z,.sub050_l04 	; 0823h
0817 16 88        ld   d,88h  	; 136, -120
0819 .sub050_loop2:
0819 CB 7F        bit  7,a    
081B 20 04        jr   nz,.sub050_l03 	; 0821h
081D 17           rla         
081E 15           dec  d      
081F 18 F8        jr   .sub050_loop2 	; 0819h
0821 .sub050_l03:
0821 CB BF        res  7,a    
0823 .sub050_l04:
0823 5F           ld   e,a    
0824 CD 0E 07     call SUB042 	; 070Eh
0827 D9           exx         
0828 18 C9        jr   .sub050_loop1 	; 07F3h
082A .sub050_loop3:
082A E7           rst  20h    
082B FE 81        cp   81h    	; 129, -127
082D 28 FB        jr   z,.sub050_loop3 	; 082Ah
082F FE 82        cp   82h    	; 130, -126
0831 F5           push af     
0832 20 01        jr   nz,.sub050_l05 	; 0835h
0834 .sub050_loop4:
0834 E7           rst  20h    
0835 .sub050_l05:
0835 D6 30        sub  30h    	; 48, '0'
0837 38 15        jr   c,.sub050_l06 	; 084Eh
0839 FE 0A        cp   0Ah    	; 10
083B 30 11        jr   nc,.sub050_l06 	; 084Eh
083D 08           ex   af,af' 
083E 79           ld   a,c    
083F FE 04        cp   04h    	; 4
0841 D2 54 15     jp   nc,LBL04 	; 1554h
0844 87           add  a,a    
0845 17           rla         
0846 81           add  a,c    
0847 17           rla         
0848 4F           ld   c,a    
0849 08           ex   af,af' 
084A 81           add  a,c    
084B 4F           ld   c,a    
084C 18 E6        jr   .sub050_loop4 	; 0834h
084E .sub050_l06:
084E F1           pop  af     
084F .sub050_l07:
084F 79           ld   a,c    
0850 20 02        jr   nz,.sub050_l08 	; 0854h
0852 ED 44        neg         
0854 .sub050_l08:
0854 CB 78        bit  7,b    
0856 28 02        jr   z,.sub050_l09 	; 085Ah
0858 06 00        ld   b,00h  	; 0
085A .sub050_l09:
085A 90           sub  b      
085B 1B           dec  de     
085C C8           ret  z      
085D FA 69 08     jp   m,.sub050_l10 	; 0869h
0860 47           ld   b,a    
0861 .sub050_loop5:
0861 D9           exx         
0862 CD BD 07     call SUB046 	; 07BDh
0865 D9           exx         
0866 10 F9        djnz .sub050_loop5 	; 0861h
0868 C9           ret         
0869 .sub050_l10:
0869 ED 44        neg         
086B 47           ld   b,a    
086C .sub050_loop6:
086C D9           exx         
086D CD C5 07     call SUB047 	; 07C5h
0870 D9           exx         
0871 10 F9        djnz .sub050_loop6 	; 086Ch
0873 C9           ret         


; Subroutine: Size=203, CC=14.
; Called by: SUB025[04DEh], SUB067[0E20h].
; Calls: SUB033, SUB041, SUB046, SUB047, SUB123, SUB129, SUB130.
0874 SUB051:
0874 2A 2C 40     ld   hl,(VAR_BASIC_STRING) 	; 402Ch
0877 FD CB 1E 7E  bit  7,(iy+30) 
087B 3E 20        ld   a,20h  	; 32, ' '
087D 28 02        jr   z,.sub051_l1 	; 0881h
087F 3E 2D        ld   a,2Dh  	; 45, '-'
0881 .sub051_l1:
0881 77           ld   (hl),a 
0882 FD CB 1E FE  set  7,(iy+30) 
0886 3A 1F 40     ld   a,(DATA02) 	; 401Fh
0889 A7           and  a      
088A 20 06        jr   nz,.sub051_l2 	; 0892h
088C 23           inc  hl     
088D 36 30        ld   (hl),30h 	; 48, '0'
088F 23           inc  hl     
0890 18 6D        jr   .sub051_l4 	; 08FFh
0892 .sub051_l2:
0892 FD 36 2A 05  ld   (iy+42),05h 	; 5
0896 11 C3 91     ld   de,91C3h 	; 37315, -28221
0899 21 F9 4F     ld   hl,4FF9h 	; 20473
089C CD F6 19     call SUB123 	; 19F6h
089F 30 08        jr   nc,.sub051_loop1 	; 08A9h
08A1 CD BD 07     call SUB046 	; 07BDh
08A4 FD 35        dec  (iy)   
08A6 2A 18 ED     ld   hl,(DATA24) 	; ED18h
08A9 .sub051_loop1:
08A9 FD 34        inc  (iy)   
08AB 2A 11 F4     ld   hl,(DATA25) 	; F411h
08AE 94           sub  h      
08AF 21 F8 23     ld   hl,23F8h 	; 9208
08B2 CD F6 19     call SUB123 	; 19F6h
08B5 D4 C5 07     call nc,SUB047 	; 07C5h
08B8 30 EF        jr   nc,.sub051_loop1 	; 08A9h
08BA CD 0B 07     call SUB041 	; 070Bh
08BD 3A 1F 40     ld   a,(DATA02) 	; 401Fh
08C0 D6 80        sub  80h    	; 128, -128
08C2 D9           exx         
08C3 47           ld   b,a    
08C4 ED 62        sbc  hl,hl  
08C6 5C           ld   e,h    
08C7 .sub051_loop2:
08C7 D9           exx         
08C8 29           add  hl,hl  
08C9 CB 13        rl   e      
08CB D9           exx         
08CC 7D           ld   a,l    
08CD 8D           adc  a,l    
08CE 27           daa         
08CF 6F           ld   l,a    
08D0 7C           ld   a,h    
08D1 8C           adc  a,h    
08D2 27           daa         
08D3 67           ld   h,a    
08D4 7B           ld   a,e    
08D5 8B           adc  a,e    
08D6 27           daa         
08D7 5F           ld   e,a    
08D8 10 ED        djnz .sub051_loop2 	; 08C7h
08DA 3A 2A 40     ld   a,(DATA06) 	; 402Ah
08DD FE 07        cp   07h    	; 7
08DF 30 04        jr   nc,.sub051_l3 	; 08E5h
08E1 3D           dec  a      
08E2 47           ld   b,a    
08E3 3E 01        ld   a,01h  	; 1
08E5 .sub051_l3:
08E5 04           inc  b      
08E6 04           inc  b      
08E7 3D           dec  a      
08E8 A7           and  a      
08E9 00           nop         
08EA 00           nop         
08EB 00           nop         
08EC 08           ex   af,af' 
08ED 7B           ld   a,e    
08EE EB           ex   de,hl  
08EF 2A 2C 40     ld   hl,(VAR_BASIC_STRING) 	; 402Ch
08F2 23           inc  hl     
08F3 CD FD 1E     call SUB129 	; 1EFDh
08F6 7A           ld   a,d    
08F7 CD FD 1E     call SUB129 	; 1EFDh
08FA 7B           ld   a,e    
08FB CD FD 1E     call SUB129 	; 1EFDh
08FE 05           dec  b      
08FF .sub051_l4:
08FF 28 2E        jr   z,.sub051_l7 	; 092Fh
0901 .sub051_loop3:
0901 2B           dec  hl     
0902 7E           ld   a,(hl) 
0903 FE 30        cp   30h    	; 48, '0'
0905 28 FA        jr   z,.sub051_loop3 	; 0901h
0907 FE 2E        cp   2Eh    	; 46, '.'
0909 28 01        jr   z,.sub051_l5 	; 090Ch
090B 23           inc  hl     
090C .sub051_l5:
090C 08           ex   af,af' 
090D 28 20        jr   z,.sub051_l7 	; 092Fh
090F 36 45        ld   (hl),45h 	; 69, 'E'
0911 23           inc  hl     
0912 06 2B        ld   b,2Bh  	; 43, '+'
0914 F2 1B 09     jp   p,.sub051_l6 	; 091Bh
0917 ED 44        neg         
0919 06 2D        ld   b,2Dh  	; 45, '-'
091B .sub051_l6:
091B 70           ld   (hl),b 
091C 23           inc  hl     
091D 4F           ld   c,a    
091E 97           sub  a      
091F 06 08        ld   b,08h  	; 8
0921 .sub051_loop4:
0921 CB 11        rl   c      
0923 8F           adc  a,a    
0924 27           daa         
0925 10 FA        djnz .sub051_loop4 	; 0921h
0927 FE 0A        cp   0Ah    	; 10
0929 D4 FD 1E     call nc,SUB129 	; 1EFDh
092C DC 06 1F     call c,SUB130 	; 1F06h
092F .sub051_l7:
092F 44           ld   b,h    
0930 4D           ld   c,l    
0931 ED 5B 2C 40  ld   de,(VAR_BASIC_STRING) 	; 402Ch
0935 FD CB 32 F6  set  6,(iy+50) 
0939 ED 52        sbc  hl,de  
093B EB           ex   de,hl  
093C C3 71 06     jp   SUB033 	; 0671h


093F CB           defb CBh    	; 203,  -53
0940 7B           defb 7Bh    	; 123, '{'
0941 08           defb 08h    	; 8
0942 7A           defb 7Ah    	; 122, 'z'
0943 D6           defb D6h    	; 214,  -42
0944 81           defb 81h    	; 129, -127
0945 30           defb 30h    	; 48, '0'
0946 08           defb 08h    	; 8
0947 08           defb 08h    	; 8
0948 C8           defb C8h    	; 200,  -56
0949 11           defb 11h    	; 17
094A 00           defb 00h    	; 0
094B 81           defb 81h    	; 129, -127
094C C3           defb C3h    	; 195,  -61
094D 0E           defb 0Eh    	; 14
094E 07           defb 07h    	; 7
094F 3C           defb 3Ch    	; 60, '<'
0950 FE           defb FEh    	; 254,   -2
0951 18           defb 18h    	; 24
0952 38           defb 38h    	; 56, '8'
0953 06           defb 06h    	; 6
0954 11           defb 11h    	; 17
0955 00           defb 00h    	; 0
0956 00           defb 00h    	; 0
0957 C3           defb C3h    	; 195,  -61
0958 9F           defb 9Fh    	; 159,  -97
0959 06           defb 06h    	; 6
095A 47           defb 47h    	; 71, 'G'
095B 29           defb 29h    	; 41, ')'
095C CB           defb CBh    	; 203,  -53
095D 13           defb 13h    	; 19
095E 10           defb 10h    	; 16
095F FB           defb FBh    	; 251,   -5
0960 08           defb 08h    	; 8
0961 7B           defb 7Bh    	; 123, '{'
0962 28           defb 28h    	; 40, '('
0963 0A           defb 0Ah    	; 10
0964 2F           defb 2Fh    	; 47, '/'
0965 EB           defb EBh    	; 235,  -21
0966 A7           defb A7h    	; 167,  -89
0967 ED           defb EDh    	; 237,  -19
0968 62           defb 62h    	; 98, 'b'
0969 ED           defb EDh    	; 237,  -19
096A 52           defb 52h    	; 82, 'R'
096B 20           defb 20h    	; 32, ' '
096C 01           defb 01h    	; 1
096D 3C           defb 3Ch    	; 60, '<'
096E 16           defb 16h    	; 22
096F 80           defb 80h    	; 128, -128
0970 A7           defb A7h    	; 167,  -89
0971 C3           defb C3h    	; 195,  -61
0972 4D           defb 4Dh    	; 77, 'M'
0973 06           defb 06h    	; 6
0974 D5           defb D5h    	; 213,  -43
0975 E5           defb E5h    	; 229,  -27
0976 CD           defb CDh    	; 205,  -51
0977 3F           defb 3Fh    	; 63, '?'
0978 09           defb 09h    	; 9
0979 E1           defb E1h    	; 225,  -31
097A D1           defb D1h    	; 209,  -47
097B C3           defb C3h    	; 195,  -61
097C 13           defb 13h    	; 19
097D 07           defb 07h    	; 7
097E CD           defb CDh    	; 205,  -51
097F 75           defb 75h    	; 117, 'u'
0980 0F           defb 0Fh    	; 15
0981 FD           defb FDh    	; 253,   -3
0982 CB           defb CBh    	; 203,  -53
0983 1E           defb 1Eh    	; 30
0984 7E           defb 7Eh    	; 126, '~'
0985 3E           defb 3Eh    	; 62, '>'
0986 0C           defb 0Ch    	; 12
0987 CA           defb CAh    	; 202,  -54
0988 40           defb 40h    	; 64, '@'
0989 06           defb 06h    	; 6
098A EF           defb EFh    	; 239,  -17
098B 3C           defb 3Ch    	; 60, '<'
098C 21           defb 21h    	; 33, '!'
098D 4B           defb 4Bh    	; 75, 'K'
098E 0A           defb 0Ah    	; 10
098F CD           defb CDh    	; 205,  -51
0990 92           defb 92h    	; 146, -110
0991 01           defb 01h    	; 1
0992 18           defb 18h    	; 24
0993 FE           defb FEh    	; 254,   -2
0994 CB           defb CBh    	; 203,  -53
0995 BB           defb BBh    	; 187,  -69
0996 18           defb 18h    	; 24
0997 0F           defb 0Fh    	; 15
0998 7A           defb 7Ah    	; 122, 'z'
0999 A7           defb A7h    	; 167,  -89
099A 28           defb 28h    	; 40, '('
099B 0B           defb 0Bh    	; 11
099C ED           defb EDh    	; 237,  -19
099D 62           defb 62h    	; 98, 'b'
099E CB           defb CBh    	; 203,  -53
099F 7B           defb 7Bh    	; 123, '{'
09A0 11           defb 11h    	; 17
09A1 00           defb 00h    	; 0
09A2 81           defb 81h    	; 129, -127
09A3 28           defb 28h    	; 40, '('
09A4 02           defb 02h    	; 2
09A5 CB           defb CBh    	; 203,  -53
09A6 FB           defb FBh    	; 251,   -5
09A7 C3           defb C3h    	; 195,  -61
09A8 71           defb 71h    	; 113, 'q'
09A9 06           defb 06h    	; 6
09AA CB           defb CBh    	; 203,  -53
09AB 7B           defb 7Bh    	; 123, '{'
09AC 20           defb 20h    	; 32, ' '
09AD 23           defb 23h    	; 35, '#'
09AE 7A           defb 7Ah    	; 122, 'z'
09AF A7           defb A7h    	; 167,  -89
09B0 22           defb 22h    	; 34, '"'
09B1 20           defb 20h    	; 32, ' '
09B2 40           defb 40h    	; 64, '@'
09B3 ED           defb EDh    	; 237,  -19
09B4 53           defb 53h    	; 83, 'S'
09B5 1E           defb 1Eh    	; 30
09B6 40           defb 40h    	; 64, '@'
09B7 2A           defb 2Ah    	; 42, '*'
09B8 3D           defb 3Dh    	; 61, '='
09B9 40           defb 40h    	; 64, '@'
09BA ED           defb EDh    	; 237,  -19
09BB 5B           defb 5Bh    	; 91, '['
09BC 3B           defb 3Bh    	; 59, ';'
09BD 40           defb 40h    	; 64, '@'
09BE CA           defb CAh    	; 202,  -54
09BF 6D           defb 6Dh    	; 109, 'm'
09C0 06           defb 06h    	; 6
09C1 06           defb 06h    	; 6
09C2 08           defb 08h    	; 8
09C3 7B           defb 7Bh    	; 123, '{'
09C4 1F           defb 1Fh    	; 31
09C5 1F           defb 1Fh    	; 31
09C6 1F           defb 1Fh    	; 31
09C7 1F           defb 1Fh    	; 31
09C8 AB           defb ABh    	; 171,  -85
09C9 1F           defb 1Fh    	; 31
09CA ED           defb EDh    	; 237,  -19
09CB 6A           defb 6Ah    	; 106, 'j'
09CC CB           defb CBh    	; 203,  -53
09CD 13           defb 13h    	; 19
09CE 10           defb 10h    	; 16
09CF F3           defb F3h    	; 243,  -13
09D0 97           defb 97h    	; 151, -105
09D1 22           defb 22h    	; 34, '"'
09D2 3D           defb 3Dh    	; 61, '='
09D3 40           defb 40h    	; 64, '@'
09D4 ED           defb EDh    	; 237,  -19
09D5 53           defb 53h    	; 83, 'S'
09D6 3B           defb 3Bh    	; 59, ';'
09D7 40           defb 40h    	; 64, '@'
09D8 C2           defb C2h    	; 194,  -62
09D9 71           defb 71h    	; 113, 'q'
09DA 06           defb 06h    	; 6
09DB 08           defb 08h    	; 8
09DC 3A           defb 3Ah    	; 58, ':'
09DD 1F           defb 1Fh    	; 31
09DE 40           defb 40h    	; 64, '@'
09DF FD           defb FDh    	; 253,   -3
09E0 CB           defb CBh    	; 203,  -53
09E1 1E           defb 1Eh    	; 30
09E2 FE           defb FEh    	; 254,   -2
09E3 C3           defb C3h    	; 195,  -61
09E4 71           defb 71h    	; 113, 'q'
09E5 1F           defb 1Fh    	; 31


; Subroutine: Size=45, CC=4.
; Called by: LBL01[12F1h], CALL[196Ah], SUB096[12E6h], SUB115[174Eh], SUB136[1FD4h].
; Calls: LBL04.
09E6 SUB052:
09E6 3E 90        ld   a,90h  	; 144, -112
09E8 92           sub  d      
09E9 DA 54 15     jp   c,LBL04 	; 1554h
09EC FE 10        cp   10h    	; 16
09EE 38 03        jr   c,.sub052_l 	; 09F3h
09F0 ED 62        sbc  hl,hl  
09F2 C9           ret         
09F3 .sub052_l:
09F3 47           ld   b,a    
09F4 04           inc  b      
09F5 6C           ld   l,h    
09F6 63           ld   h,e    
09F7 29           add  hl,hl  
09F8 37           scf         
09F9 .sub052_loop:
09F9 CB 1C        rr   h      
09FB CB 1D        rr   l      
09FD A7           and  a      
09FE 10 F9        djnz .sub052_loop 	; 09F9h
0A00 CB 7B        bit  7,e    
0A02 C8           ret  z      
0A03 EB           ex   de,hl  
0A04 ED 62        sbc  hl,hl  
0A06 ED 52        sbc  hl,de  
0A08 C9           ret         


0A09 00           defb 00h    	; 0
0A0A 00           defb 00h    	; 0
0A0B 00           defb 00h    	; 0
0A0C CD           defb CDh    	; 205,  -51
0A0D E6           defb E6h    	; 230,  -26
0A0E 09           defb 09h    	; 9
0A0F E5           defb E5h    	; 229,  -27
0A10 CD           defb CDh    	; 205,  -51
0A11 26           defb 26h    	; 38, '&'
0A12 07           defb 07h    	; 7
0A13 CD           defb CDh    	; 205,  -51
0A14 E6           defb E6h    	; 230,  -26
0A15 09           defb 09h    	; 9
0A16 D1           defb D1h    	; 209,  -47
0A17 C9           defb C9h    	; 201,  -55
0A18 CD           defb CDh    	; 205,  -51
0A19 0C           defb 0Ch    	; 12
0A1A 0A           defb 0Ah    	; 10
0A1B 7D           defb 7Dh    	; 125, '}'
0A1C B3           defb B3h    	; 179,  -77
0A1D 6F           defb 6Fh    	; 111, 'o'
0A1E 7C           defb 7Ch    	; 124, '|'
0A1F B2           defb B2h    	; 178,  -78
0A20 67           defb 67h    	; 103, 'g'
0A21 18           defb 18h    	; 24
0A22 14           defb 14h    	; 20
0A23 CD           defb CDh    	; 205,  -51
0A24 0C           defb 0Ch    	; 12
0A25 0A           defb 0Ah    	; 10
0A26 7D           defb 7Dh    	; 125, '}'
0A27 A3           defb A3h    	; 163,  -93
0A28 6F           defb 6Fh    	; 111, 'o'
0A29 7C           defb 7Ch    	; 124, '|'
0A2A A2           defb A2h    	; 162,  -94
0A2B 67           defb 67h    	; 103, 'g'
0A2C 18           defb 18h    	; 24
0A2D 0A           defb 0Ah    	; 10
0A2E CD           defb CDh    	; 205,  -51
0A2F E6           defb E6h    	; 230,  -26
0A30 09           defb 09h    	; 9
0A31 EB           defb EBh    	; 235,  -21
0A32 A7           defb A7h    	; 167,  -89
0A33 21           defb 21h    	; 33, '!'
0A34 FF           defb FFh    	; 255,   -1
0A35 FF           defb FFh    	; 255,   -1
0A36 ED           defb EDh    	; 237,  -19
0A37 52           defb 52h    	; 82, 'R'
0A38 C3           defb C3h    	; 195,  -61
0A39 3A           defb 3Ah    	; 58, ':'
0A3A 06           defb 06h    	; 6
0A3B 01           defb 01h    	; 1
0A3C 3A           defb 3Ah    	; 58, ':'
0A3D 06           defb 06h    	; 6
0A3E C5           defb C5h    	; 197,  -59
0A3F ED           defb EDh    	; 237,  -19
0A40 4B           defb 4Bh    	; 75, 'K'
0A41 00           defb 00h    	; 0
0A42 40           defb 40h    	; 64, '@'
0A43 C5           defb C5h    	; 197,  -59
0A44 C3           defb C3h    	; 195,  -61
0A45 E6           defb E6h    	; 230,  -26
0A46 09           defb 09h    	; 9
0A47 F1           defb F1h    	; 241,  -15
0A48 C3           defb C3h    	; 195,  -61
0A49 1B           defb 1Bh    	; 27
0A4A 07           defb 07h    	; 7
0A4B 0D           defb 0Dh    	; 13
0A4C 4B           defb 4Bh    	; 75, 'K'
0A4D 7B           defb 7Bh    	; 123, '{'
0A4E 73           defb 73h    	; 115, 's'
0A4F 7A           defb 7Ah    	; 122, 'z'
0A50 69           defb 69h    	; 105, 'i'
0A51 74           defb 74h    	; 116, 't'
0A52 65           defb 65h    	; 101, 'e'
0A53 74           defb 74h    	; 116, 't'
0A54 74           defb 74h    	; 116, 't'
0A55 65           defb 65h    	; 101, 'e'
0A56 20           defb 20h    	; 32, ' '
0A57 4C           defb 4Ch    	; 76, 'L'
0A58 75           defb 75h    	; 117, 'u'
0A59 6B           defb 6Bh    	; 107, 'k'
0A5A 7F           defb 7Fh    	; 127
0A5B 63           defb 63h    	; 99, 'c'
0A5C 73           defb 73h    	; 115, 's'
0A5D 20           defb 20h    	; 32, ' '
0A5E 45           defb 45h    	; 69, 'E'
0A5F 6E           defb 6Eh    	; 110, 'n'
0A60 64           defb 64h    	; 100, 'd'
0A61 72           defb 72h    	; 114, 'r'
0A62 65           defb 65h    	; 101, 'e'
0A63 0D           defb 0Dh    	; 13
0A64 0D           defb 0Dh    	; 13
0A65 20           defb 20h    	; 32, ' '
0A66 20           defb 20h    	; 32, ' '
0A67 48           defb 48h    	; 72, 'H'
0A68 6F           defb 6Fh    	; 111, 'o'
0A69 6D           defb 6Dh    	; 109, 'm'
0A6A 65           defb 65h    	; 101, 'e'
0A6B 4C           defb 4Ch    	; 76, 'L'
0A6C 61           defb 61h    	; 97, 'a'
0A6D 62           defb 62h    	; 98, 'b'
0A6E 20           defb 20h    	; 32, ' '
0A6F 47           defb 47h    	; 71, 'G'
0A70 6D           defb 6Dh    	; 109, 'm'
0A71 6B           defb 6Bh    	; 107, 'k'
0A72 2E           defb 2Eh    	; 46, '.'
0A73 20           defb 20h    	; 32, ' '
0A74 31           defb 31h    	; 49, '1'
0A75 39           defb 39h    	; 57, '9'
0A76 38           defb 38h    	; 56, '8'
0A77 B4           defb B4h    	; 180,  -76
0A78 22           defb 22h    	; 34, '"'
0A79 2A           defb 2Ah    	; 42, '*'
0A7A 40           defb 40h    	; 64, '@'
0A7B ED           defb EDh    	; 237,  -19
0A7C 53           defb 53h    	; 83, 'S'
0A7D 28           defb 28h    	; 40, '('
0A7E 40           defb 40h    	; 64, '@'
0A7F CD           defb CDh    	; 205,  -51
0A80 9F           defb 9Fh    	; 159,  -97
0A81 06           defb 06h    	; 6
0A82 C5           defb C5h    	; 197,  -59
0A83 E1           defb E1h    	; 225,  -31
0A84 5E           defb 5Eh    	; 94, '^'
0A85 23           defb 23h    	; 35, '#'
0A86 56           defb 56h    	; 86, 'V'
0A87 23           defb 23h    	; 35, '#'
0A88 4E           defb 4Eh    	; 78, 'N'
0A89 23           defb 23h    	; 35, '#'
0A8A 46           defb 46h    	; 70, 'F'
0A8B 23           defb 23h    	; 35, '#'
0A8C 7E           defb 7Eh    	; 126, '~'
0A8D 3C           defb 3Ch    	; 60, '<'
0A8E C5           defb C5h    	; 197,  -59
0A8F E3           defb E3h    	; 227,  -29
0A90 CA           defb CAh    	; 202,  -54
0A91 47           defb 47h    	; 71, 'G'
0A92 0A           defb 0Ah    	; 10
0A93 C3           defb C3h    	; 195,  -61
0A94 08           defb 08h    	; 8
0A95 0E           defb 0Eh    	; 14
0A96 E5           defb E5h    	; 229,  -27
0A97 D5           defb D5h    	; 213,  -43
0A98 C5           defb C5h    	; 197,  -59
0A99 CD           defb CDh    	; 205,  -51
0A9A 71           defb 71h    	; 113, 'q'
0A9B 06           defb 06h    	; 6
0A9C CD           defb CDh    	; 205,  -51
0A9D CB           defb CBh    	; 203,  -53
0A9E 07           defb 07h    	; 7
0A9F C1           defb C1h    	; 193,  -63
0AA0 CD           defb CDh    	; 205,  -51
0AA1 78           defb 78h    	; 120, 'x'
0AA2 0A           defb 0Ah    	; 10
0AA3 D1           defb D1h    	; 209,  -47
0AA4 E1           defb E1h    	; 225,  -31
0AA5 C3           defb C3h    	; 195,  -61
0AA6 CB           defb CBh    	; 203,  -53
0AA7 07           defb 07h    	; 7
0AA8 D5           defb D5h    	; 213,  -43
0AA9 7A           defb 7Ah    	; 122, 'z'
0AAA A7           defb A7h    	; 167,  -89
0AAB CA           defb CAh    	; 202,  -54
0AAC 9E           defb 9Eh    	; 158,  -98
0AAD 06           defb 06h    	; 6
0AAE FE           defb FEh    	; 254,   -2
0AAF 81           defb 81h    	; 129, -127
0AB0 CD           defb CDh    	; 205,  -51
0AB1 71           defb 71h    	; 113, 'q'
0AB2 06           defb 06h    	; 6
0AB3 38           defb 38h    	; 56, '8'
0AB4 09           defb 09h    	; 9
0AB5 21           defb 21h    	; 33, '!'
0AB6 00           defb 00h    	; 0
0AB7 00           defb 00h    	; 0
0AB8 11           defb 11h    	; 17
0AB9 00           defb 00h    	; 0
0ABA 81           defb 81h    	; 129, -127
0ABB CD           defb CDh    	; 205,  -51
0ABC A9           defb A9h    	; 169,  -87
0ABD 06           defb 06h    	; 6
0ABE 01           defb 01h    	; 1
0ABF D6           defb D6h    	; 214,  -42
0AC0 0A           defb 0Ah    	; 10
0AC1 CD           defb CDh    	; 205,  -51
0AC2 96           defb 96h    	; 150, -106
0AC3 0A           defb 0Ah    	; 10
0AC4 C1           defb C1h    	; 193,  -63
0AC5 05           defb 05h    	; 5
0AC6 F0           defb F0h    	; 240,  -16
0AC7 CB           defb CBh    	; 203,  -53
0AC8 79           defb 79h    	; 121, 'y'
0AC9 11           defb 11h    	; 17
0ACA 49           defb 49h    	; 73, 'I'
0ACB 81           defb 81h    	; 129, -127
0ACC 21           defb 21h    	; 33, '!'
0ACD DB           defb DBh    	; 219,  -37
0ACE 0F           defb 0Fh    	; 15
0ACF 28           defb 28h    	; 40, '('
0AD0 02           defb 02h    	; 2
0AD1 1E           defb 1Eh    	; 30
0AD2 C9           defb C9h    	; 201,  -55
0AD3 C3           defb C3h    	; 195,  -61
0AD4 13           defb 13h    	; 19
0AD5 07           defb 07h    	; 7
0AD6 3A           defb 3Ah    	; 58, ':'
0AD7 78           defb 78h    	; 120, 'x'
0AD8 37           defb 37h    	; 55, '7'
0AD9 C5           defb C5h    	; 197,  -59
0ADA 83           defb 83h    	; 131, -125
0ADB 7B           defb 7Bh    	; 123, '{'
0ADC 5C           defb 5Ch    	; 92, '\'
0ADD A2           defb A2h    	; 162,  -94
0ADE 2E           defb 2Eh    	; 46, '.'
0ADF 7C           defb 7Ch    	; 124, '|'
0AE0 4D           defb 4Dh    	; 77, 'M'
0AE1 DD           defb DDh    	; 221,  -35
0AE2 99           defb 99h    	; 153, -103
0AE3 7D           defb 7Dh    	; 125, '}'
0AE4 1E           defb 1Eh    	; 30
0AE5 B0           defb B0h    	; 176,  -80
0AE6 59           defb 59h    	; 89, 'Y'
0AE7 7D           defb 7Dh    	; 125, '}'
0AE8 24           defb 24h    	; 36, '$'
0AE9 ED           defb EDh    	; 237,  -19
0AEA 91           defb 91h    	; 145, -111
0AEB 7E           defb 7Eh    	; 126, '~'
0AEC 00           defb 00h    	; 0
0AED 72           defb 72h    	; 114, 'r'
0AEE 4C           defb 4Ch    	; 76, 'L'
0AEF 7E           defb 7Eh    	; 126, '~'
0AF0 73           defb 73h    	; 115, 's'
0AF1 B9           defb B9h    	; 185,  -71
0AF2 AA           defb AAh    	; 170,  -86
0AF3 7F           defb 7Fh    	; 127
0AF4 53           defb 53h    	; 83, 'S'
0AF5 AA           defb AAh    	; 170,  -86
0AF6 00           defb 00h    	; 0
0AF7 81           defb 81h    	; 129, -127
0AF8 00           defb 00h    	; 0
0AF9 00           defb 00h    	; 0
0AFA FF           defb FFh    	; 255,   -1
0AFB 1E           defb 1Eh    	; 30
0AFC 86           defb 86h    	; 134, -122
0AFD FB           defb FBh    	; 251,   -5
0AFE D7           defb D7h    	; 215,  -41
0AFF 99           defb 99h    	; 153, -103
0B00 87           defb 87h    	; 135, -121
0B01 65           defb 65h    	; 101, 'e'
0B02 26           defb 26h    	; 38, '&'
0B03 23           defb 23h    	; 35, '#'
0B04 87           defb 87h    	; 135, -121
0B05 58           defb 58h    	; 88, 'X'
0B06 34           defb 34h    	; 52, '4'
0B07 A5           defb A5h    	; 165,  -91
0B08 86           defb 86h    	; 134, -122
0B09 E1           defb E1h    	; 225,  -31
0B0A 5D           defb 5Dh    	; 93, ']'
0B0B 49           defb 49h    	; 73, 'I'
0B0C 83           defb 83h    	; 131, -125
0B0D DB           defb DBh    	; 219,  -37
0B0E 0F           defb 0Fh    	; 15
0B0F FF           defb FFh    	; 255,   -1
0B10 7B           defb 7Bh    	; 123, '{'
0B11 EE           defb EEh    	; 238,  -18
0B12 80           defb 80h    	; 128, -128
0B13 5F           defb 5Fh    	; 95, '_'
0B14 C3           defb C3h    	; 195,  -61
0B15 71           defb 71h    	; 113, 'q'
0B16 06           defb 06h    	; 6
0B17 C1           defb C1h    	; 193,  -63
0B18 D5           defb D5h    	; 213,  -43
0B19 C5           defb C5h    	; 197,  -59
0B1A CB           defb CBh    	; 203,  -53
0B1B BB           defb BBh    	; 187,  -69
0B1C CD           defb CDh    	; 205,  -51
0B1D 71           defb 71h    	; 113, 'q'
0B1E 06           defb 06h    	; 6
0B1F 21           defb 21h    	; 33, '!'
0B20 84           defb 84h    	; 132, -124
0B21 F9           defb F9h    	; 249,   -7
0B22 11           defb 11h    	; 17
0B23 22           defb 22h    	; 34, '"'
0B24 7E           defb 7Eh    	; 126, '~'
0B25 CD           defb CDh    	; 205,  -51
0B26 CB           defb CBh    	; 203,  -53
0B27 07           defb 07h    	; 7
0B28 CD           defb CDh    	; 205,  -51
0B29 3F           defb 3Fh    	; 63, '?'
0B2A 09           defb 09h    	; 9
0B2B C9           defb C9h    	; 201,  -55
0B2C CD           defb CDh    	; 205,  -51
0B2D 17           defb 17h    	; 23
0B2E 0B           defb 0Bh    	; 11
0B2F 7A           defb 7Ah    	; 122, 'z'
0B30 A7           defb A7h    	; 167,  -89
0B31 CA           defb CAh    	; 202,  -54
0B32 9E           defb 9Eh    	; 158,  -98
0B33 06           defb 06h    	; 6
0B34 FE           defb FEh    	; 254,   -2
0B35 7F           defb 7Fh    	; 127
0B36 38           defb 38h    	; 56, '8'
0B37 19           defb 19h    	; 25
0B38 ED           defb EDh    	; 237,  -19
0B39 62           defb 62h    	; 98, 'b'
0B3A 11           defb 11h    	; 17
0B3B 00           defb 00h    	; 0
0B3C 80           defb 80h    	; 128, -128
0B3D CD           defb CDh    	; 205,  -51
0B3E 13           defb 13h    	; 19
0B3F 07           defb 07h    	; 7
0B40 CB           defb CBh    	; 203,  -53
0B41 7B           defb 7Bh    	; 123, '{'
0B42 28           defb 28h    	; 40, '('
0B43 0D           defb 0Dh    	; 13
0B44 7A           defb 7Ah    	; 122, 'z'
0B45 FE           defb FEh    	; 254,   -2
0B46 7F           defb 7Fh    	; 127
0B47 38           defb 38h    	; 56, '8'
0B48 08           defb 08h    	; 8
0B49 ED           defb EDh    	; 237,  -19
0B4A 62           defb 62h    	; 98, 'b'
0B4B 11           defb 11h    	; 17
0B4C 80           defb 80h    	; 128, -128
0B4D 80           defb 80h    	; 128, -128
0B4E CD           defb CDh    	; 205,  -51
0B4F 13           defb 13h    	; 19
0B50 07           defb 07h    	; 7
0B51 01           defb 01h    	; 1
0B52 FB           defb FBh    	; 251,   -5
0B53 0A           defb 0Ah    	; 10
0B54 CD           defb CDh    	; 205,  -51
0B55 96           defb 96h    	; 150, -106
0B56 0A           defb 0Ah    	; 10
0B57 C1           defb C1h    	; 193,  -63
0B58 CB           defb CBh    	; 203,  -53
0B59 79           defb 79h    	; 121, 'y'
0B5A C8           defb C8h    	; 200,  -56
0B5B C3           defb C3h    	; 195,  -61
0B5C 10           defb 10h    	; 16
0B5D 0B           defb 0Bh    	; 11


; Subroutine: Size=10, CC=1.
; Called by: SUB050[07EDh], SUB089[1213h].
; Calls: -
0B5E SUB053:
0B5E 21 00 00     ld   hl,0000h 	; 0
0B61 22 1E 40     ld   (VAR_P),hl 	; 401Eh
0B64 22 20 40     ld   (DATA03),hl 	; 4020h
0B67 C9           ret         


0B68 CB           defb CBh    	; 203,  -53
0B69 BB           defb BBh    	; 187,  -69
0B6A CD           defb CDh    	; 205,  -51
0B6B 17           defb 17h    	; 23
0B6C 0B           defb 0Bh    	; 11
0B6D 21           defb 21h    	; 33, '!'
0B6E 00           defb 00h    	; 0
0B6F 00           defb 00h    	; 0
0B70 11           defb 11h    	; 17
0B71 00           defb 00h    	; 0
0B72 7F           defb 7Fh    	; 127
0B73 CD           defb CDh    	; 205,  -51
0B74 1B           defb 1Bh    	; 27
0B75 07           defb 07h    	; 7
0B76 18           defb 18h    	; 24
0B77 B7           defb B7h    	; 183,  -73
0B78 D5           defb D5h    	; 213,  -43
0B79 E5           defb E5h    	; 229,  -27
0B7A CD           defb CDh    	; 205,  -51
0B7B 2C           defb 2Ch    	; 44, ','
0B7C 0B           defb 0Bh    	; 11
0B7D D9           defb D9h    	; 217,  -39
0B7E E1           defb E1h    	; 225,  -31
0B7F D1           defb D1h    	; 209,  -47
0B80 CD           defb CDh    	; 205,  -51
0B81 68           defb 68h    	; 104, 'h'
0B82 0B           defb 0Bh    	; 11
0B83 D9           defb D9h    	; 217,  -39
0B84 C3           defb C3h    	; 195,  -61
0B85 A9           defb A9h    	; 169,  -87
0B86 06           defb 06h    	; 6
0B87 63           defb 63h    	; 99, 'c'
0B88 74           defb 74h    	; 116, 't'
0B89 8C           defb 8Ch    	; 140, -116
0B8A 90           defb 90h    	; 144, -112
0B8B 23           defb 23h    	; 35, '#'
0B8C 77           defb 77h    	; 119, 'w'
0B8D AB           defb ABh    	; 171,  -85
0B8E 0C           defb 0Ch    	; 12
0B8F 1E           defb 1Eh    	; 30
0B90 7A           defb 7Ah    	; 122, 'z'
0B91 00           defb 00h    	; 0
0B92 94           defb 94h    	; 148, -108
0B93 63           defb 63h    	; 99, 'c'
0B94 7C           defb 7Ch    	; 124, '|'
0B95 80           defb 80h    	; 128, -128
0B96 42           defb 42h    	; 66, 'B'
0B97 75           defb 75h    	; 117, 'u'
0B98 7E           defb 7Eh    	; 126, '~'
0B99 D0           defb D0h    	; 208,  -48
0B9A FE           defb FEh    	; 254,   -2
0B9B 31           defb 31h    	; 49, '1'
0B9C 80           defb 80h    	; 128, -128
0B9D 15           defb 15h    	; 21
0B9E 72           defb 72h    	; 114, 'r'
0B9F 00           defb 00h    	; 0
0BA0 81           defb 81h    	; 129, -127
0BA1 00           defb 00h    	; 0
0BA2 00           defb 00h    	; 0
0BA3 FF           defb FFh    	; 255,   -1
0BA4 CD           defb CDh    	; 205,  -51
0BA5 71           defb 71h    	; 113, 'q'
0BA6 06           defb 06h    	; 6
0BA7 21           defb 21h    	; 33, '!'
0BA8 3B           defb 3Bh    	; 59, ';'
0BA9 AA           defb AAh    	; 170,  -86
0BAA 11           defb 11h    	; 17
0BAB 38           defb 38h    	; 56, '8'
0BAC 81           defb 81h    	; 129, -127
0BAD CD           defb CDh    	; 205,  -51
0BAE CB           defb CBh    	; 203,  -53
0BAF 07           defb 07h    	; 7
0BB0 7A           defb 7Ah    	; 122, 'z'
0BB1 FE           defb FEh    	; 254,   -2
0BB2 88           defb 88h    	; 136, -120
0BB3 38           defb 38h    	; 56, '8'
0BB4 08           defb 08h    	; 8
0BB5 CB           defb CBh    	; 203,  -53
0BB6 7B           defb 7Bh    	; 123, '{'
0BB7 CA           defb CAh    	; 202,  -54
0BB8 64           defb 64h    	; 100, 'd'
0BB9 15           defb 15h    	; 21
0BBA C3           defb C3h    	; 195,  -61
0BBB 9F           defb 9Fh    	; 159,  -97
0BBC 06           defb 06h    	; 6
0BBD E5           defb E5h    	; 229,  -27
0BBE D5           defb D5h    	; 213,  -43
0BBF CD           defb CDh    	; 205,  -51
0BC0 E6           defb E6h    	; 230,  -26
0BC1 09           defb 09h    	; 9
0BC2 7D           defb 7Dh    	; 125, '}'
0BC3 D1           defb D1h    	; 209,  -47
0BC4 E1           defb E1h    	; 225,  -31
0BC5 CB           defb CBh    	; 203,  -53
0BC6 7B           defb 7Bh    	; 123, '{'
0BC7 28           defb 28h    	; 40, '('
0BC8 01           defb 01h    	; 1
0BC9 3D           defb 3Dh    	; 61, '='
0BCA 00           defb 00h    	; 0
0BCB 00           defb 00h    	; 0
0BCC 00           defb 00h    	; 0
0BCD F5           defb F5h    	; 245,  -11
0BCE CD           defb CDh    	; 205,  -51
0BCF 3F           defb 3Fh    	; 63, '?'
0BD0 09           defb 09h    	; 9
0BD1 01           defb 01h    	; 1
0BD2 87           defb 87h    	; 135, -121
0BD3 0B           defb 0Bh    	; 11
0BD4 CD           defb CDh    	; 205,  -51
0BD5 78           defb 78h    	; 120, 'x'
0BD6 0A           defb 0Ah    	; 10
0BD7 F1           defb F1h    	; 241,  -15
0BD8 82           defb 82h    	; 130, -126
0BD9 57           defb 57h    	; 87, 'W'
0BDA C3           defb C3h    	; 195,  -61
0BDB 71           defb 71h    	; 113, 'q'
0BDC 06           defb 06h    	; 6
0BDD 00           defb 00h    	; 0
0BDE 19           defb 19h    	; 25
0BDF 80           defb 80h    	; 128, -128
0BE0 62           defb 62h    	; 98, 'b'
0BE1 56           defb 56h    	; 86, 'V'
0BE2 76           defb 76h    	; 118, 'v'
0BE3 80           defb 80h    	; 128, -128
0BE4 F3           defb F3h    	; 243,  -13
0BE5 22           defb 22h    	; 34, '"'
0BE6 38           defb 38h    	; 56, '8'
0BE7 82           defb 82h    	; 130, -126
0BE8 40           defb 40h    	; 64, '@'
0BE9 AA           defb AAh    	; 170,  -86
0BEA FF           defb FFh    	; 255,   -1
0BEB 7A           defb 7Ah    	; 122, 'z'
0BEC A7           defb A7h    	; 167,  -89
0BED CA           defb CAh    	; 202,  -54
0BEE 54           defb 54h    	; 84, 'T'
0BEF 15           defb 15h    	; 21
0BF0 CB           defb CBh    	; 203,  -53
0BF1 7B           defb 7Bh    	; 123, '{'
0BF2 C2           defb C2h    	; 194,  -62
0BF3 54           defb 54h    	; 84, 'T'
0BF4 15           defb 15h    	; 21
0BF5 D5           defb D5h    	; 213,  -43
0BF6 16           defb 16h    	; 22
0BF7 80           defb 80h    	; 128, -128
0BF8 CD           defb CDh    	; 205,  -51
0BF9 71           defb 71h    	; 113, 'q'
0BFA 06           defb 06h    	; 6
0BFB 21           defb 21h    	; 33, '!'
0BFC F3           defb F3h    	; 243,  -13
0BFD 04           defb 04h    	; 4
0BFE 11           defb 11h    	; 17
0BFF 35           defb 35h    	; 53, '5'
0C00 80           defb 80h    	; 128, -128
0C01 CD           defb CDh    	; 205,  -51
0C02 1B           defb 1Bh    	; 27
0C03 07           defb 07h    	; 7
0C04 21           defb 21h    	; 33, '!'
0C05 F3           defb F3h    	; 243,  -13
0C06 04           defb 04h    	; 4
0C07 11           defb 11h    	; 17
0C08 35           defb 35h    	; 53, '5'
0C09 81           defb 81h    	; 129, -127
0C0A CD           defb CDh    	; 205,  -51
0C0B A9           defb A9h    	; 169,  -87
0C0C 06           defb 06h    	; 6
0C0D 11           defb 11h    	; 17
0C0E 00           defb 00h    	; 0
0C0F 81           defb 81h    	; 129, -127
0C10 21           defb 21h    	; 33, '!'
0C11 00           defb 00h    	; 0
0C12 00           defb 00h    	; 0
0C13 CD           defb CDh    	; 205,  -51
0C14 13           defb 13h    	; 19
0C15 07           defb 07h    	; 7
0C16 01           defb 01h    	; 1
0C17 DE           defb DEh    	; 222,  -34
0C18 0B           defb 0Bh    	; 11
0C19 CD           defb CDh    	; 205,  -51
0C1A 96           defb 96h    	; 150, -106
0C1B 0A           defb 0Ah    	; 10
0C1C 11           defb 11h    	; 17
0C1D 80           defb 80h    	; 128, -128
0C1E 80           defb 80h    	; 128, -128
0C1F CD           defb CDh    	; 205,  -51
0C20 0E           defb 0Eh    	; 14
0C21 07           defb 07h    	; 7
0C22 D9           defb D9h    	; 217,  -39
0C23 F1           defb F1h    	; 241,  -15
0C24 D6           defb D6h    	; 214,  -42
0C25 80           defb 80h    	; 128, -128
0C26 26           defb 26h    	; 38, '&'
0C27 00           defb 00h    	; 0
0C28 30           defb 30h    	; 48, '0'
0C29 01           defb 01h    	; 1
0C2A 25           defb 25h    	; 37, '%'
0C2B 6F           defb 6Fh    	; 111, 'o'
0C2C CD           defb CDh    	; 205,  -51
0C2D 3A           defb 3Ah    	; 58, ':'
0C2E 06           defb 06h    	; 6
0C2F D9           defb D9h    	; 217,  -39
0C30 CD           defb CDh    	; 205,  -51
0C31 1B           defb 1Bh    	; 27
0C32 07           defb 07h    	; 7
0C33 11           defb 11h    	; 17
0C34 31           defb 31h    	; 49, '1'
0C35 80           defb 80h    	; 128, -128
0C36 21           defb 21h    	; 33, '!'
0C37 18           defb 18h    	; 24
0C38 72           defb 72h    	; 114, 'r'
0C39 C3           defb C3h    	; 195,  -61
0C3A CB           defb CBh    	; 203,  -53
0C3B 07           defb 07h    	; 7
0C3C 7A           defb 7Ah    	; 122, 'z'
0C3D A7           defb A7h    	; 167,  -89
0C3E CA           defb CAh    	; 202,  -54
0C3F 71           defb 71h    	; 113, 'q'
0C40 06           defb 06h    	; 6
0C41 01           defb 01h    	; 1
0C42 00           defb 00h    	; 0
0C43 80           defb 80h    	; 128, -128
0C44 C5           defb C5h    	; 197,  -59
0C45 41           defb 41h    	; 65, 'A'
0C46 C5           defb C5h    	; 197,  -59
0C47 18           defb 18h    	; 24
0C48 0F           defb 0Fh    	; 15
0C49 7A           defb 7Ah    	; 122, 'z'
0C4A A7           defb A7h    	; 167,  -89
0C4B CA           defb CAh    	; 202,  -54
0C4C 71           defb 71h    	; 113, 'q'
0C4D 06           defb 06h    	; 6
0C4E D9           defb D9h    	; 217,  -39
0C4F 2A           defb 2Ah    	; 42, '*'
0C50 1E           defb 1Eh    	; 30
0C51 40           defb 40h    	; 64, '@'
0C52 E5           defb E5h    	; 229,  -27
0C53 2A           defb 2Ah    	; 42, '*'
0C54 20           defb 20h    	; 32, ' '
0C55 40           defb 40h    	; 64, '@'
0C56 E5           defb E5h    	; 229,  -27
0C57 D9           defb D9h    	; 217,  -39
0C58 CD           defb CDh    	; 205,  -51
0C59 EB           defb EBh    	; 235,  -21
0C5A 0B           defb 0Bh    	; 11
0C5B E1           defb E1h    	; 225,  -31
0C5C D1           defb D1h    	; 209,  -47
0C5D CD           defb CDh    	; 205,  -51
0C5E CB           defb CBh    	; 203,  -53
0C5F 07           defb 07h    	; 7
0C60 C3           defb C3h    	; 195,  -61
0C61 A4           defb A4h    	; 164,  -92
0C62 0B           defb 0Bh    	; 11
0C63 01           defb 01h    	; 1
0C64 41           defb 41h    	; 65, 'A'
0C65 41           defb 41h    	; 65, 'A'
0C66 18           defb 18h    	; 24
0C67 17           defb 17h    	; 23
0C68 01           defb 01h    	; 1
0C69 01           defb 01h    	; 1
0C6A 41           defb 41h    	; 65, 'A'
0C6B 18           defb 18h    	; 24
0C6C 12           defb 12h    	; 18
0C6D 01           defb 01h    	; 1
0C6E 40           defb 40h    	; 64, '@'
0C6F 41           defb 41h    	; 65, 'A'
0C70 18           defb 18h    	; 24
0C71 0D           defb 0Dh    	; 13
0C72 01           defb 01h    	; 1
0C73 41           defb 41h    	; 65, 'A'
0C74 40           defb 40h    	; 64, '@'
0C75 18           defb 18h    	; 24
0C76 08           defb 08h    	; 8
0C77 C3           defb C3h    	; 195,  -61
0C78 97           defb 97h    	; 151, -105
0C79 0C           defb 0Ch    	; 12
0C7A 18           defb 18h    	; 24
0C7B 03           defb 03h    	; 3
0C7C 01           defb 01h    	; 1
0C7D 41           defb 41h    	; 65, 'A'
0C7E 01           defb 01h    	; 1
0C7F C5           defb C5h    	; 197,  -59
0C80 CD           defb CDh    	; 205,  -51
0C81 F6           defb F6h    	; 246,  -10
0C82 19           defb 19h    	; 25
0C83 F5           defb F5h    	; 245,  -11
0C84 D1           defb D1h    	; 209,  -47
0C85 C1           defb C1h    	; 193,  -63
0C86 7B           defb 7Bh    	; 123, '{'
0C87 A0           defb A0h    	; 160,  -96
0C88 ED           defb EDh    	; 237,  -19
0C89 62           defb 62h    	; 98, 'b'
0C8A 54           defb 54h    	; 84, 'T'
0C8B 5C           defb 5Ch    	; 92, '\'
0C8C A9           defb A9h    	; 169,  -87
0C8D FE           defb FEh    	; 254,   -2
0C8E 41           defb 41h    	; 65, 'A'
0C8F C2           defb C2h    	; 194,  -62
0C90 71           defb 71h    	; 113, 'q'
0C91 06           defb 06h    	; 6
0C92 16           defb 16h    	; 22
0C93 81           defb 81h    	; 129, -127
0C94 C3           defb C3h    	; 195,  -61
0C95 71           defb 71h    	; 113, 'q'
0C96 06           defb 06h    	; 6
0C97 CD           defb CDh    	; 205,  -51
0C98 F6           defb F6h    	; 246,  -10
0C99 19           defb 19h    	; 25
0C9A 21           defb 21h    	; 33, '!'
0C9B 00           defb 00h    	; 0
0C9C 00           defb 00h    	; 0
0C9D 11           defb 11h    	; 17
0C9E 00           defb 00h    	; 0
0C9F 00           defb 00h    	; 0
0CA0 38           defb 38h    	; 56, '8'
0CA1 F0           defb F0h    	; 240,  -16
0CA2 28           defb 28h    	; 40, '('
0CA3 EE           defb EEh    	; 238,  -18
0CA4 18           defb 18h    	; 24
0CA5 EE           defb EEh    	; 238,  -18
0CA6 2A           defb 2Ah    	; 42, '*'
0CA7 22           defb 22h    	; 34, '"'
0CA8 40           defb 40h    	; 64, '@'


; Subroutine: Size=145, CC=19.
; Called by: SUB100[1496h].
; Calls: RST10, SUB028, CMD_INTERPRETER, SUB079, SUB113, SUB139.
0CA9 TOKENIZER:
0CA9 FD 36 3C 33  ld   (iy+60),33h 	; 51, '3'
0CAD 0E 00        ld   c,00h  	; 0
0CAF .tokenizer_loop1:
0CAF D7           rst  10h    
0CB0 00           nop         
0CB1 00           nop         
0CB2 36 60        ld   (hl),60h 	; 96, '`'
0CB4 C8           ret  z      
0CB5 FE 22        cp   22h    	; 34, '"'
0CB7 20 01        jr   nz,.tokenizer_l01 	; 0CBAh
0CB9 0C           inc  c      
0CBA .tokenizer_l01:
0CBA CB 41        bit  0,c    
0CBC 20 6F        jr   nz,CMD_INTERPRETER 	; 0D2Dh
0CBE FE 20        cp   20h    	; 32, ' '
0CC0 28 ED        jr   z,.tokenizer_loop1 	; 0CAFh
0CC2 FE 80        cp   80h    	; 128, -128
0CC4 30 67        jr   nc,CMD_INTERPRETER 	; 0D2Dh
0CC6 FE 3F        cp   3Fh    	; 63, '?'
0CC8 3E A8        ld   a,A8h  	; 168,  -88
0CCA 28 61        jr   z,CMD_INTERPRETER 	; 0D2Dh
0CCC 1B           dec  de     
0CCD 7B           ld   a,e    
0CCE FE 96        cp   96h    	; 150, -106
0CD0 E5           push hl     
0CD1 D4 DD 05     call nc,SUB028 	; 05DDh
0CD4 CD EB 1F     call SUB139 	; 1FEBh
0CD7 E1           pop  hl     
0CD8 20 08        jr   nz,.tokenizer_l03 	; 0CE2h
0CDA 78           ld   a,b    
0CDB FE 40        cp   40h    	; 64, '@'
0CDD 20 01        jr   nz,.tokenizer_l02 	; 0CE0h
0CDF 0C           inc  c      
0CE0 .tokenizer_l02:
0CE0 18 33        jr   .tokenizer_l07 	; 0D15h
0CE2 .tokenizer_l03:
0CE2 CD 11 17     call SUB113 	; 1711h
0CE5 38 10        jr   c,.tokenizer_l04 	; 0CF7h
0CE7 FE 5B        cp   5Bh    	; 91, '['
0CE9 30 12        jr   nc,.tokenizer_l05 	; 0CFDh
0CEB FD CB 3C 46  bit  0,(iy+60) 
0CEF 28 BE        jr   z,.tokenizer_loop1 	; 0CAFh
0CF1 FD CB 3C 3E  srl  (iy+60) 
0CF5 18 3A        jr   .tokenizer_l10 	; 0D31h
0CF7 .tokenizer_l04:
0CF7 FD CB 3C 4E  bit  1,(iy+60) 
0CFB 20 30        jr   nz,CMD_INTERPRETER 	; 0D2Dh
0CFD .tokenizer_l05:
0CFD FE 24        cp   24h    	; 36, '$'
0CFF 20 1E        jr   nz,.tokenizer_l09 	; 0D1Fh
0D01 E5           push hl     
0D02 2B           dec  hl     
0D03 FD CB 3C 66  bit  4,(iy+60) 
0D07 20 01        jr   nz,.tokenizer_l06 	; 0D0Ah
0D09 2B           dec  hl     
0D0A .tokenizer_l06:
0D0A 3E 20        ld   a,20h  	; 32, ' '
0D0C B6           or   (hl)   
0D0D 77           ld   (hl),a 
0D0E E1           pop  hl     
0D0F FD CB 3C 86  res  0,(iy+60) 
0D13 .tokenizer_loop2:
0D13 18 9A        jr   .tokenizer_loop1 	; 0CAFh
0D15 .tokenizer_l07:
0D15 3E C9        ld   a,C9h  	; 201,  -55
0D17 90           sub  b      
0D18 FE AF        cp   AFh    	; 175,  -81
0D1A 38 01        jr   c,.tokenizer_l08 	; 0D1Dh
0D1C 13           inc  de     
0D1D .tokenizer_l08:
0D1D 00           nop         
0D1E 00           nop         
0D1F .tokenizer_l09:
0D1F FE 28        cp   28h    	; 40, '('
0D21 20 0A        jr   nz,CMD_INTERPRETER 	; 0D2Dh
0D23 3E 1F        ld   a,1Fh  	; 31
0D25 FD CB 3C 66  bit  4,(iy+60) 
0D29 20 02        jr   nz,CMD_INTERPRETER 	; 0D2Dh
0D2B 2B           dec  hl     
0D2C A6           and  (hl)   


; Subroutine: Size=143, CC=19.
; Called by: TOKENIZER[0CBCh], TOKENIZER[0CC4h], TOKENIZER[0CCAh], TOKENIZER[0D21h], TOKENIZER[0D29h], TOKENIZER[0CFBh].
; Calls: -
0D2D CMD_INTERPRETER:
0D2D FD 36 3C 33  ld   (iy+60),33h 	; 51, '3'


0D31 .tokenizer_l10:
0D31 77           ld   (hl),a 
0D32 23           inc  hl     
0D33 E5           push hl     
0D34 C5           push bc     
0D35 D5           push de     
0D36 CD 75 0F     call SUB079 	; 0F75h
0D39 D1           pop  de     
0D3A C1           pop  bc     
0D3B E1           pop  hl     
0D3C 18 D5        jr   .tokenizer_loop2 	; 0D13h


; Subroutine: Size=11, CC=2.
; Called by: GOTO[1761h].
; Calls: SUB055, SUB056.
0D3E SUB054:
0D3E A7           and  a      
0D3F ED 4B 2E 40  ld   bc,(VAR_BASIC_CUR_LINE) 	; 402Eh
0D43 03           inc  bc     
0D44 ED 42        sbc  hl,bc  
0D46 09           add  hl,bc  
0D47 30 06        jr   nc,SUB056 	; 0D4Fh


; Subroutine: Size=19, CC=3.
; Called by: SUB099[144Bh], SUB108[159Bh], SUB054[0D47h].
; Calls: SUB056.
0D49 SUB055:
0D49 EB           ex   de,hl  
0D4A 2A 30 40     ld   hl,(ADDR_START_OF_BASIC_PRG) 	; 4030h
0D4D 18 07        jr   .sub055_l 	; 0D56h


; Subroutine: Size=20, CC=3.
; Called by: SUB054[0D47h], SUB055[0D61h], SUB099[145Bh].
; Calls: -
0D4F SUB056:
0D4F EB           ex   de,hl  
0D50 06 FF        ld   b,FFh  	; 255,   -1
0D52 3E 60        ld   a,60h  	; 96, '`'
0D54 ED B1        cpir        


0D56 .sub055_l:
0D56 46           ld   b,(hl) 
0D57 23           inc  hl     
0D58 4E           ld   c,(hl) 
0D59 23           inc  hl     
0D5A EB           ex   de,hl  
0D5B 97           sub  a      
0D5C ED 42        sbc  hl,bc  
0D5E C8           ret  z      
0D5F D8           ret  c      
0D60 09           add  hl,bc  
0D61 18 EC        jr   SUB056 	; 0D4Fh


; Subroutine: Size=3, CC=1.
; Called by: AUTOSTART[179Dh], LOAD[1EF6h], SUB099[1447h].
; Calls: SUB057, SUB066.
0D63 PRG_LOAD_INIT:
0D63 CD FE 0D     call SUB066 	; 0DFEh


; Subroutine: Size=11, CC=1.
; Called by: SUB126[1D72h], PRG_LOAD_INIT[0D63h].
; Calls: SUB058.
0D66 SUB057:
0D66 22 18 40     ld   (ADDR_END_OF_BASIC_PRG),hl 	; 4018h
0D69 36 80        ld   (hl),80h 	; 128, -128
0D6B 23           inc  hl     
0D6C 36 60        ld   (hl),60h 	; 96, '`'
0D6E 22 1A 40     ld   (ADDR_END_OF_VARIABLES),hl 	; 401Ah


; Subroutine: Size=1, CC=1.
; Called by: SUB117[18A1h], SUB057[0D6Eh].
; Calls: SUB059.
0D71 SUB058:
0D71 23           inc  hl     


; Subroutine: Size=3, CC=1.
; Called by: SUB082[0FF7h], SUB058[0D71h].
; Calls: SUB060.
0D72 SUB059:
0D72 22 1C 40     ld   (ADDR_END_OF_STRINGS),hl 	; 401Ch


; Subroutine: Size=4, CC=1.
; Called by: SUB114[173Bh], SUB059[0D72h].
; Calls: -
0D75 SUB060:
0D75 22 2C 40     ld   (VAR_BASIC_STRING),hl 	; 402Ch
0D78 C9           ret         


; Subroutine: Size=49, CC=4.
; Called by: SUB073[0E71h].
; Calls: CHECK_FOR_60h, LBL04.
0D79 SUB061:
0D79 21 00 00     ld   hl,0000h 	; 0
0D7C 0E FF        ld   c,FFh  	; 255,   -1
0D7E .sub061_loop:
0D7E E7           rst  20h    
0D7F FE 3A        cp   3Ah    	; 58, ':'
0D81 30 19        jr   nc,.sub061_l 	; 0D9Ch
0D83 D6 30        sub  30h    	; 48, '0'
0D85 38 15        jr   c,.sub061_l 	; 0D9Ch
0D87 01 CC 0C     ld   bc,0CCCh 	; 3276
0D8A ED 42        sbc  hl,bc  
0D8C 09           add  hl,bc  
0D8D D2 54 15     jp   nc,LBL04 	; 1554h
0D90 44           ld   b,h    
0D91 4D           ld   c,l    
0D92 29           add  hl,hl  
0D93 29           add  hl,hl  
0D94 09           add  hl,bc  
0D95 29           add  hl,hl  
0D96 4F           ld   c,a    
0D97 06 00        ld   b,00h  	; 0
0D99 09           add  hl,bc  
0D9A 18 E2        jr   .sub061_loop 	; 0D7Eh
0D9C .sub061_l:
0D9C 1B           dec  de     
0D9D CB 79        bit  7,c    
0D9F C9           ret         


; Subroutine: Size=84, CC=7.
; Called by: SUB109[16A1h].
; Calls: CHECK_FOR_60h, SUB082, BASIC_INTERPRETER, PRINT_SN_ERROR, LBL08, SUB117, SUB119.
0DA0 SUB062:
0DA0 1B           dec  de     
0DA1 CD 8B 0F     call SUB082 	; 0F8Bh
0DA4 E5           push hl     
0DA5 C5           push bc     
0DA6 E7           rst  20h    
0DA7 FE 87        cp   87h    	; 135, -121
0DA9 C2 70 15     jp   nz,PRINT_SN_ERROR 	; 1570h
0DAC CD CD 10     call BASIC_INTERPRETER 	; 10CDh
0DAF E1           pop  hl     
0DB0 CB 6D        bit  5,l    
0DB2 3E 00        ld   a,00h  	; 0
0DB4 28 01        jr   z,.sub062_l1 	; 0DB7h
0DB6 3D           dec  a      
0DB7 .sub062_l1:
0DB7 B8           cp   b      
0DB8 C2 74 15     jp   nz,LBL08 	; 1574h
0DBB A7           and  a      
0DBC D5           push de     
0DBD ED 5B 1C 40  ld   de,(ADDR_END_OF_STRINGS) 	; 401Ch
0DC1 28 13        jr   z,.sub062_l2 	; 0DD6h
0DC3 C3 D2 18     jp   SUB119 	; 18D2h


; Subroutine: Size=37, CC=4.
; Called by: SUB119[18DBh].
; Calls: SUB064.
0DC6 SUB063:
0DC6 ED 52        sbc  hl,de  
0DC8 19           add  hl,de  
0DC9 38 0B        jr   c,.sub062_l2 	; 0DD6h


; Subroutine: Size=43, CC=3.
; Called by: SUB119[18DEh], SUB063[0DC9h].
; Calls: -
0DCB SUB064:
0DCB 04           inc  b      
0DCC FD 4E 1E     ld   c,(iy+30) 
0DCF 03           inc  bc     
0DD0 ED 53 20 40  ld   (DATA03),de 	; 4020h
0DD4 ED B0        ldir        


0DD6 .sub062_l2:
0DD6 EB           ex   de,hl  
0DD7 22 1C 40     ld   (ADDR_END_OF_STRINGS),hl 	; 401Ch
0DDA 22 2C 40     ld   (VAR_BASIC_STRING),hl 	; 402Ch
0DDD D1           pop  de     
0DDE E1           pop  hl     
0DDF ED 4B 1E 40  ld   bc,(VAR_P) 	; 401Eh
0DE3 A7           and  a      
0DE4 20 02        jr   nz,.sub062_l3 	; 0DE8h
0DE6 70           ld   (hl),b 
0DE7 23           inc  hl     
0DE8 .sub062_l3:
0DE8 71           ld   (hl),c 
0DE9 23           inc  hl     
0DEA ED 4B 20 40  ld   bc,(DATA03) 	; 4020h
0DEE 71           ld   (hl),c 
0DEF 23           inc  hl     
0DF0 70           ld   (hl),b 
0DF1 23           inc  hl     
0DF2 C8           ret  z      
0DF3 C3 00 18     jp   SUB117 	; 1800h


; Subroutine: Size=6, CC=2.
; Called by: LOAD[1EF0h].
; Calls: -
0DF6 SUB065:
0DF6 1A           ld   a,(de) 
0DF7 FE 22        cp   22h    	; 34, '"'
0DF9 C0           ret  nz     
0DFA 13           inc  de     
0DFB C9           ret         


0DFC 00           defb 00h    	; 0
0DFD 00           defb 00h    	; 0


; Subroutine: Size=10, CC=1.
; Called by: PRG_LOAD_INIT[0D63h].
; Calls: -
0DFE SUB066:
0DFE 2A 30 40     ld   hl,(ADDR_START_OF_BASIC_PRG) 	; 4030h
0E01 22 37 40     ld   (ADDR_NEXT_BASIC_DATA_4_READ),hl 	; 4037h
0E04 2A 18 40     ld   hl,(ADDR_END_OF_BASIC_PRG) 	; 4018h
0E07 C9           ret         


0E08 CD           defb CDh    	; 205,  -51
0E09 1B           defb 1Bh    	; 27
0E0A 07           defb 07h    	; 7
0E0B 2A           defb 2Ah    	; 42, '*'
0E0C 2A           defb 2Ah    	; 42, '*'
0E0D 40           defb 40h    	; 64, '@'
0E0E ED           defb EDh    	; 237,  -19
0E0F 5B           defb 5Bh    	; 91, '['
0E10 28           defb 28h    	; 40, '('
0E11 40           defb 40h    	; 64, '@'
0E12 CD           defb CDh    	; 205,  -51
0E13 CB           defb CBh    	; 203,  -53
0E14 07           defb 07h    	; 7
0E15 C3           defb C3h    	; 195,  -61
0E16 83           defb 83h    	; 131, -125
0E17 0A           defb 0Ah    	; 10


; Subroutine: Size=17, CC=1.
; Called by: SUB108[15A6h].
; Calls: CHECK_FOR_60h, SUB030, SUB051, SUB068, SUB105.
0E18 SUB067:
0E18 E7           rst  20h    
0E19 67           ld   h,a    
0E1A E7           rst  20h    
0E1B 6F           ld   l,a    
0E1C D5           push de     
0E1D CD 3A 06     call SUB030 	; 063Ah
0E20 CD 74 08     call SUB051 	; 0874h
0E23 CD 38 15     call SUB105 	; 1538h
0E26 3E 20        ld   a,20h  	; 32, ' '
0E28 D1           pop  de     


; Subroutine: Size=1, CC=1.
; Called by: SUB112[170Eh], SUB072[0E4Ch], SUB071[0E3Ah], SUB071[0E41h], SUB067[0E28h].
; Calls: OUTPUT_CHAR, SUB069.
0E29 SUB068:
0E29 EF           rst  28h    


; Subroutine: Size=8, CC=2.
; Called by: SUB112[16F0h], SUB068[0E29h].
; Calls: CHECK_FOR_60h, SUB070, SUB112.
0E2A SUB069:
0E2A E7           rst  20h    
0E2B 20 04        jr   nz,.sub069_l 	; 0E31h


; Subroutine: Size=4, CC=1.
; Called by: SUB112[16F4h], SUB069[0E2Bh].
; Calls: OUTPUT_CHAR.
0E2D SUB070:
0E2D 3E 0D        ld   a,0Dh  	; 13
0E2F EF           rst  28h    
0E30 C9           ret         


0E31 .sub069_l:
0E31 CB 7F        bit  7,a    
0E33 C3 E5 16     jp   SUB112 	; 16E5h


; Subroutine: Size=13, CC=3.
; Called by: SUB112[16FFh].
; Calls: OUTPUT_CHAR, SUB068.
0E36 SUB071:
0E36 FE 1F        cp   1Fh    	; 31
0E38 28 05        jr   z,.sub071_l 	; 0E3Fh
0E3A 30 ED        jr   nc,SUB068 	; 0E29h
0E3C F6 40        or   40h    	; 64, '@'
0E3E .sub071_loop:
0E3E EF           rst  28h    
0E3F .sub071_l:
0E3F 3E 28        ld   a,28h  	; 40, '('
0E41 18 E6        jr   SUB068 	; 0E29h


; Subroutine: Size=36, CC=5.
; Called by: SUB112[16FAh].
; Calls: CHECK_FOR_60h, OUTPUT_CHAR, SUB068.
0E43 SUB072:
0E43 E6 5F        and  5Fh    	; 95, '_'
0E45 EF           rst  28h    
0E46 E7           rst  20h    
0E47 38 05        jr   c,.sub072_l1 	; 0E4Eh
0E49 .sub072_loop1:
0E49 1B           dec  de     
0E4A .sub072_loop2:
0E4A 3E 24        ld   a,24h  	; 36, '$'
0E4C 18 DB        jr   SUB068 	; 0E29h
0E4E .sub072_l1:
0E4E FE 41        cp   41h    	; 65, 'A'
0E50 38 03        jr   c,.sub072_l2 	; 0E55h
0E52 EF           rst  28h    
0E53 18 F5        jr   .sub072_loop2 	; 0E4Ah
0E55 .sub072_l2:
0E55 FE 1F        cp   1Fh    	; 31
0E57 28 05        jr   z,.sub072_l3 	; 0E5Eh
0E59 30 EE        jr   nc,.sub072_loop1 	; 0E49h
0E5B F6 40        or   40h    	; 64, '@'
0E5D EF           rst  28h    
0E5E .sub072_l3:
0E5E 3E 24        ld   a,24h  	; 36, '$'
0E60 18 DC        jr   .sub071_loop 	; 0E3Eh


0E62 CD           defb CDh    	; 205,  -51
0E63 CD           defb CDh    	; 205,  -51
0E64 10           defb 10h    	; 16
0E65 D5           defb D5h    	; 213,  -43
0E66 ED           defb EDh    	; 237,  -19
0E67 5B           defb 5Bh    	; 91, '['
0E68 20           defb 20h    	; 32, ' '
0E69 40           defb 40h    	; 64, '@'
0E6A 00           defb 00h    	; 0
0E6B C3           defb C3h    	; 195,  -61
0E6C 25           defb 25h    	; 37, '%'
0E6D 1A           defb 1Ah    	; 26


; Subroutine: Size=6, CC=1.
; Called by: SUB115[173Eh], SUB099[143Bh].
; Calls: SUB019, SUB061.
0E6E SUB073:
0E6E CD E9 03     call SUB019 	; 03E9h
0E71 C3 79 0D     jp   SUB061 	; 0D79h


; Subroutine: Size=25, CC=3.
; Called by: SUB097[13CCh].
; Calls: SUB098, LBL07.
0E74 SUB074:
0E74 3A 1E 40     ld   a,(VAR_P) 	; 401Eh
0E77 A7           and  a      
0E78 20 04        jr   nz,.sub074_l 	; 0E7Eh
0E7A F1           pop  af     
0E7B C3 F2 13     jp   SUB098 	; 13F2h
0E7E .sub074_l:
0E7E 83           add  a,e    
0E7F DA 6C 15     jp   c,LBL07 	; 156Ch
0E82 C9           ret         


0E83 7D           defb 7Dh    	; 125, '}'
0E84 D1           defb D1h    	; 209,  -47
0E85 C9           defb C9h    	; 201,  -55
0E86 CD           defb CDh    	; 205,  -51
0E87 26           defb 26h    	; 38, '&'
0E88 07           defb 07h    	; 7
0E89 C3           defb C3h    	; 195,  -61
0E8A 10           defb 10h    	; 16
0E8B 0B           defb 0Bh    	; 11
0E8C CD           defb CDh    	; 205,  -51
0E8D 26           defb 26h    	; 38, '&'
0E8E 07           defb 07h    	; 7
0E8F C3           defb C3h    	; 195,  -61
0E90 2E           defb 2Eh    	; 46, '.'
0E91 0A           defb 0Ah    	; 10
0E92 CA           defb CAh    	; 202,  -54
0E93 48           defb 48h    	; 72, 'H'
0E94 15           defb 15h    	; 21
0E95 32           defb 32h    	; 50, '2'
0E96 1F           defb 1Fh    	; 31
0E97 40           defb 40h    	; 64, '@'
0E98 C9           defb C9h    	; 201,  -55


; Subroutine: Size=13, CC=3.
; Called by: SUB032[0658h].
; Calls: SUB036.
0E99 SUB075:
0E99 CB 7B        bit  7,e    
0E9B C0           ret  nz     
0E9C 15           dec  d      
0E9D CA 9E 06     jp   z,SUB036 	; 069Eh
0EA0 ED 6A        adc  hl,hl  
0EA2 CB 13        rl   e      
0EA4 18 F3        jr   SUB075 	; 0E99h


0EA6 71           defb 71h    	; 113, 'q'
0EA7 C1           defb C1h    	; 193,  -63


; Subroutine: Size=128, CC=14.
; Called by: SUB089[1209h], SUB082[0F8Bh].
; Calls: CHECK_FOR_60h, SUB095, SUB096, PRINT_SN_ERROR.
0EA8 SUB076:
0EA8 E7           rst  20h    
0EA9 .sub076_loop3:
0EA9 CA 70 15     jp   z,PRINT_SN_ERROR 	; 1570h
0EAC CB 7F        bit  7,a    
0EAE C2 70 15     jp   nz,PRINT_SN_ERROR 	; 1570h
0EB1 FE 41        cp   41h    	; 65, 'A'
0EB3 DA 70 15     jp   c,PRINT_SN_ERROR 	; 1570h
0EB6 06 5F        ld   b,5Fh  	; 95, '_'
0EB8 4F           ld   c,a    
0EB9 1A           ld   a,(de) 
0EBA FE 60        cp   60h    	; 96, '`'
0EBC 30 2A        jr   nc,.sub076_l3 	; 0EE8h
0EBE FE 41        cp   41h    	; 65, 'A'
0EC0 30 24        jr   nc,.sub076_l2 	; 0EE6h
0EC2 FE 20        cp   20h    	; 32, ' '
0EC4 30 22        jr   nc,.sub076_l3 	; 0EE8h
0EC6 13           inc  de     
0EC7 F5           push af     
0EC8 C5           push bc     
0EC9 CD DB 12     call SUB096 	; 12DBh
0ECC 6F           ld   l,a    
0ECD 26 00        ld   h,00h  	; 0
0ECF 1A           ld   a,(de) 
0ED0 FE 29        cp   29h    	; 41, ')'
0ED2 28 0D        jr   z,.sub076_l1 	; 0EE1h
0ED4 E5           push hl     
0ED5 CD D5 12     call SUB095 	; 12D5h
0ED8 E1           pop  hl     
0ED9 00           nop         
0EDA 00           nop         
0EDB 67           ld   h,a    
0EDC 1A           ld   a,(de) 
0EDD FE 29        cp   29h    	; 41, ')'
0EDF 20 CA        jr   nz,.sub076_loop3+2 	; 0EABh, WARNING: Branches into the middle of an opcode!
0EE1 .sub076_l1:
0EE1 C1           pop  bc     
0EE2 F1           pop  af     
0EE3 22 28 40     ld   (DATA05),hl 	; 4028h
0EE6 .sub076_l2:
0EE6 47           ld   b,a    
0EE7 13           inc  de     
0EE8 .sub076_l3:
0EE8 D5           push de     
0EE9 ED 5B 18 40  ld   de,(ADDR_END_OF_BASIC_PRG) 	; 4018h
0EED .sub076_loop1:
0EED 13           inc  de     
0EEE .sub076_loop2:
0EEE E7           rst  20h    
0EEF 28 1F        jr   z,.sub076_l6 	; 0F10h
0EF1 6F           ld   l,a    
0EF2 E7           rst  20h    
0EF3 67           ld   h,a    
0EF4 A7           and  a      
0EF5 ED 42        sbc  hl,bc  
0EF7 28 2E        jr   z,.sub076_l7 	; 0F27h
0EF9 09           add  hl,bc  
0EFA 00           nop         
0EFB CB 74        bit  6,h    
0EFD 20 08        jr   nz,.sub076_l4 	; 0F07h
0EFF E7           rst  20h    
0F00 6F           ld   l,a    
0F01 E7           rst  20h    
0F02 67           ld   h,a    
0F03 19           add  hl,de  
0F04 EB           ex   de,hl  
0F05 18 E7        jr   .sub076_loop2 	; 0EEEh
0F07 .sub076_l4:
0F07 CB 6D        bit  5,l    
0F09 20 01        jr   nz,.sub076_l5 	; 0F0Ch
0F0B 13           inc  de     
0F0C .sub076_l5:
0F0C 13           inc  de     
0F0D 13           inc  de     
0F0E 18 DD        jr   .sub076_loop1 	; 0EEDh
0F10 .sub076_l6:
0F10 D1           pop  de     
0F11 A7           and  a      
0F12 CB 70        bit  6,b    
0F14 C9           ret         


0F15 00           defb 00h    	; 0
0F16 00           defb 00h    	; 0
0F17 00           defb 00h    	; 0
0F18 00           defb 00h    	; 0
0F19 00           defb 00h    	; 0
0F1A 2A           defb 2Ah    	; 42, '*'
0F1B 28           defb 28h    	; 40, '('
0F1C 40           defb 40h    	; 64, '@'
0F1D 3E           defb 3Eh    	; 62, '>'
0F1E 0A           defb 0Ah    	; 10
0F1F BC           defb BCh    	; 188,  -68
0F20 38           defb 38h    	; 56, '8'
0F21 01           defb 01h    	; 1
0F22 BD           defb BDh    	; 189,  -67


0F23 .sub077_loop1:
0F23 DA 78 15     jp   c,LBL09 	; 1578h
0F26 C9           ret         


0F27 .sub076_l7:
0F27 EB           ex   de,hl  
0F28 D1           pop  de     
0F29 37           scf         
0F2A CB 70        bit  6,b    
0F2C C0           ret  nz     
0F2D 23           inc  hl     
0F2E 23           inc  hl     


; Subroutine: Size=73, CC=8.
; Called by: SUB082[1046h].
; Calls: CHECK_FOR_60h, LBL09.
0F2F SUB077:
0F2F D5           push de     
0F30 EB           ex   de,hl  
0F31 E7           rst  20h    
0F32 2A 28 40     ld   hl,(DATA05) 	; 4028h
0F35 BD           cp   l      
0F36 38 EB        jr   c,.sub077_loop1 	; 0F23h
0F38 08           ex   af,af' 
0F39 1A           ld   a,(de) 
0F3A 13           inc  de     
0F3B BC           cp   h      
0F3C 38 E5        jr   c,.sub077_loop1 	; 0F23h
0F3E 7D           ld   a,l    
0F3F 08           ex   af,af' 
0F40 C5           push bc     
0F41 4C           ld   c,h    
0F42 21 00 00     ld   hl,0000h 	; 0
0F45 44           ld   b,h    
0F46 A7           and  a      
0F47 28 0E        jr   z,.sub077_l2 	; 0F57h
0F49 37           scf         
0F4A .sub077_loop2:
0F4A CB 17        rl   a      
0F4C 28 08        jr   z,.sub077_l1 	; 0F56h
0F4E 08           ex   af,af' 
0F4F 29           add  hl,hl  
0F50 08           ex   af,af' 
0F51 30 F7        jr   nc,.sub077_loop2 	; 0F4Ah
0F53 09           add  hl,bc  
0F54 18 F4        jr   .sub077_loop2 	; 0F4Ah
0F56 .sub077_l1:
0F56 09           add  hl,bc  
0F57 .sub077_l2:
0F57 08           ex   af,af' 
0F58 4F           ld   c,a    
0F59 09           add  hl,bc  
0F5A C1           pop  bc     
0F5B C5           push bc     
0F5C CB 69        bit  5,c    
0F5E 44           ld   b,h    
0F5F 4D           ld   c,l    
0F60 20 01        jr   nz,.sub077_l3 	; 0F63h
0F62 09           add  hl,bc  
0F63 .sub077_l3:
0F63 09           add  hl,bc  
0F64 09           add  hl,bc  
0F65 19           add  hl,de  
0F66 C1           pop  bc     
0F67 D1           pop  de     
0F68 37           scf         
0F69 C9           ret         


; Subroutine: Size=11, CC=1.
; Called by: SUB080[0F78h], SUB081[0F7Fh].
; Calls: -
0F6A SUB078:
0F6A 2A 1C 40     ld   hl,(ADDR_END_OF_STRINGS) 	; 401Ch
0F6D 09           add  hl,bc  
0F6E 11 50 00     ld   de,0050h 	; 80
0F71 19           add  hl,de  
0F72 ED 72        sbc  hl,sp  
0F74 C9           ret         


; Subroutine: Size=3, CC=1.
; Called by: TOKENIZER[0D36h], SUB116[1780h].
; Calls: SUB080.
0F75 SUB079:
0F75 01 00 00     ld   bc,0000h 	; 0


; Subroutine: Size=7, CC=2.
; Called by: SUB082[0FE2h], SUB079[0F75h].
; Calls: SUB078, SUB081, SUB117.
0F78 SUB080:
0F78 CD 6A 0F     call SUB078 	; 0F6Ah
0F7B D8           ret  c      
0F7C CD 00 18     call SUB117 	; 1800h


; Subroutine: Size=17, CC=2.
; Called by: SUB087[10D5h], SUB097[13D5h], SUB100[14ACh], SUB080[0F7Ch].
; Calls: SUB078, LBL05.
0F7F SUB081:
0F7F CD 6A 0F     call SUB078 	; 0F6Ah
0F82 D2 60 15     jp   nc,LBL05 	; 1560h
0F85 C9           ret         


0F86 CD           defb CDh    	; 205,  -51
0F87 6E           defb 6Eh    	; 110, 'n'
0F88 0F           defb 0Fh    	; 15
0F89 18           defb 18h    	; 24
0F8A F7           defb F7h    	; 247,   -9


; Subroutine: Size=182, CC=10.
; Called by: SUB062[0DA1h].
; Calls: SUB059, SUB076, SUB077, SUB080, SUB085, LBL05.
0F8B SUB082:
0F8B CD A8 0E     call SUB076 	; 0EA8h
0F8E 18 07        jr   .sub082_l1 	; 0F97h


; Subroutine: Size=7, CC=1.
; Called by: SUB108[15A3h].
; Calls: -
0F90 SUB083:
0F90 22 04 40     ld   (VECT_CH_OUTPUT),hl 	; 4004h
0F93 22 5F 40     ld   (DATA20),hl 	; 405Fh
0F96 C9           ret         


0F97 .sub082_l1:
0F97 D8           ret  c      
0F98 D5           push de     
0F99 21 01 00     ld   hl,0001h 	; 1
0F9C CB 70        bit  6,b    
0F9E 20 2B        jr   nz,.sub082_l4 	; 0FCBh
0FA0 ED 5B 28 40  ld   de,(DATA05) 	; 4028h
0FA4 18 0B        jr   .sub082_l2 	; 0FB1h


; Subroutine: Size=6, CC=1.
; Called by: SUB016[0360h].
; Calls: READ_KEYB, WAIT_FOR_SYNC.
0FA6 SUB084:
0FA6 CD F6 00     call WAIT_FOR_SYNC 	; 00F6h
0FA9 C3 85 00     jp   READ_KEYB 	; 0085h


0FAC 00           defb 00h    	; 0
0FAD 00           defb 00h    	; 0
0FAE 00           defb 00h    	; 0
0FAF 00           defb 00h    	; 0
0FB0 00           defb 00h    	; 0


0FB1 .sub082_l2:
0FB1 7A           ld   a,d    
0FB2 16 00        ld   d,00h  	; 0
0FB4 13           inc  de     
0FB5 ED 62        sbc  hl,hl  
0FB7 37           scf         
0FB8 .sub082_loop:
0FB8 CB 17        rl   a      
0FBA 28 08        jr   z,.sub082_l3 	; 0FC4h
0FBC 08           ex   af,af' 
0FBD 29           add  hl,hl  
0FBE 08           ex   af,af' 
0FBF 30 F7        jr   nc,.sub082_loop 	; 0FB8h
0FC1 19           add  hl,de  
0FC2 18 F4        jr   .sub082_loop 	; 0FB8h
0FC4 .sub082_l3:
0FC4 3E 30        ld   a,30h  	; 48, '0'
0FC6 BC           cp   h      
0FC7 DA 60 15     jp   c,LBL05 	; 1560h
0FCA 19           add  hl,de  
0FCB .sub082_l4:
0FCB 54           ld   d,h    
0FCC 5D           ld   e,l    
0FCD 29           add  hl,hl  
0FCE CB 69        bit  5,c    
0FD0 20 01        jr   nz,.sub082_l5 	; 0FD3h
0FD2 19           add  hl,de  
0FD3 .sub082_l5:
0FD3 19           add  hl,de  
0FD4 23           inc  hl     
0FD5 23           inc  hl     
0FD6 CB 70        bit  6,b    
0FD8 20 04        jr   nz,.sub082_l6 	; 0FDEh
0FDA 23           inc  hl     
0FDB 23           inc  hl     
0FDC 23           inc  hl     
0FDD 23           inc  hl     
0FDE .sub082_l6:
0FDE C5           push bc     
0FDF E5           push hl     
0FE0 44           ld   b,h    
0FE1 4D           ld   c,l    
0FE2 CD 78 0F     call SUB080 	; 0F78h
0FE5 2A 1C 40     ld   hl,(ADDR_END_OF_STRINGS) 	; 401Ch
0FE8 54           ld   d,h    
0FE9 5D           ld   e,l    
0FEA ED 4B 1A 40  ld   bc,(ADDR_END_OF_VARIABLES) 	; 401Ah
0FEE A7           and  a      
0FEF ED 42        sbc  hl,bc  
0FF1 23           inc  hl     
0FF2 44           ld   b,h    
0FF3 4D           ld   c,l    
0FF4 E1           pop  hl     
0FF5 E5           push hl     
0FF6 19           add  hl,de  
0FF7 CD 72 0D     call SUB059 	; 0D72h
0FFA EB           ex   de,hl  
0FFB ED B8        lddr        
0FFD 13           inc  de     
0FFE 23           inc  hl     
0FFF ED 53 1A 40  ld   (ADDR_END_OF_VARIABLES),de 	; 401Ah
1003 C1           pop  bc     
1004 C5           push bc     
1005 E5           push hl     
1006 0B           dec  bc     
1007 54           ld   d,h    
1008 5D           ld   e,l    
1009 13           inc  de     
100A 36 00        ld   (hl),00h 	; 0
100C ED B0        ldir        
100E E1           pop  hl     
100F D1           pop  de     
1010 C1           pop  bc     
1011 71           ld   (hl),c 
1012 23           inc  hl     
1013 70           ld   (hl),b 
1014 23           inc  hl     
1015 00           nop         
1016 CB 70        bit  6,b    
1018 20 1F        jr   nz,.sub082_l7 	; 1039h
101A D5           push de     
101B 1B           dec  de     
101C 1B           dec  de     
101D 1B           dec  de     
101E 1B           dec  de     
101F 73           ld   (hl),e 
1020 23           inc  hl     
1021 72           ld   (hl),d 
1022 23           inc  hl     
1023 ED 5B 28 40  ld   de,(DATA05) 	; 4028h
1027 00           nop         
1028 00           nop         
1029 00           nop         
102A 00           nop         
102B 00           nop         
102C 00           nop         
102D 00           nop         
102E 00           nop         
102F 00           nop         
1030 00           nop         
1031 00           nop         
1032 00           nop         
1033 00           nop         
1034 73           ld   (hl),e 
1035 23           inc  hl     
1036 72           ld   (hl),d 
1037 23           inc  hl     
1038 D1           pop  de     
1039 .sub082_l7:
1039 C5           push bc     
103A E5           push hl     
103B CD 49 10     call SUB085 	; 1049h
103E E1           pop  hl     
103F C1           pop  bc     
1040 D1           pop  de     
1041 CB 70        bit  6,b    
1043 C0           ret  nz     
1044 2B           dec  hl     
1045 2B           dec  hl     
1046 C3 2F 0F     jp   SUB077 	; 0F2Fh


; Subroutine: Size=7, CC=1.
; Called by: SUB082[103Bh].
; Calls: SUB086.
1049 SUB085:
1049 ED 4B 18 40  ld   bc,(ADDR_END_OF_BASIC_PRG) 	; 4018h
104D C5           push bc     
104E D9           exx         
104F D1           pop  de     


; Subroutine: Size=72, CC=7.
; Called by: SUB101[14E4h], SUB085[104Fh].
; Calls: CHECK_FOR_60h.
1050 SUB086:
1050 1B           dec  de     
1051 .sub086_loop1:
1051 13           inc  de     
1052 13           inc  de     
1053 .sub086_loop2:
1053 E7           rst  20h    
1054 C8           ret  z      
1055 30 0E        jr   nc,.sub086_l1 	; 1065h
1057 E7           rst  20h    
1058 4F           ld   c,a    
1059 E7           rst  20h    
105A 6F           ld   l,a    
105B E7           rst  20h    
105C 67           ld   h,a    
105D CB 71        bit  6,c    
105F 20 F0        jr   nz,.sub086_loop1 	; 1051h
1061 19           add  hl,de  
1062 EB           ex   de,hl  
1063 18 EE        jr   .sub086_loop2 	; 1053h
1065 .sub086_l1:
1065 E7           rst  20h    
1066 CB 77        bit  6,a    
1068 26 00        ld   h,00h  	; 0
106A 20 08        jr   nz,.sub086_loop3 	; 1074h
106C E7           rst  20h    
106D 6F           ld   l,a    
106E E7           rst  20h    
106F 67           ld   h,a    
1070 2B           dec  hl     
1071 19           add  hl,de  
1072 13           inc  de     
1073 13           inc  de     
1074 .sub086_loop3:
1074 13           inc  de     
1075 E7           rst  20h    
1076 4F           ld   c,a    
1077 E7           rst  20h    
1078 47           ld   b,a    
1079 C5           push bc     
107A D9           exx         
107B E1           pop  hl     
107C A7           and  a      
107D ED 42        sbc  hl,bc  
107F 09           add  hl,bc  
1080 D9           exx         
1081 38 0D        jr   c,.sub086_l2 	; 1090h
1083 D9           exx         
1084 19           add  hl,de  
1085 E5           push hl     
1086 D9           exx         
1087 C1           pop  bc     
1088 1B           dec  de     
1089 1B           dec  de     
108A 79           ld   a,c    
108B 12           ld   (de),a 
108C 13           inc  de     
108D 78           ld   a,b    
108E 12           ld   (de),a 
108F 13           inc  de     
1090 .sub086_l2:
1090 A7           and  a      
1091 ED 52        sbc  hl,de  
1093 19           add  hl,de  
1094 30 DE        jr   nc,.sub086_loop3 	; 1074h
1096 18 BB        jr   .sub086_loop2 	; 1053h


1098 37           defb 37h    	; 55, '7'
1099 C3           defb C3h    	; 195,  -61
109A 9A           defb 9Ah    	; 154, -102
109B 0C           defb 0Ch    	; 12
109C 06           defb 06h    	; 6
109D 00           defb 00h    	; 0
109E 41           defb 41h    	; 65, 'A'
109F 42           defb 42h    	; 66, 'B'
10A0 43           defb 43h    	; 67, 'C'
10A1 44           defb 44h    	; 68, 'D'
10A2 45           defb 45h    	; 69, 'E'
10A3 46           defb 46h    	; 70, 'F'
10A4 47           defb 47h    	; 71, 'G'
10A5 88           defb 88h    	; 136, -120
10A6 59           defb 59h    	; 89, 'Y'
10A7 5A           defb 5Ah    	; 90, 'Z'
10A8 6B           defb 6Bh    	; 107, 'k'
10A9 6C           defb 6Ch    	; 108, 'l'
10AA 2D           defb 2Dh    	; 45, '-'
10AB 1E           defb 1Eh    	; 30
10AC 3F           defb 3Fh    	; 63, '?'
10AD 86           defb 86h    	; 134, -122
10AE 0E           defb 0Eh    	; 14
10AF 63           defb 63h    	; 99, 'c'
10B0 0C           defb 0Ch    	; 12
10B1 6D           defb 6Dh    	; 109, 'm'
10B2 0C           defb 0Ch    	; 12
10B3 72           defb 72h    	; 114, 'r'
10B4 0C           defb 0Ch    	; 12
10B5 68           defb 68h    	; 104, 'h'
10B6 0C           defb 0Ch    	; 12
10B7 7C           defb 7Ch    	; 124, '|'
10B8 0C           defb 0Ch    	; 12
10B9 77           defb 77h    	; 119, 'w'
10BA 0C           defb 0Ch    	; 12
10BB 98           defb 98h    	; 152, -104
10BC 10           defb 10h    	; 16
10BD 49           defb 49h    	; 73, 'I'
10BE 0C           defb 0Ch    	; 12
10BF 1B           defb 1Bh    	; 27
10C0 07           defb 07h    	; 7
10C1 13           defb 13h    	; 19
10C2 07           defb 07h    	; 7
10C3 CB           defb CBh    	; 203,  -53
10C4 07           defb 07h    	; 7
10C5 A9           defb A9h    	; 169,  -87
10C6 06           defb 06h    	; 6
10C7 23           defb 23h    	; 35, '#'
10C8 0A           defb 0Ah    	; 10
10C9 18           defb 18h    	; 24
10CA 0A           defb 0Ah    	; 10
10CB 8C           defb 8Ch    	; 140, -116
10CC 0E           defb 0Eh    	; 14


; Subroutine: Size=3, CC=1.
; Called by: CALL[195Fh], SUB115[1743h], SUB136[1FC9h], SUB025[04D9h], SUB062[0DACh].
; Calls: SUB087, SUB135.
10CD BASIC_INTERPRETER:
10CD CD B9 1F     call SUB135 	; 1FB9h


; Subroutine: Size=77, CC=9.
; Called by: SUB088[1128h], SUB090[11CDh], SUB091[126Bh], BASIC_INTERPRETER[10CDh].
; Calls: CHECK_FOR_60h, SUB081, SUB088, SUB089, PRINT_SN_ERROR.
10D0 SUB087:
10D0 C5           push bc     
10D1 D5           push de     
10D2 01 00 00     ld   bc,0000h 	; 0
10D5 CD 7F 0F     call SUB081 	; 0F7Fh
10D8 D1           pop  de     
10D9 CD 93 11     call SUB089 	; 1193h
10DC 0E 00        ld   c,00h  	; 0
10DE .sub087_loop:
10DE E7           rst  20h    
10DF D6 85        sub  85h    	; 133, -123
10E1 38 0F        jr   c,.sub087_l1 	; 10F2h
10E3 FE 03        cp   03h    	; 3
10E5 30 0B        jr   nc,.sub087_l1 	; 10F2h
10E7 FE 01        cp   01h    	; 1
10E9 17           rla         
10EA A9           xor  c      
10EB B9           cp   c      
10EC 4F           ld   c,a    
10ED DA 70 15     jp   c,PRINT_SN_ERROR 	; 1570h
10F0 18 EC        jr   .sub087_loop 	; 10DEh
10F2 .sub087_l1:
10F2 0C           inc  c      
10F3 0D           dec  c      
10F4 20 13        jr   nz,.sub087_l2 	; 1109h
10F6 C6 05        add  a,05h  	; 5
10F8 FA 09 11     jp   m,.sub087_l2 	; 1109h
10FB FE 0D        cp   0Dh    	; 13
10FD 28 0C        jr   z,.sub087_l3 	; 110Bh
10FF FE 0E        cp   0Eh    	; 14
1101 28 08        jr   z,.sub087_l3 	; 110Bh
1103 C6 08        add  a,08h  	; 8
1105 FE 0D        cp   0Dh    	; 13
1107 38 02        jr   c,.sub087_l3 	; 110Bh
1109 .sub087_l2:
1109 1B           dec  de     
110A 79           ld   a,c    
110B .sub087_l3:
110B C6 9D        add  a,9Dh  	; 157,  -99
110D 00           nop         
110E 00           nop         
110F 6F           ld   l,a    
1110 26 10        ld   h,10h  	; 16
1112 4E           ld   c,(hl) 


; Subroutine: Size=77, CC=8.
; Called by: SUB097[13F6h], SUB087[1112h].
; Calls: SUB087, SUB097, LBL08.
1113 SUB088:
1113 E1           pop  hl     
1114 7D           ld   a,l    
1115 B1           or   c      
1116 C8           ret  z      
1117 79           ld   a,c    
1118 E6 F0        and  F0h    	; 240,  -16
111A BD           cp   l      
111B 38 0D        jr   c,.sub088_l1 	; 112Ah
111D 28 0B        jr   z,.sub088_l1 	; 112Ah
111F E5           push hl     
1120 2A 1E 40     ld   hl,(VAR_P) 	; 401Eh
1123 E5           push hl     
1124 2A 20 40     ld   hl,(DATA03) 	; 4020h
1127 E5           push hl     
1128 18 A6        jr   SUB087 	; 10D0h
112A .sub088_l1:
112A 78           ld   a,b    
112B BC           cp   h      
112C C2 74 15     jp   nz,LBL08 	; 1574h
112F A7           and  a      
1130 7D           ld   a,l    
1131 28 08        jr   z,.sub088_l2 	; 113Bh
1133 C3 C1 13     jp   SUB097 	; 13C1h


1136 79           defb 79h    	; 121, 'y'
1137 06           defb 06h    	; 6
1138 C3           defb C3h    	; 195,  -61
1139 7C           defb 7Ch    	; 124, '|'
113A 03           defb 03h    	; 3


113B .sub088_l2:
113B FE 3F        cp   3Fh    	; 63, '?'
113D 28 08        jr   z,.sub088_l3 	; 1147h
113F FE 60        cp   60h    	; 96, '`'
1141 28 04        jr   z,.sub088_l3 	; 1147h
1143 D9           exx         
1144 E1           pop  hl     
1145 D1           pop  de     
1146 D9           exx         
1147 .sub088_l3:
1147 D5           push de     
1148 C5           push bc     
1149 E6 0F        and  0Fh    	; 15
114B 17           rla         
114C C6 AD        add  a,ADh  	; 173,  -83
114E 6F           ld   l,a    
114F 26 10        ld   h,10h  	; 16
1151 4E           ld   c,(hl) 
1152 23           inc  hl     
1153 46           ld   b,(hl) 
1154 11 5B 11     ld   de,115Bh 	; 4443
1157 D5           push de     
1158 C5           push bc     
1159 D9           exx         
115A C9           ret         


115B C1           defb C1h    	; 193,  -63
115C D1           defb D1h    	; 209,  -47
115D 18           defb 18h    	; 24
115E B4           defb B4h    	; 180,  -76
115F C0           defb C0h    	; 192,  -64
1160 12           defb 12h    	; 18
1161 2A           defb 2Ah    	; 42, '*'
1162 13           defb 13h    	; 19
1163 35           defb 35h    	; 53, '5'
1164 13           defb 13h    	; 19
1165 F1           defb F1h    	; 241,  -15
1166 12           defb 12h    	; 18
1167 49           defb 49h    	; 73, 'I'
1168 13           defb 13h    	; 19
1169 74           defb 74h    	; 116, 't'
116A 09           defb 09h    	; 9
116B 6B           defb 6Bh    	; 107, 'k'
116C 13           defb 13h    	; 19
116D 7C           defb 7Ch    	; 124, '|'
116E 13           defb 13h    	; 19
116F 94           defb 94h    	; 148, -108
1170 09           defb 09h    	; 9
1171 98           defb 98h    	; 152, -104
1172 09           defb 09h    	; 9
1173 68           defb 68h    	; 104, 'h'
1174 0B           defb 0Bh    	; 11
1175 B7           defb B7h    	; 183,  -73
1176 1E           defb 1Eh    	; 30
1177 3C           defb 3Ch    	; 60, '<'
1178 0C           defb 0Ch    	; 12
1179 AA           defb AAh    	; 170,  -86
117A 09           defb 09h    	; 9
117B 2C           defb 2Ch    	; 44, ','
117C 0B           defb 0Bh    	; 11
117D 78           defb 78h    	; 120, 'x'
117E 0B           defb 0Bh    	; 11
117F 3B           defb 3Bh    	; 59, ';'
1180 0A           defb 0Ah    	; 10
1181 93           defb 93h    	; 147, -109
1182 13           defb 13h    	; 19
1183 A8           defb A8h    	; 168,  -88
1184 0A           defb 0Ah    	; 10
1185 66           defb 66h    	; 102, 'f'
1186 1E           defb 1Eh    	; 30
1187 A4           defb A4h    	; 164,  -92
1188 0B           defb 0Bh    	; 11
1189 EB           defb EBh    	; 235,  -21
118A 0B           defb 0Bh    	; 11
118B 79           defb 79h    	; 121, 'y'
118C 06           defb 06h    	; 6
118D 79           defb 79h    	; 121, 'y'
118E 06           defb 06h    	; 6
118F 79           defb 79h    	; 121, 'y'
1190 06           defb 06h    	; 6
1191 7E           defb 7Eh    	; 126, '~'
1192 09           defb 09h    	; 9


; Subroutine: Size=135, CC=18.
; Called by: SUB087[10D9h].
; Calls: CHECK_FOR_60h, SUB034, SUB050, SUB053, SUB076, SUB093, PRINT_SN_ERROR, LBL08, SUB124.
1193 SUB089:
1193 E7           rst  20h    
1194 FE 81        cp   81h    	; 129, -127
1196 28 FB        jr   z,SUB089 	; 1193h
1198 CB 7F        bit  7,a    
119A C2 A7 1A     jp   nz,SUB124 	; 1AA7h
119D FE 2E        cp   2Eh    	; 46, '.'
119F 28 4E        jr   z,.sub089_l4 	; 11EFh
11A1 FE 28        cp   28h    	; 40, '('
11A3 CA 78 12     jp   z,SUB093 	; 1278h
11A6 FE 22        cp   22h    	; 34, '"'
11A8 20 3C        jr   nz,.sub089_l3 	; 11E6h
11AA FD CB 32 66  bit  4,(iy+50) 
11AE C2 74 15     jp   nz,LBL08 	; 1574h
11B1 62           ld   h,d    
11B2 6B           ld   l,e    
11B3 01 01 FF     ld   bc,FF01h 	; 65281,   -255
11B6 .sub089_loop1:
11B6 E7           rst  20h    
11B7 28 25        jr   z,.sub089_l1 	; 11DEh
11B9 FE 22        cp   22h    	; 34, '"'
11BB 28 22        jr   z,.sub089_l2 	; 11DFh
11BD 0C           inc  c      
11BE 18 F6        jr   .sub089_loop1 	; 11B6h


11C0 18           defb 18h    	; 24
11C1 1C           defb 1Ch    	; 28
11C2 B2           defb B2h    	; 178,  -78
11C3 16           defb 16h    	; 22
11C4 67           defb 67h    	; 103, 'g'
11C5 01           defb 01h    	; 1
11C6 81           defb 81h    	; 129, -127
11C7 15           defb 15h    	; 21
11C8 3C           defb 3Ch    	; 60, '<'
11C9 1C           defb 1Ch    	; 28


; Subroutine: Size=6, CC=1.
; Called by: SUB096[12DBh], SUB093[1279h].
; Calls: SUB087.
11CA SUB090:
11CA 01 00 00     ld   bc,0000h 	; 0
11CD C3 D0 10     jp   SUB087 	; 10D0h


11D0 7C           defb 7Ch    	; 124, '|'
11D1 FD           defb FDh    	; 253,   -3
11D2 CB           defb CBh    	; 203,  -53
11D3 0A           defb 0Ah    	; 10
11D4 46           defb 46h    	; 70, 'F'
11D5 20           defb 20h    	; 32, ' '
11D6 01           defb 01h    	; 1
11D7 87           defb 87h    	; 135, -121
11D8 E6           defb E6h    	; 230,  -26
11D9 3F           defb 3Fh    	; 63, '?'
11DA C9           defb C9h    	; 201,  -55
11DB 00           defb 00h    	; 0
11DC 00           defb 00h    	; 0
11DD 00           defb 00h    	; 0


11DE .sub089_l1:
11DE 1B           dec  de     
11DF .sub089_l2:
11DF 0D           dec  c      
11E0 FD 71 1E     ld   (iy+30),c 
11E3 C3 75 06     jp   SUB034 	; 0675h
11E6 .sub089_l3:
11E6 FE 30        cp   30h    	; 48, '0'
11E8 .sub089_loop2:
11E8 DA 70 15     jp   c,PRINT_SN_ERROR 	; 1570h
11EB FE 3A        cp   3Ah    	; 58, ':'
11ED 30 07        jr   nc,.sub089_l5 	; 11F6h
11EF .sub089_l4:
11EF 1B           dec  de     
11F0 CD ED 07     call SUB050 	; 07EDh
11F3 06 00        ld   b,00h  	; 0
11F5 C9           ret         
11F6 .sub089_l5:
11F6 FE 41        cp   41h    	; 65, 'A'
11F8 38 EE        jr   c,.sub089_loop2 	; 11E8h
11FA FE 60        cp   60h    	; 96, '`'
11FC CA 70 15     jp   z,PRINT_SN_ERROR 	; 1570h
11FF FD CB 32 66  bit  4,(iy+50) 
1203 28 03        jr   z,.sub089_l6 	; 1208h
1205 D2 74 15     jp   nc,LBL08 	; 1574h
1208 .sub089_l6:
1208 1B           dec  de     
1209 CD A8 0E     call SUB076 	; 0EA8h
120C CB 69        bit  5,c    
120E 06 00        ld   b,00h  	; 0
1210 28 01        jr   z,.sub089_l7 	; 1213h
1212 05           dec  b      
1213 .sub089_l7:
1213 D2 5E 0B     jp   nc,SUB053 	; 0B5Eh
1216 C5           push bc     
1217 20 02        jr   nz,.sub089_l8 	; 121Bh
1219 46           ld   b,(hl) 
121A 23           inc  hl     
121B .sub089_l8:
121B 4E           ld   c,(hl) 
121C 23           inc  hl     
121D 7E           ld   a,(hl) 
121E 23           inc  hl     
121F 66           ld   h,(hl) 
1220 6F           ld   l,a    
1221 ED 43 1E 40  ld   (VAR_P),bc 	; 401Eh
1225 22 20 40     ld   (DATA03),hl 	; 4020h
1228 C1           pop  bc     
1229 C9           ret         


; Subroutine: Size=80, CC=8.
; Called by: SUB124[1AA9h].
; Calls: SUB031, SUB034, SUB087, PRINT_SN_ERROR, SUB114, SUB121.
122A SUB091:
122A FE 88        cp   88h    	; 136, -120
122C 20 0C        jr   nz,.sub091_l1 	; 123Ah
122E 21 49 82     ld   hl,8249h 	; 33353, -32183
1231 22 1E 40     ld   (VAR_P),hl 	; 401Eh
1234 21 DB 0F     ld   hl,0FDBh 	; 4059
1237 C3 75 06     jp   SUB034 	; 0675h
123A .sub091_l1:
123A FE 8A        cp   8Ah    	; 138, -118
123C 20 0B        jr   nz,.sub091_l2 	; 1249h
123E FD 6E 4F     ld   l,(iy+79) 


; Subroutine: Size=8, CC=1.
; Called by: SUB114[1723h].
; Calls: SUB030.
1241 SUB092:
1241 26 00        ld   h,00h  	; 0
1243 D5           push de     
1244 CD 3A 06     call SUB030 	; 063Ah
1247 D1           pop  de     
1248 C9           ret         


1249 .sub091_l2:
1249 FE 8B        cp   8Bh    	; 139, -117
124B 20 0B        jr   nz,.sub091_l3 	; 1258h
124D 2A 16 40     ld   hl,(ADDR_END_OF_RAM) 	; 4016h
1250 D5           push de     
1251 97           sub  a      
1252 47           ld   b,a    
1253 CD 45 06     call SUB031 	; 0645h
1256 D1           pop  de     
1257 C9           ret         
1258 .sub091_l3:
1258 CD 18 17     call SUB114 	; 1718h
125B FE 82        cp   82h    	; 130, -126
125D 28 06        jr   z,.sub091_l4 	; 1265h
125F FE AB        cp   ABh    	; 171,  -85
1261 20 0B        jr   nz,.sub091_l5 	; 126Eh
1263 3E 61        ld   a,61h  	; 97, 'a'
1265 .sub091_l4:
1265 E1           pop  hl     
1266 C6 DE        add  a,DEh  	; 222,  -34
1268 06 00        ld   b,00h  	; 0
126A 4F           ld   c,a    
126B C3 D0 10     jp   SUB087 	; 10D0h
126E .sub091_l5:
126E FE 8C        cp   8Ch    	; 140, -116
1270 CA A8 19     jp   z,SUB121 	; 19A8h
1273 D6 AF        sub  AFh    	; 175,  -81
1275 DA 70 15     jp   c,PRINT_SN_ERROR 	; 1570h


; Subroutine: Size=79, CC=10.
; Called by: SUB089[11A3h].
; Calls: CHECK_FOR_60h, SUB043, SUB090, SUB096, PRINT_SN_ERROR, LBL08.
1278 SUB093:
1278 F5           push af     
1279 CD CA 11     call SUB090 	; 11CAh
127C F1           pop  af     
127D FE 28        cp   28h    	; 40, '('
127F 28 39        jr   z,.sub093_l3 	; 12BAh
1281 D5           push de     
1282 A7           and  a      
1283 28 10        jr   z,.sub093_l1 	; 1295h
1285 FE 03        cp   03h    	; 3
1287 28 0C        jr   z,.sub093_l1 	; 1295h
1289 FE 05        cp   05h    	; 5
128B 28 08        jr   z,.sub093_l1 	; 1295h
128D FE 11        cp   11h    	; 17
128F 28 05        jr   z,.sub093_l2 	; 1296h
1291 FE 08        cp   08h    	; 8
1293 38 01        jr   c,.sub093_l2 	; 1296h
1295 .sub093_l1:
1295 05           dec  b      
1296 .sub093_l2:
1296 04           inc  b      
1297 C2 74 15     jp   nz,LBL08 	; 1574h
129A A7           and  a      
129B 17           rla         
129C C6 5F        add  a,5Fh  	; 95, '_'
129E 6F           ld   l,a    
129F 26 11        ld   h,11h  	; 17
12A1 01 B0 12     ld   bc,12B0h 	; 4784
12A4 C5           push bc     
12A5 4E           ld   c,(hl) 
12A6 23           inc  hl     
12A7 46           ld   b,(hl) 
12A8 C5           push bc     
12A9 FD CB 32 B6  res  6,(iy+50) 
12AD C3 26 07     jp   SUB043 	; 0726h


12B0 06           defb 06h    	; 6
12B1 00           defb 00h    	; 0
12B2 FD           defb FDh    	; 253,   -3
12B3 CB           defb CBh    	; 203,  -53
12B4 32           defb 32h    	; 50, '2'
12B5 76           defb 76h    	; 118, 'v'
12B6 28           defb 28h    	; 40, '('
12B7 01           defb 01h    	; 1
12B8 05           defb 05h    	; 5
12B9 D1           defb D1h    	; 209,  -47


12BA .sub093_l3:
12BA E7           rst  20h    
12BB FE 29        cp   29h    	; 41, ')'
12BD C8           ret  z      
12BE 18 18        jr   .sub093_l4 	; 12D8h


12C0 CD           defb CDh    	; 205,  -51
12C1 74           defb 74h    	; 116, 't'
12C2 08           defb 08h    	; 8
12C3 ED           defb EDh    	; 237,  -19
12C4 43           defb 43h    	; 67, 'C'
12C5 2C           defb 2Ch    	; 44, ','
12C6 40           defb 40h    	; 64, '@'
12C7 C9           defb C9h    	; 201,  -55


; Subroutine: Size=13, CC=1.
; Called by: LBL02[132Ah].
; Calls: SUB095.
12C8 SUB094:
12C8 C1           pop  bc     
12C9 E1           pop  hl     
12CA D1           pop  de     
12CB E5           push hl     
12CC 2A 1E 40     ld   hl,(VAR_P) 	; 401Eh
12CF E5           push hl     
12D0 2A 20 40     ld   hl,(DATA03) 	; 4020h
12D3 E5           push hl     
12D4 C5           push bc     


; Subroutine: Size=16, CC=2.
; Called by: SUB025[04C2h], SUB076[0ED5h], SUB121[1994h], SUB094[12D4h].
; Calls: CHECK_FOR_60h.
12D5 SUB095:
12D5 E7           rst  20h    
12D6 FE 2C        cp   2Ch    	; 44, ','


12D8 .sub093_l4:
12D8 C2 70 15     jp   nz,PRINT_SN_ERROR 	; 1570h


; Subroutine: Size=32, CC=2.
; Called by: LBL01[1307h], SUB025[04A7h], SUB076[0EC9h], SUB093[12D8h].
; Calls: SUB043, SUB052, SUB090, LBL08.
12DB SUB096:
12DB CD CA 11     call SUB090 	; 11CAh
12DE 04           inc  b      
12DF CA 74 15     jp   z,LBL08 	; 1574h
12E2 D5           push de     
12E3 CD 26 07     call SUB043 	; 0726h
12E6 CD E6 09     call SUB052 	; 09E6h
12E9 00           nop         
12EA 00           nop         
12EB 00           nop         
12EC 00           nop         
12ED 00           nop         
12EE 7D           ld   a,l    
12EF D1           pop  de     
12F0 C9           ret         


; Label not accessed.
12F1 LBL01:
12F1 CD E6 09     call SUB052 	; 09E6h
12F4 7C           ld   a,h    
12F5 A7           and  a      
12F6 C2 54 15     jp   nz,LBL04 	; 1554h
12F9 7D           ld   a,l    
12FA 0E 00        ld   c,00h  	; 0
12FC E1           pop  hl     
12FD D1           pop  de     
12FE E5           push hl     
12FF 2A 2C 40     ld   hl,(VAR_BASIC_STRING) 	; 402Ch
1302 E5           push hl     
1303 18 07        jr   .lbl01_l 	; 130Ch
1305 .lbl01_loop1:
1305 C5           push bc     
1306 E5           push hl     
1307 CD DB 12     call SUB096 	; 12DBh
130A E1           pop  hl     
130B C1           pop  bc     
130C .lbl01_l:
130C 77           ld   (hl),a 
130D 23           inc  hl     
130E 0C           inc  c      
130F CA 6C 15     jp   z,LBL07 	; 156Ch
1312 E7           rst  20h    
1313 FE 2C        cp   2Ch    	; 44, ','
1315 28 EE        jr   z,.lbl01_loop1 	; 1305h
1317 1B           dec  de     
1318 22 2C 40     ld   (VAR_BASIC_STRING),hl 	; 402Ch
131B E1           pop  hl     
131C .lbl01_loop2:
131C ED 43 1E 40  ld   (VAR_P),bc 	; 401Eh
1320 22 20 40     ld   (DATA03),hl 	; 4020h
1323 E1           pop  hl     
1324 D5           push de     
1325 FD CB 32 F6  set  6,(iy+50) 
1329 E9           jp   (hl)   


; Label not accessed.
132A LBL02:
132A CD C8 12     call SUB094 	; 12C8h
132D E1           pop  hl     
132E C1           pop  bc     
132F B9           cp   c      
1330 30 EA        jr   nc,.lbl01_loop2 	; 131Ch
1332 4F           ld   c,a    
1333 18 E7        jr   .lbl01_loop2 	; 131Ch


1335 CD           defb CDh    	; 205,  -51
1336 C8           defb C8h    	; 200,  -56
1337 12           defb 12h    	; 18
1338 E1           defb E1h    	; 225,  -31
1339 C1           defb C1h    	; 193,  -63
133A B9           defb B9h    	; 185,  -71
133B 30           defb 30h    	; 48, '0'
133C DF           defb DFh    	; 223,  -33
133D F5           defb F5h    	; 245,  -11
133E 91           defb 91h    	; 145, -111
133F ED           defb EDh    	; 237,  -19
1340 44           defb 44h    	; 68, 'D'
1341 4F           defb 4Fh    	; 79, 'O'
1342 06           defb 06h    	; 6
1343 00           defb 00h    	; 0
1344 09           defb 09h    	; 9
1345 F1           defb F1h    	; 241,  -15
1346 4F           defb 4Fh    	; 79, 'O'
1347 18           defb 18h    	; 24
1348 D3           defb D3h    	; 211,  -45
1349 CD           defb CDh    	; 205,  -51
134A C8           defb C8h    	; 200,  -56
134B 12           defb 12h    	; 18
134C F5           defb F5h    	; 245,  -11
134D CD           defb CDh    	; 205,  -51
134E D5           defb D5h    	; 213,  -43
134F 12           defb 12h    	; 18
1350 08           defb 08h    	; 8
1351 F1           defb F1h    	; 241,  -15
1352 E1           defb E1h    	; 225,  -31
1353 C1           defb C1h    	; 193,  -63
1354 A7           defb A7h    	; 167,  -89
1355 28           defb 28h    	; 40, '('
1356 EF           defb EFh    	; 239,  -17
1357 3D           defb 3Dh    	; 61, '='
1358 B9           defb B9h    	; 185,  -71
1359 38           defb 38h    	; 56, '8'
135A 03           defb 03h    	; 3
135B 97           defb 97h    	; 151, -105
135C 18           defb 18h    	; 24
135D E8           defb E8h    	; 232,  -24
135E C5           defb C5h    	; 197,  -59
135F 4F           defb 4Fh    	; 79, 'O'
1360 06           defb 06h    	; 6
1361 00           defb 00h    	; 0
1362 09           defb 09h    	; 9
1363 C1           defb C1h    	; 193,  -63
1364 47           defb 47h    	; 71, 'G'
1365 79           defb 79h    	; 121, 'y'
1366 90           defb 90h    	; 144, -112
1367 4F           defb 4Fh    	; 79, 'O'
1368 08           defb 08h    	; 8
1369 18           defb 18h    	; 24
136A C4           defb C4h    	; 196,  -60
136B 2A           defb 2Ah    	; 42, '*'
136C 20           defb 20h    	; 32, ' '
136D 40           defb 40h    	; 64, '@'
136E 3A           defb 3Ah    	; 58, ':'
136F 1E           defb 1Eh    	; 30
1370 40           defb 40h    	; 64, '@'
1371 A7           defb A7h    	; 167,  -89
1372 CA           defb CAh    	; 202,  -54
1373 54           defb 54h    	; 84, 'T'
1374 15           defb 15h    	; 21
1375 7E           defb 7Eh    	; 126, '~'
1376 6F           defb 6Fh    	; 111, 'o'
1377 26           defb 26h    	; 38, '&'
1378 00           defb 00h    	; 0
1379 C3           defb C3h    	; 195,  -61
137A 3A           defb 3Ah    	; 58, ':'
137B 06           defb 06h    	; 6
137C 3A           defb 3Ah    	; 58, ':'
137D 1E           defb 1Eh    	; 30
137E 40           defb 40h    	; 64, '@'
137F 18           defb 18h    	; 24
1380 F5           defb F5h    	; 245,  -11
1381 CD           defb CDh    	; 205,  -51
1382 04           defb 04h    	; 4
1383 04           defb 04h    	; 4
1384 E7           defb E7h    	; 231,  -25
1385 FE           defb FEh    	; 254,   -2
1386 23           defb 23h    	; 35, '#'
1387 28           defb 28h    	; 40, '('
1388 07           defb 07h    	; 7
1389 1B           defb 1Bh    	; 27
138A 21           defb 21h    	; 33, '!'
138B 22           defb 22h    	; 34, '"'
138C 1C           defb 1Ch    	; 28
138D 22           defb 22h    	; 34, '"'
138E 04           defb 04h    	; 4
138F 40           defb 40h    	; 64, '@'
1390 C3           defb C3h    	; 195,  -61
1391 6E           defb 6Eh    	; 110, 'n'
1392 0E           defb 0Eh    	; 14
1393 3A           defb 3Ah    	; 58, ':'
1394 1E           defb 1Eh    	; 30
1395 40           defb 40h    	; 64, '@'
1396 A7           defb A7h    	; 167,  -89
1397 C3           defb C3h    	; 195,  -61
1398 1A           defb 1Ah    	; 26
1399 1A           defb 1Ah    	; 26
139A 4F           defb 4Fh    	; 79, 'O'
139B 06           defb 06h    	; 6
139C 00           defb 00h    	; 0
139D CD           defb CDh    	; 205,  -51
139E 7F           defb 7Fh    	; 127
139F 0F           defb 0Fh    	; 15
13A0 11           defb 11h    	; 17
13A1 60           defb 60h    	; 96, '`'
13A2 40           defb 40h    	; 64, '@'
13A3 D5           defb D5h    	; 213,  -43
13A4 2A           defb 2Ah    	; 42, '*'
13A5 20           defb 20h    	; 32, ' '
13A6 40           defb 40h    	; 64, '@'
13A7 ED           defb EDh    	; 237,  -19
13A8 B0           defb B0h    	; 176,  -80
13A9 EB           defb EBh    	; 235,  -21
13AA 36           defb 36h    	; 54, '6'
13AB 00           defb 00h    	; 0
13AC D1           defb D1h    	; 209,  -47
13AD 2A           defb 2Ah    	; 42, '*'
13AE 2C           defb 2Ch    	; 44, ','
13AF 40           defb 40h    	; 64, '@'
13B0 E5           defb E5h    	; 229,  -27
13B1 CD           defb CDh    	; 205,  -51
13B2 A9           defb A9h    	; 169,  -87
13B3 0C           defb 0Ch    	; 12
13B4 D1           defb D1h    	; 209,  -47
13B5 FD           defb FDh    	; 253,   -3
13B6 CB           defb CBh    	; 203,  -53
13B7 32           defb 32h    	; 50, '2'
13B8 E6           defb E6h    	; 230,  -26
13B9 CD           defb CDh    	; 205,  -51
13BA CD           defb CDh    	; 205,  -51
13BB 10           defb 10h    	; 16
13BC FD           defb FDh    	; 253,   -3
13BD CB           defb CBh    	; 203,  -53
13BE 32           defb 32h    	; 50, '2'
13BF A6           defb A6h    	; 166,  -90
13C0 C9           defb C9h    	; 201,  -55


; Subroutine: Size=122, CC=11.
; Called by: SUB088[1133h].
; Calls: SUB074, SUB081, SUB088, SUB098, LBL08.
13C1 SUB097:
13C1 D9           exx         
13C2 E1           pop  hl     
13C3 D1           pop  de     
13C4 FE 59        cp   59h    	; 89, 'Y'
13C6 20 31        jr   nz,.sub097_l2 	; 13F9h
13C8 7B           ld   a,e    
13C9 A7           and  a      
13CA 28 29        jr   z,.sub097_l1 	; 13F5h
13CC CD 74 0E     call SUB074 	; 0E74h
13CF E5           push hl     
13D0 D5           push de     
13D1 4F           ld   c,a    
13D2 08           ex   af,af' 
13D3 06 00        ld   b,00h  	; 0
13D5 CD 7F 0F     call SUB081 	; 0F7Fh
13D8 C1           pop  bc     
13D9 06 00        ld   b,00h  	; 0
13DB E1           pop  hl     
13DC ED 5B 2C 40  ld   de,(VAR_BASIC_STRING) 	; 402Ch
13E0 D5           push de     
13E1 ED B0        ldir        
13E3 2A 20 40     ld   hl,(DATA03) 	; 4020h
13E6 FD 4E 1E     ld   c,(iy+30) 
13E9 ED B0        ldir        
13EB ED 53 2C 40  ld   (VAR_BASIC_STRING),de 	; 402Ch
13EF E1           pop  hl     
13F0 08           ex   af,af' 
13F1 5F           ld   e,a    


; Subroutine: Size=7, CC=1.
; Called by: SUB097[142Fh], SUB097[1432h], SUB074[0E7Bh], SUB097[13F1h].
; Calls: SUB033.
13F2 SUB098:
13F2 CD 71 06     call SUB033 	; 0671h


13F5 .sub097_l1:
13F5 D9           exx         
13F6 C3 13 11     jp   SUB088 	; 1113h
13F9 .sub097_l2:
13F9 FE 40        cp   40h    	; 64, '@'
13FB DA 74 15     jp   c,LBL08 	; 1574h
13FE FE 50        cp   50h    	; 80, 'P'
1400 D2 74 15     jp   nc,LBL08 	; 1574h
1403 4F           ld   c,a    
1404 D9           exx         
1405 04           inc  b      
1406 D9           exx         
1407 3A 1E 40     ld   a,(VAR_P) 	; 401Eh
140A BB           cp   e      
140B 38 01        jr   c,.sub097_l3 	; 140Eh
140D 7B           ld   a,e    
140E .sub097_l3:
140E 47           ld   b,a    
140F 08           ex   af,af' 
1410 78           ld   a,b    
1411 A7           and  a      
1412 28 0C        jr   z,.sub097_l4 	; 1420h
1414 ED 5B 20 40  ld   de,(DATA03) 	; 4020h
1418 .sub097_loop:
1418 1A           ld   a,(de) 
1419 BE           cp   (hl)   
141A 13           inc  de     
141B 23           inc  hl     
141C 20 03        jr   nz,.sub097_l5 	; 1421h
141E 10 F8        djnz .sub097_loop 	; 1418h
1420 .sub097_l4:
1420 08           ex   af,af' 
1421 .sub097_l5:
1421 3E 04        ld   a,04h  	; 4
1423 28 04        jr   z,.sub097_l7 	; 1429h
1425 30 01        jr   nc,.sub097_l6 	; 1428h
1427 0F           rrca        
1428 .sub097_l6:
1428 0F           rrca        
1429 .sub097_l7:
1429 ED 62        sbc  hl,hl  
142B A1           and  c      
142C 11 00 81     ld   de,8100h 	; 33024, -32512
142F 20 C1        jr   nz,SUB098 	; 13F2h
1431 53           ld   d,e    
1432 18 BE        jr   SUB098 	; 13F2h


; Subroutine: Size=80, CC=4.
; Called by: SUB107[15B7h], SUB101[1500h], SUB137[1FDEh].
; Calls: SUB055, SUB056, PRG_LOAD_INIT, SUB073, SUB133, SUB138.
1434 SUB099:
1434 FD CB 32 A6  res  4,(iy+50) 
1438 CD E1 1F     call SUB138 	; 1FE1h
143B CD 6E 0E     call SUB073 	; 0E6Eh
143E F5           push af     
143F 28 03        jr   z,.sub099_l1 	; 1444h
1441 21 FF 7F     ld   hl,7FFFh 	; 32767
1444 .sub099_l1:
1444 D5           push de     
1445 E5           push hl     
1446 E5           push hl     
1447 CC 63 0D     call z,PRG_LOAD_INIT 	; 0D63h
144A E1           pop  hl     
144B CD 49 0D     call SUB055 	; 0D49h
144E 1B           dec  de     
144F 1B           dec  de     
1450 ED 53 20 40  ld   (DATA03),de 	; 4020h
1454 67           ld   h,a    
1455 6F           ld   l,a    
1456 38 1D        jr   c,.sub099_l2 	; 1475h
1458 D5           push de     
1459 13           inc  de     
145A 13           inc  de     
145B CD 4F 0D     call SUB056 	; 0D4Fh
145E 1B           dec  de     
145F 1B           dec  de     
1460 2A 1C 40     ld   hl,(ADDR_END_OF_STRINGS) 	; 401Ch
1463 A7           and  a      
1464 ED 52        sbc  hl,de  
1466 44           ld   b,h    
1467 4D           ld   c,l    
1468 EB           ex   de,hl  
1469 D1           pop  de     
146A E5           push hl     
146B ED 52        sbc  hl,de  
146D E3           ex   (sp),hl 
146E ED B0        ldir        
1470 ED 53 1C 40  ld   (ADDR_END_OF_STRINGS),de 	; 401Ch
1474 E1           pop  hl     
1475 .sub099_l2:
1475 EB           ex   de,hl  
1476 21 00 00     ld   hl,0000h 	; 0
1479 A7           and  a      
147A ED 52        sbc  hl,de  
147C 22 22 40     ld   (STACK_PAGE1),hl 	; 4022h
147F C1           pop  bc     
1480 D1           pop  de     
1481 C3 90 1F     jp   SUB133 	; 1F90h


; Subroutine: Size=80, CC=2.
; Called by: SUB133[1F95h].
; Calls: TOKENIZER, SUB081, SUB101.
1484 SUB100:
1484 1B           dec  de     
1485 2A 1C 40     ld   hl,(ADDR_END_OF_STRINGS) 	; 401Ch
1488 70           ld   (hl),b 
1489 23           inc  hl     
148A 71           ld   (hl),c 
148B 23           inc  hl     
148C F1           pop  af     
148D F5           push af     
148E 28 06        jr   z,.sub100_l 	; 1496h
1490 36 91        ld   (hl),91h 	; 145, -111
1492 23           inc  hl     
1493 36 3A        ld   (hl),3Ah 	; 58, ':'
1495 23           inc  hl     
1496 .sub100_l:
1496 CD A9 0C     call TOKENIZER 	; 0CA9h
1499 54           ld   d,h    
149A 5D           ld   e,l    
149B 23           inc  hl     
149C ED 4B 1C 40  ld   bc,(ADDR_END_OF_STRINGS) 	; 401Ch
14A0 22 1C 40     ld   (ADDR_END_OF_STRINGS),hl 	; 401Ch
14A3 A7           and  a      
14A4 ED 42        sbc  hl,bc  
14A6 E5           push hl     
14A7 E5           push hl     
14A8 E5           push hl     
14A9 D5           push de     
14AA 44           ld   b,h    
14AB 4D           ld   c,l    
14AC CD 7F 0F     call SUB081 	; 0F7Fh
14AF D1           pop  de     
14B0 E1           pop  hl     
14B1 ED 4B 22 40  ld   bc,(STACK_PAGE1) 	; 4022h
14B5 09           add  hl,bc  
14B6 22 22 40     ld   (STACK_PAGE1),hl 	; 4022h
14B9 62           ld   h,d    
14BA 6B           ld   l,e    
14BB 23           inc  hl     
14BC ED 4B 20 40  ld   bc,(DATA03) 	; 4020h
14C0 A7           and  a      
14C1 ED 42        sbc  hl,bc  
14C3 44           ld   b,h    
14C4 4D           ld   c,l    
14C5 E1           pop  hl     
14C6 19           add  hl,de  
14C7 EB           ex   de,hl  
14C8 ED B8        lddr        
14CA ED 5B 20 40  ld   de,(DATA03) 	; 4020h
14CE 2A 1C 40     ld   hl,(ADDR_END_OF_STRINGS) 	; 401Ch
14D1 C1           pop  bc     
14D2 ED B0        ldir        


; Subroutine: Size=55, CC=3.
; Called by: SUB133[1F92h], SUB100[14D2h].
; Calls: CHECK_FOR_60h, OUTPUT_CHAR, SUB086, SUB099, SUB137, SUB141.
14D4 SUB101:
14D4 ED 5B 22 40  ld   de,(STACK_PAGE1) 	; 4022h
14D8 2A 18 40     ld   hl,(ADDR_END_OF_BASIC_PRG) 	; 4018h
14DB 44           ld   b,h    
14DC 4D           ld   c,l    
14DD 19           add  hl,de  
14DE 22 18 40     ld   (ADDR_END_OF_BASIC_PRG),hl 	; 4018h
14E1 E5           push hl     
14E2 D9           exx         
14E3 D1           pop  de     
14E4 CD 50 10     call SUB086 	; 1050h
14E7 D9           exx         
14E8 2A 1A 40     ld   hl,(ADDR_END_OF_VARIABLES) 	; 401Ah
14EB 19           add  hl,de  
14EC 22 1A 40     ld   (ADDR_END_OF_VARIABLES),hl 	; 401Ah
14EF 2A 1C 40     ld   hl,(ADDR_END_OF_STRINGS) 	; 401Ch
14F2 22 2C 40     ld   (VAR_BASIC_STRING),hl 	; 402Ch
14F5 F1           pop  af     
14F6 CA DB 1F     jp   z,SUB137 	; 1FDBh
14F9 ED 5B 20 40  ld   de,(DATA03) 	; 4020h
14FD E7           rst  20h    
14FE FE 80        cp   80h    	; 128, -128
1500 CA 34 14     jp   z,SUB099 	; 1434h
1503 3E 0D        ld   a,0Dh  	; 13
1505 EF           rst  28h    
1506 13           inc  de     
1507 13           inc  de     
1508 C3 F7 1F     jp   SUB141 	; 1FF7h


; Subroutine: Size=12, CC=1.
; Called by: AUTOSTART[17A0h], SUB126[1D89h], SUB137[1FDBh].
; Calls: -
150B SUB102:
150B E1           pop  hl     
150C ED 7B 16 40  ld   sp,(ADDR_END_OF_RAM) 	; 4016h
1510 F5           push af     
1511 F5           push af     
1512 F5           push af     
1513 F5           push af     
1514 F5           push af     
1515 F5           push af     
1516 E9           jp   (hl)   


; Label accessed by:
; 157Eh(in LBL04), 1AA4h(in LBL11)
1517 LBL03:
1517 2A 49 40     ld   hl,(DATA11) 	; 4049h
151A E9           jp   (hl)   


151B 15           defb 15h    	; 21


; Subroutine: Size=18, CC=5.
; Called by: SUB128[1EE9h].
; Calls: SUB044, SUB045.
151C SUB103:
151C 30 07        jr   nc,.sub103_l 	; 1525h
151E 2C           inc  l      
151F 20 04        jr   nz,.sub103_l 	; 1525h
1521 24           inc  h      
1522 20 01        jr   nz,.sub103_l 	; 1525h
1524 1C           inc  e      
1525 .sub103_l:
1525 A7           and  a      
1526 CB 77        bit  6,a    
1528 CA 8B 07     jp   z,SUB045 	; 078Bh
152B C3 6A 07     jp   SUB044 	; 076Ah


; Subroutine: Size=10, CC=2.
; Called by: SUB110[1661h].
; Calls: CHECK_FOR_60h, SUB107, SUB111.
152E SUB104:
152E E7           rst  20h    
152F 67           ld   h,a    
1530 17           rla         
1531 DA BB 15     jp   c,SUB107 	; 15BBh
1534 E7           rst  20h    
1535 C3 64 16     jp   SUB111 	; 1664h


; Subroutine: Size=10, CC=3.
; Called by: SUB025[04E4h], SUB067[0E23h].
; Calls: OUTPUT_CHAR.
1538 SUB105:
1538 7B           ld   a,e    
1539 A7           and  a      
153A C8           ret  z      
153B .sub105_loop:
153B 7E           ld   a,(hl) 
153C 23           inc  hl     
153D EF           rst  28h    
153E 1D           dec  e      
153F 20 FA        jr   nz,.sub105_loop 	; 153Bh
1541 C9           ret         


; Subroutine: Size=6, CC=1.
; Called by: SUB109[1682h].
; Calls: SUB108.
1542 SUB106:
1542 06 D9        ld   b,D9h  	; 217,  -39
1544 C5           push bc     
1545 C3 EC 15     jp   SUB108 	; 15ECh


1548 3E           defb 3Eh    	; 62, '>'
1549 D1           defb D1h    	; 209,  -47
154A 18           defb 18h    	; 24
154B 32           defb 32h    	; 50, '2'
154C 3E           defb 3Eh    	; 62, '>'
154D C9           defb C9h    	; 201,  -55
154E 18           defb 18h    	; 24
154F 2E           defb 2Eh    	; 46, '.'
1550 3E           defb 3Eh    	; 62, '>'
1551 CA           defb CAh    	; 202,  -54
1552 18           defb 18h    	; 24
1553 2A           defb 2Ah    	; 42, '*'


; Label accessed by:
; 12F6h(in LBL01), 09E9h(in SUB052), 175Ah(in SUB115), 0D8Dh(in SUB061), 0841h(in SUB050), 0798h(in SUB045)
1554 LBL04:
1554 3E D2        ld   a,D2h  	; 210,  -46
1556 18 26        jr   .lbl04_l 	; 157Eh


1558 3E           defb 3Eh    	; 62, '>'
1559 CB           defb CBh    	; 203,  -53
155A 18           defb 18h    	; 24
155B 22           defb 22h    	; 34, '"'
155C 3E           defb 3Eh    	; 62, '>'
155D CC           defb CCh    	; 204,  -52
155E 18           defb 18h    	; 24
155F 1E           defb 1Eh    	; 30


; Label accessed by:
; 0F82h(in SUB081), 0FC7h(in SUB082)
1560 LBL05:
1560 3E D3        ld   a,D3h  	; 211,  -45
1562 18 1A        jr   .lbl04_l 	; 157Eh


; Label accessed by:
; 1C13h(in SUB125)
1564 LBL06:
1564 3E D4        ld   a,D4h  	; 212,  -44
1566 18 16        jr   .lbl04_l 	; 157Eh


1568 3E           defb 3Eh    	; 62, '>'
1569 CD           defb CDh    	; 205,  -51
156A 18           defb 18h    	; 24
156B 12           defb 12h    	; 18


; Label accessed by:
; 130Fh(in LBL01), 0E7Fh(in SUB074)
156C LBL07:
156C 3E D5        ld   a,D5h  	; 213,  -43
156E 18 0E        jr   .lbl04_l 	; 157Eh


; Label accessed by:
; 10EDh(in SUB087), 1963h(in CALL), 12D8h(in SUB093), 11E8h(in SUB089), 1AA1h(in LBL11), 11FCh(in SUB089), 0EA9h(in SUB076), 0EAEh(in SUB076), 0EB3h(in SUB076), 0DA9h(in SUB062), 1275h(in SUB091), 1657h(in SUB109)
1570 PRINT_SN_ERROR:
1570 3E CE        ld   a,CEh  	; 206,  -50
1572 18 0A        jr   .lbl04_l 	; 157Eh


; Label accessed by:
; 11AEh(in SUB089), 12DFh(in SUB096), 1747h(in SUB115), 1FCDh(in SUB136), 1297h(in SUB093), 112Ch(in SUB088), 1205h(in SUB089), 13FBh(in SUB097), 1400h(in SUB097), 0DB8h(in SUB062)
1574 LBL08:
1574 3E CF        ld   a,CFh  	; 207,  -49
1576 18 06        jr   .lbl04_l 	; 157Eh


; Label accessed by:
; 0F23h(in SUB077)
1578 LBL09:
1578 3E D6        ld   a,D6h  	; 214,  -42
157A 18 02        jr   .lbl04_l 	; 157Eh


; Label accessed by:
; 1764h(in GOTO)
157C LBL10:
157C 3E D0        ld   a,D0h  	; 208,  -48


157E .lbl04_l:
157E 18 97        jr   LBL03  	; 1517h


1580 00           defb 00h    	; 0
1581 00           defb 00h    	; 0
1582 F5           defb F5h    	; 245,  -11
1583 3E           defb 3Eh    	; 62, '>'
1584 0D           defb 0Dh    	; 13
1585 EF           defb EFh    	; 239,  -17
1586 F1           defb F1h    	; 241,  -15
1587 CD           defb CDh    	; 205,  -51
1588 67           defb 67h    	; 103, 'g'
1589 01           defb 01h    	; 1
158A CD           defb CDh    	; 205,  -51
158B 0B           defb 0Bh    	; 11
158C 15           defb 15h    	; 21
158D 3E           defb 3Eh    	; 62, '>'
158E D8           defb D8h    	; 216,  -40


158F .sub108_loop:
158F CD 67 01     call SUB008 	; 0167h
1592 2A 2E 40     ld   hl,(VAR_BASIC_CUR_LINE) 	; 402Eh
1595 23           inc  hl     
1596 CB 7C        bit  7,h    
1598 20 0F        jr   nz,.sub107_loop 	; 15A9h
159A 2B           dec  hl     
159B CD 49 0D     call SUB055 	; 0D49h
159E 1B           dec  de     
159F 1B           dec  de     
15A0 21 22 1C     ld   hl,1C22h 	; 7202
15A3 CD 90 0F     call SUB083 	; 0F90h
15A6 CD 18 0E     call SUB067 	; 0E18h


15A9 .sub107_loop:
15A9 3E D7        ld   a,D7h  	; 215,  -41
15AB 32 2F 40     ld   (DATA07),a 	; 402Fh
15AE CD 67 01     call SUB008 	; 0167h
15B1 2A 56 40     ld   hl,(DATA17) 	; 4056h
15B4 22 49 40     ld   (DATA11),hl 	; 4049h
15B7 C3 34 14     jp   SUB099 	; 1434h


15BA F1           defb F1h    	; 241,  -15


; Subroutine: Size=22, CC=1.
; Called by: SUB126[1D8Ch], SUB104[1531h].
; Calls: OUTPUT_CHAR, SUB008, SUB099.
15BB SUB107:
15BB 3E 0D        ld   a,0Dh  	; 13
15BD EF           rst  28h    
15BE 18 E9        jr   .sub107_loop 	; 15A9h


15C0 F1           defb F1h    	; 241,  -15
15C1 F1           defb F1h    	; 241,  -15
15C2 FE           defb FEh    	; 254,   -2
15C3 D9           defb D9h    	; 217,  -39
15C4 C2           defb C2h    	; 194,  -62
15C5 50           defb 50h    	; 80, 'P'
15C6 15           defb 15h    	; 21
15C7 E1           defb E1h    	; 225,  -31
15C8 2B           defb 2Bh    	; 43, '+'
15C9 22           defb 22h    	; 34, '"'
15CA 2E           defb 2Eh    	; 46, '.'
15CB 40           defb 40h    	; 64, '@'
15CC D1           defb D1h    	; 209,  -47
15CD C3           defb C3h    	; 195,  -61
15CE 6C           defb 6Ch    	; 108, 'l'
15CF 16           defb 16h    	; 22
15D0 1A           defb 1Ah    	; 26
15D1 FE           defb FEh    	; 254,   -2
15D2 3A           defb 3Ah    	; 58, ':'
15D3 28           defb 28h    	; 40, '('
15D4 02           defb 02h    	; 2
15D5 FE           defb FEh    	; 254,   -2
15D6 60           defb 60h    	; 96, '`'
15D7 CA           defb CAh    	; 202,  -54
15D8 FE           defb FEh    	; 254,   -2
15D9 0D           defb 0Dh    	; 13
15DA CD           defb CDh    	; 205,  -51
15DB 3E           defb 3Eh    	; 62, '>'
15DC 17           defb 17h    	; 23
15DD D5           defb D5h    	; 213,  -43
15DE CD           defb CDh    	; 205,  -51
15DF 3E           defb 3Eh    	; 62, '>'
15E0 0D           defb 0Dh    	; 13
15E1 DA           defb DAh    	; 218,  -38
15E2 7C           defb 7Ch    	; 124, '|'
15E3 15           defb 15h    	; 21
15E4 EB           defb EBh    	; 235,  -21
15E5 D1           defb D1h    	; 209,  -47
15E6 2B           defb 2Bh    	; 43, '+'
15E7 2B           defb 2Bh    	; 43, '+'
15E8 2B           defb 2Bh    	; 43, '+'
15E9 C3           defb C3h    	; 195,  -61
15EA 01           defb 01h    	; 1
15EB 0E           defb 0Eh    	; 14


; Subroutine: Size=47, CC=2.
; Called by: SUB109[167Dh], SUB106[1545h].
; Calls: SUB008, SUB055, SUB067, SUB083.
15EC SUB108:
15EC 3E D9        ld   a,D9h  	; 217,  -39
15EE 18 9F        jr   .sub108_loop 	; 158Fh


15F0 00           defb 00h    	; 0
15F1 2A           defb 2Ah    	; 42, '*'
15F2 18           defb 18h    	; 24
15F3 40           defb 40h    	; 64, '@'
15F4 01           defb 01h    	; 1
15F5 16           defb 16h    	; 22
15F6 40           defb 40h    	; 64, '@'
15F7 CD           defb CDh    	; 205,  -51
15F8 F6           defb F6h    	; 246,  -10
15F9 0D           defb 0Dh    	; 13
15FA CD           defb CDh    	; 205,  -51
15FB A3           defb A3h    	; 163,  -93
15FC 07           defb 07h    	; 7
15FD C3           defb C3h    	; 195,  -61
15FE 79           defb 79h    	; 121, 'y'
15FF 00           defb 00h    	; 0
1600 70           defb 70h    	; 112, 'p'
1601 15           defb 15h    	; 21
1602 38           defb 38h    	; 56, '8'
1603 1C           defb 1Ch    	; 28
1604 99           defb 99h    	; 153, -103
1605 1D           defb 1Dh    	; 29
1606 0F           defb 0Fh    	; 15
1607 19           defb 19h    	; 25
1608 70           defb 70h    	; 112, 'p'
1609 15           defb 15h    	; 21
160A 70           defb 70h    	; 112, 'p'
160B 15           defb 15h    	; 21
160C 70           defb 70h    	; 112, 'p'
160D 15           defb 15h    	; 21
160E 70           defb 70h    	; 112, 'p'
160F 15           defb 15h    	; 21
1610 EE           defb EEh    	; 238,  -18
1611 17           defb 17h    	; 23
1612 BA           defb BAh    	; 186,  -70
1613 15           defb 15h    	; 21
1614 2D           defb 2Dh    	; 45, '-'
1615 1A           defb 1Ah    	; 26
1616 5D           defb 5Dh    	; 93, ']'
1617 17           defb 17h    	; 23
1618 70           defb 70h    	; 112, 'p'
1619 17           defb 17h    	; 23
161A 42           defb 42h    	; 66, 'B'
161B 19           defb 19h    	; 25
161C C0           defb C0h    	; 192,  -64
161D 15           defb 15h    	; 21
161E 38           defb 38h    	; 56, '8'
161F 1C           defb 1Ch    	; 28
1620 B0           defb B0h    	; 176,  -80
1621 17           defb 17h    	; 23
1622 0C           defb 0Ch    	; 12
1623 1B           defb 1Bh    	; 27
1624 7E           defb 7Eh    	; 126, '~'
1625 1A           defb 1Ah    	; 26
1626 23           defb 23h    	; 35, '#'
1627 19           defb 19h    	; 25
1628 86           defb 86h    	; 134, -122
1629 19           defb 19h    	; 25
162A 00           defb 00h    	; 0
162B 20           defb 20h    	; 32, ' '
162C 87           defb 87h    	; 135, -121
162D 17           defb 17h    	; 23
162E F1           defb F1h    	; 241,  -15
162F 15           defb 15h    	; 21
1630 70           defb 70h    	; 112, 'p'
1631 15           defb 15h    	; 21
1632 F0           defb F0h    	; 240,  -16
1633 1E           defb 1Eh    	; 30
1634 D0           defb D0h    	; 208,  -48
1635 15           defb 15h    	; 21
1636 70           defb 70h    	; 112, 'p'
1637 15           defb 15h    	; 21
1638 B4           defb B4h    	; 180,  -76
1639 19           defb 19h    	; 25
163A 8F           defb 8Fh    	; 143, -113
163B 1D           defb 1Dh    	; 29
163C 70           defb 70h    	; 112, 'p'
163D 15           defb 15h    	; 21
163E 62           defb 62h    	; 98, 'b'
163F 0E           defb 0Eh    	; 14
1640 EC           defb ECh    	; 236,  -20
1641 04           defb 04h    	; 4
1642 9A           defb 9Ah    	; 154, -102
1643 17           defb 17h    	; 23
1644 AD           defb ADh    	; 173,  -83
1645 07           defb 07h    	; 7
1646 70           defb 70h    	; 112, 'p'
1647 15           defb 15h    	; 21
1648 D8           defb D8h    	; 216,  -40
1649 1D           defb 1Dh    	; 29
164A 5F           defb 5Fh    	; 95, '_'
164B 19           defb 19h    	; 25
164C 50           defb 50h    	; 80, 'P'
164D 1B           defb 1Bh    	; 27


; Subroutine: Size=110, CC=10.
; Called by: SUB141[1FFDh].
; Calls: CHECK_FOR_60h, SUB062, SUB106, PRINT_SN_ERROR, SUB108, SUB110, SUB122, LBL11.
164E SUB109:
164E E7           rst  20h    
164F 28 10        jr   z,SUB110 	; 1661h
1651 FE 3A        cp   3Ah    	; 58, ':'
1653 28 17        jr   z,.sub109_l1 	; 166Ch
1655 FE 27        cp   27h    	; 39, '''
1657 C2 70 15     jp   nz,PRINT_SN_ERROR 	; 1570h
165A EB           ex   de,hl  
165B 3E 60        ld   a,60h  	; 96, '`'
165D 47           ld   b,a    
165E ED B1        cpir        
1660 EB           ex   de,hl  


; Subroutine: Size=3, CC=1.
; Called by: GOTO[176Dh], AUTOSTART[17ADh], SUB109[164Fh], SUB109[1660h].
; Calls: SUB104.
1661 SUB110:
1661 C3 2E 15     jp   SUB104 	; 152Eh


; Subroutine: Size=99, CC=7.
; Called by: SUB104[1535h].
; Calls: -
1664 SUB111:
1664 6F           ld   l,a    
1665 22 2E 40     ld   (VAR_BASIC_CUR_LINE),hl 	; 402Eh
1668 FD CB 32 8E  res  1,(iy+50) 


166C .sub109_l1:
166C D3 FF        out  (00FFh),a 	; 255
166E 3A 03 E8     ld   a,(DATA22) 	; E803h
1671 D3 7F        out  (007Fh),a 	; 127
1673 E6 06        and  06h    	; 6
1675 20 0E        jr   nz,.sub109_l2 	; 1685h
1677 2A 2E 40     ld   hl,(VAR_BASIC_CUR_LINE) 	; 402Eh
167A 23           inc  hl     
167B CB 7C        bit  7,h    
167D C2 EC 15     jp   nz,SUB108 	; 15ECh
1680 D5           push de     
1681 E5           push hl     
1682 C3 42 15     jp   SUB106 	; 1542h
1685 .sub109_l2:
1685 FD CB 4B 7E  bit  7,(iy+75) 
1689 28 0F        jr   z,.sub109_l3 	; 169Ah
168B 2A 2E 40     ld   hl,(VAR_BASIC_CUR_LINE) 	; 402Eh
168E CB FC        set  7,h    
1690 E5           push hl     
1691 21 00 7D     ld   hl,7D00h 	; 32000
1694 FD 75 4B     ld   (iy+75),l 
1697 C3 DD 19     jp   SUB122 	; 19DDh
169A .sub109_l3:
169A E7           rst  20h    
169B 01 4E 16     ld   bc,164Eh 	; 5710
169E C5           push bc     
169F D6 88        sub  88h    	; 136, -120
16A1 DA A0 0D     jp   c,SUB062 	; 0DA0h
16A4 FE 27        cp   27h    	; 39, '''
16A6 D2 9C 1A     jp   nc,LBL11 	; 1A9Ch
16A9 87           add  a,a    
16AA 6F           ld   l,a    
16AB 26 16        ld   h,16h  	; 22
16AD 4E           ld   c,(hl) 
16AE 2C           inc  l      
16AF 66           ld   h,(hl) 
16B0 69           ld   l,c    
16B1 E9           jp   (hl)   


16B2 2A           defb 2Ah    	; 42, '*'
16B3 58           defb 58h    	; 88, 'X'
16B4 40           defb 40h    	; 64, '@'
16B5 06           defb 06h    	; 6
16B6 49           defb 49h    	; 73, 'I'
16B7 D5           defb D5h    	; 213,  -43
16B8 23           defb 23h    	; 35, '#'
16B9 4E           defb 4Eh    	; 78, 'N'
16BA E7           defb E7h    	; 231,  -25
16BB FE           defb FEh    	; 254,   -2
16BC 40           defb 40h    	; 64, '@'
16BD 38           defb 38h    	; 56, '8'
16BE 04           defb 04h    	; 4
16BF CB           defb CBh    	; 203,  -53
16C0 AF           defb AFh    	; 175,  -81
16C1 CB           defb CBh    	; 203,  -53
16C2 A9           defb A9h    	; 169,  -87
16C3 91           defb 91h    	; 145, -111
16C4 28           defb 28h    	; 40, '('
16C5 F2           defb F2h    	; 242,  -14
16C6 87           defb 87h    	; 135, -121
16C7 28           defb 28h    	; 40, '('
16C8 0B           defb 0Bh    	; 11
16C9 D1           defb D1h    	; 209,  -47
16CA CB           defb CBh    	; 203,  -53
16CB 7E           defb 7Eh    	; 126, '~'
16CC 23           defb 23h    	; 35, '#'
16CD 28           defb 28h    	; 40, '('
16CE FB           defb FBh    	; 251,   -5
16CF 2B           defb 2Bh    	; 43, '+'
16D0 10           defb 10h    	; 16
16D1 E5           defb E5h    	; 229,  -27
16D2 A7           defb A7h    	; 167,  -89
16D3 E5           defb E5h    	; 229,  -27
16D4 E1           defb E1h    	; 225,  -31
16D5 0E           defb 0Eh    	; 14
16D6 00           defb 00h    	; 0
16D7 C9           defb C9h    	; 201,  -55
16D8 47           defb 47h    	; 71, 'G'
16D9 3A           defb 3Ah    	; 58, ':'
16DA 04           defb 04h    	; 4
16DB 28           defb 28h    	; 40, '('
16DC A7           defb A7h    	; 167,  -89
16DD 78           defb 78h    	; 120, 'x'
16DE CA           defb CAh    	; 202,  -54
16DF 39           defb 39h    	; 57, '9'
16E0 28           defb 28h    	; 40, '('
16E1 C3           defb C3h    	; 195,  -61
16E2 84           defb 84h    	; 132, -124
16E3 03           defb 03h    	; 3
16E4 00           defb 00h    	; 0


; Subroutine: Size=44, CC=8.
; Called by: SUB069[0E33h].
; Calls: CHECK_FOR_60h, OUTPUT_CHAR, SUB068, SUB069, SUB070, SUB071, SUB072, SUB140.
16E5 SUB112:
16E5 28 13        jr   z,.sub112_l1 	; 16FAh
16E7 F5           push af     
16E8 D5           push de     
16E9 CD F1 1F     call SUB140 	; 1FF1h
16EC D1           pop  de     
16ED F1           pop  af     
16EE FE 89        cp   89h    	; 137, -119
16F0 C2 2A 0E     jp   nz,SUB069 	; 0E2Ah
16F3 .sub112_loop1:
16F3 E7           rst  20h    
16F4 CA 2D 0E     jp   z,SUB070 	; 0E2Dh
16F7 EF           rst  28h    
16F8 18 F9        jr   .sub112_loop1 	; 16F3h
16FA .sub112_l1:
16FA D2 43 0E     jp   nc,SUB072 	; 0E43h
16FD FE 22        cp   22h    	; 34, '"'
16FF C2 36 0E     jp   nz,SUB071 	; 0E36h
1702 .sub112_loop2:
1702 EF           rst  28h    
1703 E7           rst  20h    
1704 28 05        jr   z,.sub112_l2 	; 170Bh
1706 FE 22        cp   22h    	; 34, '"'
1708 20 F8        jr   nz,.sub112_loop2 	; 1702h
170A 13           inc  de     
170B .sub112_l2:
170B 1B           dec  de     
170C 3E 22        ld   a,22h  	; 34, '"'
170E C3 29 0E     jp   SUB068 	; 0E29h


; Subroutine: Size=7, CC=2.
; Called by: TOKENIZER[0CE2h].
; Calls: CHECK_FOR_60h.
1711 SUB113:
1711 E7           rst  20h    
1712 FE 41        cp   41h    	; 65, 'A'
1714 D8           ret  c      
1715 CB AF        res  5,a    
1717 C9           ret         


; Subroutine: Size=38, CC=4.
; Called by: SUB091[1258h].
; Calls: SUB016, SUB060, SUB092.
1718 SUB114:
1718 FE 8C        cp   8Ch    	; 140, -116
171A C0           ret  nz     
171B F1           pop  af     
171C CD 5B 03     call SUB016 	; 035Bh
171F 6F           ld   l,a    
1720 1A           ld   a,(de) 
1721 FE 24        cp   24h    	; 36, '$'
1723 C2 41 12     jp   nz,SUB092 	; 1241h
1726 7D           ld   a,l    
1727 2A 2C 40     ld   hl,(VAR_BASIC_STRING) 	; 402Ch
172A 01 01 FF     ld   bc,FF01h 	; 65281,   -255
172D A7           and  a      
172E 20 01        jr   nz,.sub114_l 	; 1731h
1730 0D           dec  c      
1731 .sub114_l:
1731 22 20 40     ld   (DATA03),hl 	; 4020h
1734 77           ld   (hl),a 
1735 13           inc  de     
1736 23           inc  hl     
1737 ED 43 1E 40  ld   (VAR_P),bc 	; 401Eh
173B C3 75 0D     jp   SUB060 	; 0D75h


; Subroutine: Size=45, CC=4.
; Called by: GOTO[175Eh], GOSUB[1775h].
; Calls: SUB043, SUB052, SUB073, BASIC_INTERPRETER, LBL04, LBL08.
173E SUB115:
173E CD 6E 0E     call SUB073 	; 0E6Eh
1741 28 0F        jr   z,.sub115_l 	; 1752h
1743 CD CD 10     call BASIC_INTERPRETER 	; 10CDh
1746 04           inc  b      
1747 CA 74 15     jp   z,LBL08 	; 1574h
174A D5           push de     
174B CD 26 07     call SUB043 	; 0726h
174E CD E6 09     call SUB052 	; 09E6h
1751 D1           pop  de     
1752 .sub115_l:
1752 01 F8 7F     ld   bc,7FF8h 	; 32760
1755 A7           and  a      
1756 ED 42        sbc  hl,bc  
1758 09           add  hl,bc  
1759 D8           ret  c      
175A C3 54 15     jp   LBL04  	; 1554h


; Subroutine: Size=27, CC=2.
; Called by: -
; Calls: SUB054, LBL10, SUB110, SUB115.
175D GOTO:
175D C1           pop  bc     
175E .goto_loop1:
175E CD 3E 17     call SUB115 	; 173Eh
1761 .goto_loop2:
1761 CD 3E 0D     call SUB054 	; 0D3Eh
1764 DA 7C 15     jp   c,LBL10 	; 157Ch
1767 1B           dec  de     
1768 1B           dec  de     
1769 FD CB 32 DE  set  3,(iy+50) 
176D C3 61 16     jp   SUB110 	; 1661h


; Subroutine: Size=8, CC=1.
; Called by: -
; Calls: SUB115, SUB116.
1770 GOSUB:
1770 C1           pop  bc     
1771 2A 2E 40     ld   hl,(VAR_BASIC_CUR_LINE) 	; 402Eh
1774 E5           push hl     
1775 CD 3E 17     call SUB115 	; 173Eh


; Subroutine: Size=38, CC=2.
; Called by: SUB122[19E5h], GOSUB[1775h].
; Calls: SUB079.
1778 SUB116:
1778 D5           push de     
1779 01 00 94     ld   bc,9400h 	; 37888, -27648
177C C5           push bc     
177D E5           push hl     
177E 41           ld   b,c    
177F D5           push de     
1780 CD 75 0F     call SUB079 	; 0F75h
1783 D1           pop  de     
1784 E1           pop  hl     
1785 18 DA        jr   .goto_loop2 	; 1761h


1787 E1           defb E1h    	; 225,  -31
1788 F1           defb F1h    	; 241,  -15
1789 FE           defb FEh    	; 254,   -2
178A 94           defb 94h    	; 148, -108
178B C2           defb C2h    	; 194,  -62
178C 58           defb 58h    	; 88, 'X'
178D 15           defb 15h    	; 21
178E D1           defb D1h    	; 209,  -47
178F E3           defb E3h    	; 227,  -29
1790 CD           defb CDh    	; 205,  -51
1791 E8           defb E8h    	; 232,  -24
1792 19           defb 19h    	; 25
1793 E7           defb E7h    	; 231,  -25
1794 FE           defb FEh    	; 254,   -2
1795 2C           defb 2Ch    	; 44, ','
1796 28           defb 28h    	; 40, '('
1797 D8           defb D8h    	; 216,  -40
1798 1B           defb 1Bh    	; 27
1799 C9           defb C9h    	; 201,  -55


; Subroutine: Size=3, CC=1.
; Called by: -
; Calls: CHECK_FOR_60h, AUTOSTART.
179A RUN:
179A C1           pop  bc     
179B E7           rst  20h    
179C 1B           dec  de     


; Subroutine: Size=45, CC=3.
; Called by: SUB138[1FE8h], RUN[179Ch].
; Calls: PRG_LOAD_INIT, SUB102, SUB110.
179D AUTOSTART:
179D CD 63 0D     call PRG_LOAD_INIT 	; 0D63h
17A0 CD 0B 15     call SUB102 	; 150Bh
17A3 20 B9        jr   nz,.goto_loop1 	; 175Eh
17A5 ED 5B 30 40  ld   de,(ADDR_START_OF_BASIC_PRG) 	; 4030h
17A9 FD CB 32 DE  set  3,(iy+50) 
17AD C3 61 16     jp   SUB110 	; 1661h


17B0 CD           defb CDh    	; 205,  -51
17B1 81           defb 81h    	; 129, -127
17B2 13           defb 13h    	; 19
17B3 28           defb 28h    	; 40, '('
17B4 06           defb 06h    	; 6
17B5 FE           defb FEh    	; 254,   -2
17B6 82           defb 82h    	; 130, -126
17B7 20           defb 20h    	; 32, ' '
17B8 14           defb 14h    	; 20
17B9 18           defb 18h    	; 24
17BA 08           defb 08h    	; 8
17BB FE           defb FEh    	; 254,   -2
17BC 82           defb 82h    	; 130, -126
17BD 28           defb 28h    	; 40, '('
17BE 04           defb 04h    	; 4
17BF 44           defb 44h    	; 68, 'D'
17C0 4D           defb 4Dh    	; 77, 'M'
17C1 18           defb 18h    	; 24
17C2 0D           defb 0Dh    	; 13
17C3 13           defb 13h    	; 19
17C4 E5           defb E5h    	; 229,  -27
17C5 CD           defb CDh    	; 205,  -51
17C6 6E           defb 6Eh    	; 110, 'n'
17C7 0E           defb 0Eh    	; 14
17C8 44           defb 44h    	; 68, 'D'
17C9 4D           defb 4Dh    	; 77, 'M'
17CA E1           defb E1h    	; 225,  -31
17CB 28           defb 28h    	; 40, '('
17CC 03           defb 03h    	; 3
17CD 01           defb 01h    	; 1
17CE FE           defb FEh    	; 254,   -2
17CF 7F           defb 7Fh    	; 127
17D0 C5           defb C5h    	; 197,  -59
17D1 3E           defb 3Eh    	; 62, '>'
17D2 0D           defb 0Dh    	; 13
17D3 EF           defb EFh    	; 239,  -17
17D4 CD           defb CDh    	; 205,  -51
17D5 49           defb 49h    	; 73, 'I'
17D6 0D           defb 0Dh    	; 13
17D7 1B           defb 1Bh    	; 27
17D8 1B           defb 1Bh    	; 27
17D9 18           defb 18h    	; 24
17DA 04           defb 04h    	; 4
17DB C5           defb C5h    	; 197,  -59
17DC CD           defb CDh    	; 205,  -51
17DD 18           defb 18h    	; 24
17DE 0E           defb 0Eh    	; 14
17DF C1           defb C1h    	; 193,  -63
17E0 1A           defb 1Ah    	; 26
17E1 13           defb 13h    	; 19
17E2 67           defb 67h    	; 103, 'g'
17E3 1A           defb 1Ah    	; 26
17E4 1B           defb 1Bh    	; 27
17E5 6F           defb 6Fh    	; 111, 'o'
17E6 37           defb 37h    	; 55, '7'
17E7 ED           defb EDh    	; 237,  -19
17E8 42           defb 42h    	; 66, 'B'
17E9 38           defb 38h    	; 56, '8'
17EA F0           defb F0h    	; 240,  -16
17EB C3           defb C3h    	; 195,  -61
17EC BA           defb BAh    	; 186,  -70
17ED 15           defb 15h    	; 21
17EE CD           defb CDh    	; 205,  -51
17EF A8           defb A8h    	; 168,  -88
17F0 0E           defb 0Eh    	; 14
17F1 DA           defb DAh    	; 218,  -38
17F2 4C           defb 4Ch    	; 76, 'L'
17F3 15           defb 15h    	; 21
17F4 CD           defb CDh    	; 205,  -51
17F5 98           defb 98h    	; 152, -104
17F6 0F           defb 0Fh    	; 15
17F7 E7           defb E7h    	; 231,  -25
17F8 FE           defb FEh    	; 254,   -2
17F9 2C           defb 2Ch    	; 44, ','
17FA 28           defb 28h    	; 40, '('
17FB F2           defb F2h    	; 242,  -14
17FC 1B           defb 1Bh    	; 27
17FD C9           defb C9h    	; 201,  -55
17FE 00           defb 00h    	; 0
17FF 00           defb 00h    	; 0


; Subroutine: Size=203, CC=15.
; Called by: SUB080[0F7Ch], SUB062[0DF3h].
; Calls: CHECK_FOR_60h, SUB058, SUB118.
1800 SUB117:
1800 E5           push hl     
1801 C5           push bc     
1802 D5           push de     
1803 CD CB 18     call SUB118 	; 18CBh
1806 E5           push hl     
1807 44           ld   b,h    
1808 4D           ld   c,l    
1809 .sub117_l01:
1809 D9           exx         
180A ED 5B 2C 40  ld   de,(VAR_BASIC_STRING) 	; 402Ch
180E 42           ld   b,d    
180F 4B           ld   c,e    
1810 D9           exx         
1811 ED 5B 18 40  ld   de,(ADDR_END_OF_BASIC_PRG) 	; 4018h
1815 .sub117_loop1:
1815 13           inc  de     
1816 .sub117_loop2:
1816 E7           rst  20h    
1817 28 7B        jr   z,.sub117_l10 	; 1894h
1819 30 10        jr   nc,.sub117_l02 	; 182Bh
181B E7           rst  20h    
181C 08           ex   af,af' 
181D E7           rst  20h    
181E 6F           ld   l,a    
181F E7           rst  20h    
1820 67           ld   h,a    
1821 19           add  hl,de  
1822 13           inc  de     
1823 08           ex   af,af' 
1824 FE 40        cp   40h    	; 64, '@'
1826 30 ED        jr   nc,.sub117_loop1 	; 1815h
1828 EB           ex   de,hl  
1829 18 EB        jr   .sub117_loop2 	; 1816h
182B .sub117_l02:
182B 26 00        ld   h,00h  	; 0
182D E7           rst  20h    
182E FE 40        cp   40h    	; 64, '@'
1830 30 07        jr   nc,.sub117_l03 	; 1839h
1832 E7           rst  20h    
1833 6F           ld   l,a    
1834 E7           rst  20h    
1835 67           ld   h,a    
1836 19           add  hl,de  
1837 13           inc  de     
1838 13           inc  de     
1839 .sub117_l03:
1839 22 20 40     ld   (DATA03),hl 	; 4020h
183C .sub117_loop3:
183C E7           rst  20h    
183D 08           ex   af,af' 
183E E7           rst  20h    
183F 6F           ld   l,a    
1840 E7           rst  20h    
1841 67           ld   h,a    
1842 EB           ex   de,hl  
1843 E3           ex   (sp),hl 
1844 A7           and  a      
1845 ED 52        sbc  hl,de  
1847 19           add  hl,de  
1848 E3           ex   (sp),hl 
1849 EB           ex   de,hl  
184A 30 3E        jr   nc,.sub117_l09 	; 188Ah
184C A7           and  a      
184D ED 42        sbc  hl,bc  
184F 09           add  hl,bc  
1850 30 11        jr   nc,.sub117_l04 	; 1863h
1852 C5           push bc     
1853 ED 4B 1E 40  ld   bc,(VAR_P) 	; 401Eh
1857 09           add  hl,bc  
1858 C1           pop  bc     
1859 1B           dec  de     
185A 1B           dec  de     
185B 7D           ld   a,l    
185C 12           ld   (de),a 
185D 13           inc  de     
185E 7C           ld   a,h    
185F 12           ld   (de),a 
1860 13           inc  de     
1861 18 27        jr   .sub117_l09 	; 188Ah
1863 .sub117_l04:
1863 E5           push hl     
1864 D9           exx         
1865 E1           pop  hl     
1866 ED 42        sbc  hl,bc  
1868 09           add  hl,bc  
1869 E5           push hl     
186A 38 02        jr   c,.sub117_l05 	; 186Eh
186C E1           pop  hl     
186D C5           push bc     
186E .sub117_l05:
186E 08           ex   af,af' 
186F 37           scf         
1870 ED 52        sbc  hl,de  
1872 30 13        jr   nc,.sub117_l08 	; 1887h
1874 8D           adc  a,l    
1875 6F           ld   l,a    
1876 30 01        jr   nc,.sub117_l06 	; 1879h
1878 24           inc  h      
1879 .sub117_l06:
1879 19           add  hl,de  
187A A7           and  a      
187B 0B           dec  bc     
187C ED 42        sbc  hl,bc  
187E 09           add  hl,bc  
187F 38 05        jr   c,.sub117_l07 	; 1886h
1881 ED 52        sbc  hl,de  
1883 19           add  hl,de  
1884 38 01        jr   c,.sub117_l08 	; 1887h
1886 .sub117_l07:
1886 EB           ex   de,hl  
1887 .sub117_l08:
1887 C1           pop  bc     
1888 00           nop         
1889 D9           exx         
188A .sub117_l09:
188A 2A 20 40     ld   hl,(DATA03) 	; 4020h
188D 37           scf         
188E ED 52        sbc  hl,de  
1890 30 AA        jr   nc,.sub117_loop3 	; 183Ch
1892 18 82        jr   .sub117_loop2 	; 1816h
1894 .sub117_l10:
1894 E1           pop  hl     
1895 D9           exx         
1896 2A 2C 40     ld   hl,(VAR_BASIC_STRING) 	; 402Ch
1899 ED 42        sbc  hl,bc  
189B 20 0B        jr   nz,.sub117_l11 	; 18A8h
189D D9           exx         
189E 2A 2A 40     ld   hl,(DATA06) 	; 402Ah
18A1 CD 71 0D     call SUB058 	; 0D71h
18A4 D1           pop  de     
18A5 C1           pop  bc     
18A6 E1           pop  hl     
18A7 C9           ret         
18A8 .sub117_l11:
18A8 EB           ex   de,hl  
18A9 ED 42        sbc  hl,bc  
18AB E5           push hl     
18AC C5           push bc     
18AD E1           pop  hl     
18AE C1           pop  bc     
18AF ED 5B 2A 40  ld   de,(DATA06) 	; 402Ah
18B3 D5           push de     
18B4 13           inc  de     
18B5 28 03        jr   z,.sub117_l12 	; 18BAh
18B7 ED B0        ldir        
18B9 2B           dec  hl     
18BA .sub117_l12:
18BA 23           inc  hl     
18BB 44           ld   b,h    
18BC 4D           ld   c,l    
18BD 1B           dec  de     
18BE EB           ex   de,hl  
18BF 22 2A 40     ld   (DATA06),hl 	; 402Ah
18C2 1B           dec  de     
18C3 ED 52        sbc  hl,de  
18C5 22 1E 40     ld   (VAR_P),hl 	; 401Eh
18C8 C3 09 18     jp   .sub117_l01 	; 1809h


; Subroutine: Size=7, CC=1.
; Called by: SUB117[1803h].
; Calls: -
18CB SUB118:
18CB 2A 1A 40     ld   hl,(ADDR_END_OF_VARIABLES) 	; 401Ah
18CE 22 2A 40     ld   (DATA06),hl 	; 402Ah
18D1 C9           ret         


; Subroutine: Size=15, CC=2.
; Called by: SUB062[0DC3h].
; Calls: SUB063, SUB064.
18D2 SUB119:
18D2 2A 2E 40     ld   hl,(VAR_BASIC_CUR_LINE) 	; 402Eh
18D5 23           inc  hl     
18D6 CB 7C        bit  7,h    
18D8 2A 20 40     ld   hl,(DATA03) 	; 4020h
18DB CA C6 0D     jp   z,SUB063 	; 0DC6h
18DE C3 CB 0D     jp   SUB064 	; 0DCBh


18E1 CD           defb CDh    	; 205,  -51
18E2 33           defb 33h    	; 51, '3'
18E3 05           defb 05h    	; 5
18E4 6F           defb 6Fh    	; 111, 'o'
18E5 61           defb 61h    	; 97, 'a'
18E6 CD           defb CDh    	; 205,  -51
18E7 08           defb 08h    	; 8
18E8 01           defb 01h    	; 1
18E9 C3           defb C3h    	; 195,  -61
18EA EC           defb ECh    	; 236,  -20
18EB 1E           defb 1Eh    	; 30


; Subroutine: Size=35, CC=3.
; Called by: SUB042[0723h].
; Calls: SUB043, SUB128.
18EC SUB120:
18EC 92           sub  d      
18ED 30 15        jr   nc,.sub120_l 	; 1904h
18EF ED 44        neg         
18F1 ED 4B 20 40  ld   bc,(DATA03) 	; 4020h
18F5 22 20 40     ld   (DATA03),hl 	; 4020h
18F8 60           ld   h,b    
18F9 69           ld   l,c    
18FA 42           ld   b,d    
18FB 4B           ld   c,e    
18FC ED 5B 1E 40  ld   de,(VAR_P) 	; 401Eh
1900 ED 43 1E 40  ld   (VAR_P),bc 	; 401Eh
1904 .sub120_l:
1904 FE 18        cp   18h    	; 24
1906 D2 26 07     jp   nc,SUB043 	; 0726h
1909 FD 4E 1E     ld   c,(iy+30) 
190C C3 CF 1E     jp   SUB128 	; 1ECFh


190F CD           defb CDh    	; 205,  -51
1910 C3           defb C3h    	; 195,  -61
1911 1F           defb 1Fh    	; 31
1912 ED           defb EDh    	; 237,  -19
1913 4B           defb 4Bh    	; 75, 'K'
1914 1C           defb 1Ch    	; 28
1915 40           defb 40h    	; 64, '@'
1916 A7           defb A7h    	; 167,  -89
1917 ED           defb EDh    	; 237,  -19
1918 42           defb 42h    	; 66, 'B'
1919 09           defb 09h    	; 9
191A DA           defb DAh    	; 218,  -38
191B 60           defb 60h    	; 96, '`'
191C 15           defb 15h    	; 21
191D 22           defb 22h    	; 34, '"'
191E 16           defb 16h    	; 22
191F 40           defb 40h    	; 64, '@'
1920 C3           defb C3h    	; 195,  -61
1921 0B           defb 0Bh    	; 11
1922 15           defb 15h    	; 21
1923 E1           defb E1h    	; 225,  -31
1924 CD           defb CDh    	; 205,  -51
1925 DB           defb DBh    	; 219,  -37
1926 12           defb 12h    	; 18
1927 A7           defb A7h    	; 167,  -89
1928 CA           defb CAh    	; 202,  -54
1929 5A           defb 5Ah    	; 90, 'Z'
192A 16           defb 16h    	; 22
192B 47           defb 47h    	; 71, 'G'
192C E7           defb E7h    	; 231,  -25
192D 08           defb 08h    	; 8
192E 1B           defb 1Bh    	; 27
192F E7           defb E7h    	; 231,  -25
1930 CA           defb CAh    	; 202,  -54
1931 61           defb 61h    	; 97, 'a'
1932 16           defb 16h    	; 22
1933 FE           defb FEh    	; 254,   -2
1934 27           defb 27h    	; 39, '''
1935 20           defb 20h    	; 32, ' '
1936 F8           defb F8h    	; 248,   -8
1937 10           defb 10h    	; 16
1938 F6           defb F6h    	; 246,  -10
1939 08           defb 08h    	; 8
193A FE           defb FEh    	; 254,   -2
193B 27           defb 27h    	; 39, '''
193C CA           defb CAh    	; 202,  -54
193D 6C           defb 6Ch    	; 108, 'l'
193E 16           defb 16h    	; 22
193F C3           defb C3h    	; 195,  -61
1940 9B           defb 9Bh    	; 155, -101
1941 16           defb 16h    	; 22
1942 E1           defb E1h    	; 225,  -31
1943 CD           defb CDh    	; 205,  -51
1944 C9           defb C9h    	; 201,  -55
1945 1F           defb 1Fh    	; 31
1946 B4           defb B4h    	; 180,  -76
1947 06           defb 06h    	; 6
1948 01           defb 01h    	; 1
1949 20           defb 20h    	; 32, ' '
194A 01           defb 01h    	; 1
194B 04           defb 04h    	; 4
194C E7           defb E7h    	; 231,  -25
194D FE           defb FEh    	; 254,   -2
194E A0           defb A0h    	; 160,  -96
194F 20           defb 20h    	; 32, ' '
1950 DC           defb DCh    	; 220,  -36
1951 3E           defb 3Eh    	; 62, '>'
1952 27           defb 27h    	; 39, '''
1953 05           defb 05h    	; 5
1954 28           defb 28h    	; 40, '('
1955 E6           defb E6h    	; 230,  -26
1956 08           defb 08h    	; 8
1957 18           defb 18h    	; 24
1958 D6           defb D6h    	; 214,  -42


; Subroutine: Size=35, CC=3.
; Called by: -
; Calls: CALL.
1959 CALL_END:
1959 D1           pop  de     
195A 1A           ld   a,(de) 
195B FE 2C        cp   2Ch    	; 44, ','
195D C0           ret  nz     
195E 13           inc  de     


; Label accessed by:
; 195Eh(in CALL_END)
195F CALL:
195F CD CD 10     call BASIC_INTERPRETER 	; 10CDh
1962 04           inc  b      
1963 CA 70 15     jp   z,PRINT_SN_ERROR 	; 1570h
1966 D5           push de     
1967 CD 26 07     call SUB043 	; 0726h
196A CD E6 09     call SUB052 	; 09E6h
196D 01 59 19     ld   bc,1959h 	; 6489
1970 C5           push bc     
1971 E9           jp   (hl)   


1972 CD           defb CDh    	; 205,  -51
1973 26           defb 26h    	; 38, '&'
1974 07           defb 07h    	; 7
1975 7A           defb 7Ah    	; 122, 'z'
1976 0E           defb 0Eh    	; 14
1977 7F           defb 7Fh    	; 127
1978 FE           defb FEh    	; 254,   -2
1979 91           defb 91h    	; 145, -111
197A C2           defb C2h    	; 194,  -62
197B E6           defb E6h    	; 230,  -26
197C 09           defb 09h    	; 9
197D CB           defb CBh    	; 203,  -53
197E 15           defb 15h    	; 21
197F 6C           defb 6Ch    	; 108, 'l'
1980 63           defb 63h    	; 99, 'c'
1981 ED           defb EDh    	; 237,  -19
1982 6A           defb 6Ah    	; 106, 'j'
1983 CB           defb CBh    	; 203,  -53
1984 F9           defb F9h    	; 249,   -7
1985 C9           defb C9h    	; 201,  -55
1986 CD           defb CDh    	; 205,  -51
1987 CD           defb CDh    	; 205,  -51
1988 10           defb 10h    	; 16
1989 04           defb 04h    	; 4
198A CA           defb CAh    	; 202,  -54
198B 74           defb 74h    	; 116, 't'
198C 15           defb 15h    	; 21
198D D5           defb D5h    	; 213,  -43
198E CD           defb CDh    	; 205,  -51
198F 72           defb 72h    	; 114, 'r'
1990 19           defb 19h    	; 25
1991 D1           defb D1h    	; 209,  -47


1992 .sub121_loop:
1992 E5           push hl     
1993 C5           push bc     
1994 CD D5 12     call SUB095 	; 12D5h
1997 C1           pop  bc     
1998 E1           pop  hl     
1999 C5           push bc     
199A ED 49        out  (c),c  
199C 47           ld   b,a    
199D 7C           ld   a,h    
199E FE 10        cp   10h    	; 16
19A0 38 03        jr   c,.sub121_l1 	; 19A5h
19A2 70           ld   (hl),b 
19A3 18 05        jr   .sub121_l2 	; 19AAh
19A5 .sub121_l1:
19A5 4D           ld   c,l    
19A6 78           ld   a,b    
19A7 44           ld   b,h    


; Subroutine: Size=34, CC=3.
; Called by: SUB091[1270h].
; Calls: SUB095.
19A8 SUB121:
19A8 ED 79        out  (c),a  
19AA .sub121_l2:
19AA C1           pop  bc     
19AB 23           inc  hl     
19AC D3 7F        out  (007Fh),a 	; 127
19AE 1A           ld   a,(de) 
19AF FE 2C        cp   2Ch    	; 44, ','
19B1 28 DF        jr   z,.sub121_loop 	; 1992h
19B3 C9           ret         


19B4 E1           defb E1h    	; 225,  -31
19B5 F1           defb F1h    	; 241,  -15
19B6 FE           defb FEh    	; 254,   -2
19B7 94           defb 94h    	; 148, -108
19B8 C1           defb C1h    	; 193,  -63
19B9 C1           defb C1h    	; 193,  -63
19BA 28           defb 28h    	; 40, '('
19BB 0B           defb 0Bh    	; 11
19BC FE           defb FEh    	; 254,   -2
19BD 9A           defb 9Ah    	; 154, -102
19BE C2           defb C2h    	; 194,  -62
19BF 58           defb 58h    	; 88, 'X'
19C0 15           defb 15h    	; 21
19C1 C1           defb C1h    	; 193,  -63
19C2 C1           defb C1h    	; 193,  -63
19C3 C1           defb C1h    	; 193,  -63
19C4 C1           defb C1h    	; 193,  -63
19C5 C1           defb C1h    	; 193,  -63
19C6 E9           defb E9h    	; 233,  -23
19C7 CB           defb CBh    	; 203,  -53
19C8 78           defb 78h    	; 120, 'x'
19C9 20           defb 20h    	; 32, ' '
19CA 04           defb 04h    	; 4
19CB FD           defb FDh    	; 253,   -3
19CC 36           defb 36h    	; 54, '6'
19CD 4B           defb 4Bh    	; 75, 'K'
19CE 01           defb 01h    	; 1
19CF E9           defb E9h    	; 233,  -23
19D0 F5           defb F5h    	; 245,  -11
19D1 FD           defb FDh    	; 253,   -3
19D2 CB           defb CBh    	; 203,  -53
19D3 4B           defb 4Bh    	; 75, 'K'
19D4 46           defb 46h    	; 70, 'F'
19D5 28           defb 28h    	; 40, '('
19D6 04           defb 04h    	; 4
19D7 FD           defb FDh    	; 253,   -3
19D8 CB           defb CBh    	; 203,  -53
19D9 4B           defb 4Bh    	; 75, 'K'
19DA FE           defb FEh    	; 254,   -2
19DB F1           defb F1h    	; 241,  -15
19DC C9           defb C9h    	; 201,  -55


; Subroutine: Size=11, CC=2.
; Called by: SUB109[1697h].
; Calls: SUB116.
19DD SUB122:
19DD 1B           dec  de     
19DE 1A           ld   a,(de) 
19DF FE 3A        cp   3Ah    	; 58, ':'
19E1 28 02        jr   z,.sub122_l 	; 19E5h
19E3 1B           dec  de     
19E4 1B           dec  de     
19E5 .sub122_l:
19E5 C3 78 17     jp   SUB116 	; 1778h


19E8 CB           defb CBh    	; 203,  -53
19E9 7C           defb 7Ch    	; 124, '|'
19EA 28           defb 28h    	; 40, '('
19EB 04           defb 04h    	; 4
19EC FD           defb FDh    	; 253,   -3
19ED 36           defb 36h    	; 54, '6'
19EE 4B           defb 4Bh    	; 75, 'K'
19EF 01           defb 01h    	; 1
19F0 CB           defb CBh    	; 203,  -53
19F1 BC           defb BCh    	; 188,  -68
19F2 22           defb 22h    	; 34, '"'
19F3 2E           defb 2Eh    	; 46, '.'
19F4 40           defb 40h    	; 64, '@'
19F5 C9           defb C9h    	; 201,  -55


; Subroutine: Size=36, CC=6.
; Called by: SUB051[089Ch], SUB051[08B2h].
; Calls: -
19F6 SUB123:
19F6 3A 1E 40     ld   a,(VAR_P) 	; 401Eh
19F9 AB           xor  e      
19FA FA 12 1A     jp   m,.sub123_l1 	; 1A12h
19FD 7A           ld   a,d    
19FE FD BE 1F     cp   (iy+31) 
1A01 20 0F        jr   nz,.sub123_l1 	; 1A12h
1A03 ED 4B 20 40  ld   bc,(DATA03) 	; 4020h
1A07 ED 42        sbc  hl,bc  
1A09 7B           ld   a,e    
1A0A FD 9E 1E     sbc  a,(iy+30) 
1A0D 38 03        jr   c,.sub123_l1 	; 1A12h
1A0F B4           or   h      
1A10 B5           or   l      
1A11 C8           ret  z      
1A12 .sub123_l1:
1A12 CB 7B        bit  7,e    
1A14 28 02        jr   z,.sub123_l2 	; 1A18h
1A16 3F           ccf         
1A17 C9           ret         
1A18 .sub123_l2:
1A18 1C           inc  e      
1A19 C9           ret         


1A1A CA           defb CAh    	; 202,  -54
1A1B 5E           defb 5Eh    	; 94, '^'
1A1C 0B           defb 0Bh    	; 11
1A1D FE           defb FEh    	; 254,   -2
1A1E 32           defb 32h    	; 50, '2'
1A1F D2           defb D2h    	; 210,  -46
1A20 6C           defb 6Ch    	; 108, 'l'
1A21 15           defb 15h    	; 21
1A22 C3           defb C3h    	; 195,  -61
1A23 9A           defb 9Ah    	; 154, -102
1A24 13           defb 13h    	; 19
1A25 CD           defb CDh    	; 205,  -51
1A26 E7           defb E7h    	; 231,  -25
1A27 1B           defb 1Bh    	; 27
1A28 D1           defb D1h    	; 209,  -47
1A29 C9           defb C9h    	; 201,  -55
1A2A 00           defb 00h    	; 0
1A2B 00           defb 00h    	; 0
1A2C 00           defb 00h    	; 0
1A2D F1           defb F1h    	; 241,  -15
1A2E D9           defb D9h    	; 217,  -39
1A2F 01           defb 01h    	; 1
1A30 10           defb 10h    	; 16
1A31 00           defb 00h    	; 0
1A32 CD           defb CDh    	; 205,  -51
1A33 78           defb 78h    	; 120, 'x'
1A34 0F           defb 0Fh    	; 15
1A35 D9           defb D9h    	; 217,  -39
1A36 CD           defb CDh    	; 205,  -51
1A37 8B           defb 8Bh    	; 139, -117
1A38 0F           defb 0Fh    	; 15
1A39 E5           defb E5h    	; 229,  -27
1A3A CB           defb CBh    	; 203,  -53
1A3B 69           defb 69h    	; 105, 'i'
1A3C C2           defb C2h    	; 194,  -62
1A3D 74           defb 74h    	; 116, 't'
1A3E 15           defb 15h    	; 21
1A3F CD           defb CDh    	; 205,  -51
1A40 A4           defb A4h    	; 164,  -92
1A41 0D           defb 0Dh    	; 13
1A42 E7           defb E7h    	; 231,  -25
1A43 FE           defb FEh    	; 254,   -2
1A44 A6           defb A6h    	; 166,  -90
1A45 28           defb 28h    	; 40, '('
1A46 05           defb 05h    	; 5
1A47 F1           defb F1h    	; 241,  -15
1A48 1B           defb 1Bh    	; 27
1A49 C3           defb C3h    	; 195,  -61
1A4A 4E           defb 4Eh    	; 78, 'N'
1A4B 16           defb 16h    	; 22
1A4C CD           defb CDh    	; 205,  -51
1A4D CD           defb CDh    	; 205,  -51
1A4E 10           defb 10h    	; 16
1A4F D9           defb D9h    	; 217,  -39
1A50 CD           defb CDh    	; 205,  -51
1A51 26           defb 26h    	; 38, '&'
1A52 07           defb 07h    	; 7
1A53 D5           defb D5h    	; 213,  -43
1A54 E5           defb E5h    	; 229,  -27
1A55 D9           defb D9h    	; 217,  -39
1A56 E7           defb E7h    	; 231,  -25
1A57 FE           defb FEh    	; 254,   -2
1A58 A3           defb A3h    	; 163,  -93
1A59 28           defb 28h    	; 40, '('
1A5A 0D           defb 0Dh    	; 13
1A5B 1B           defb 1Bh    	; 27
1A5C 21           defb 21h    	; 33, '!'
1A5D 00           defb 00h    	; 0
1A5E 81           defb 81h    	; 129, -127
1A5F 22           defb 22h    	; 34, '"'
1A60 1E           defb 1Eh    	; 30
1A61 40           defb 40h    	; 64, '@'
1A62 65           defb 65h    	; 101, 'e'
1A63 22           defb 22h    	; 34, '"'
1A64 20           defb 20h    	; 32, ' '
1A65 40           defb 40h    	; 64, '@'
1A66 18           defb 18h    	; 24
1A67 03           defb 03h    	; 3
1A68 CD           defb CDh    	; 205,  -51
1A69 CD           defb CDh    	; 205,  -51
1A6A 10           defb 10h    	; 16
1A6B D9           defb D9h    	; 217,  -39
1A6C CD           defb CDh    	; 205,  -51
1A6D 26           defb 26h    	; 38, '&'
1A6E 07           defb 07h    	; 7
1A6F D5           defb D5h    	; 213,  -43
1A70 E5           defb E5h    	; 229,  -27
1A71 D9           defb D9h    	; 217,  -39
1A72 D5           defb D5h    	; 213,  -43
1A73 2A           defb 2Ah    	; 42, '*'
1A74 2E           defb 2Eh    	; 46, '.'
1A75 40           defb 40h    	; 64, '@'
1A76 E5           defb E5h    	; 229,  -27
1A77 01           defb 01h    	; 1


; Data accessed by:
; 0080h(in SUB002)
1A78 DATA01:
1A78 00           defb 00h    	; 0
1A79 9A           defb 9Ah    	; 154, -102
1A7A C5           defb C5h    	; 197,  -59
1A7B C3           defb C3h    	; 195,  -61
1A7C 4E           defb 4Eh    	; 78, 'N'
1A7D 16           defb 16h    	; 22
1A7E F1           defb F1h    	; 241,  -15
1A7F F1           defb F1h    	; 241,  -15
1A80 FE           defb FEh    	; 254,   -2
1A81 9A           defb 9Ah    	; 154, -102
1A82 C2           defb C2h    	; 194,  -62
1A83 58           defb 58h    	; 88, 'X'
1A84 15           defb 15h    	; 21
1A85 E1           defb E1h    	; 225,  -31
1A86 22           defb 22h    	; 34, '"'
1A87 39           defb 39h    	; 57, '9'
1A88 40           defb 40h    	; 64, '@'
1A89 E1           defb E1h    	; 225,  -31
1A8A 22           defb 22h    	; 34, '"'
1A8B 35           defb 35h    	; 53, '5'
1A8C 40           defb 40h    	; 64, '@'
1A8D E1           defb E1h    	; 225,  -31
1A8E 22           defb 22h    	; 34, '"'
1A8F 28           defb 28h    	; 40, '('
1A90 40           defb 40h    	; 64, '@'
1A91 E1           defb E1h    	; 225,  -31
1A92 22           defb 22h    	; 34, '"'
1A93 2A           defb 2Ah    	; 42, '*'
1A94 40           defb 40h    	; 64, '@'
1A95 D9           defb D9h    	; 217,  -39
1A96 E1           defb E1h    	; 225,  -31
1A97 D1           defb D1h    	; 209,  -47
1A98 D9           defb D9h    	; 217,  -39
1A99 E1           defb E1h    	; 225,  -31
1A9A 18           defb 18h    	; 24
1A9B 18           defb 18h    	; 24


; Label accessed by:
; 16A6h(in SUB109)
1A9C LBL11:
1A9C 97           sub  a      
1A9D .lbl11_loop:
1A9D FD CB 49 7E  bit  7,(iy+73) 
1AA1 C2 70 15     jp   nz,PRINT_SN_ERROR 	; 1570h
1AA4 C3 17 15     jp   LBL03  	; 1517h


; Subroutine: Size=29, CC=3.
; Called by: SUB089[119Ah].
; Calls: SUB091.
1AA7 SUB124:
1AA7 FE C9        cp   C9h    	; 201,  -55
1AA9 DA 2A 12     jp   c,SUB091 	; 122Ah
1AAC 3E 01        ld   a,01h  	; 1
1AAE 18 ED        jr   .lbl11_loop 	; 1A9Dh


1AB0 00           defb 00h    	; 0
1AB1 00           defb 00h    	; 0
1AB2 00           defb 00h    	; 0
1AB3 00           defb 00h    	; 0
1AB4 97           defb 97h    	; 151, -105
1AB5 E5           defb E5h    	; 229,  -27
1AB6 D9           defb D9h    	; 217,  -39
1AB7 C1           defb C1h    	; 193,  -63
1AB8 C5           defb C5h    	; 197,  -59
1AB9 D5           defb D5h    	; 213,  -43
1ABA E5           defb E5h    	; 229,  -27
1ABB D9           defb D9h    	; 217,  -39
1ABC CD           defb CDh    	; 205,  -51
1ABD 16           defb 16h    	; 22
1ABE 12           defb 12h    	; 18
1ABF 2A           defb 2Ah    	; 42, '*'
1AC0 28           defb 28h    	; 40, '('
1AC1 40           defb 40h    	; 64, '@'
1AC2 ED           defb EDh    	; 237,  -19
1AC3 4B           defb 4Bh    	; 75, 'K'
1AC4 2A           defb 2Ah    	; 42, '*'
1AC5 40           defb 40h    	; 64, '@'
1AC6 C5           defb C5h    	; 197,  -59
1AC7 E5           defb E5h    	; 229,  -27
1AC8 D5           defb D5h    	; 213,  -43
1AC9 50           defb 50h    	; 80, 'P'
1ACA 59           defb 59h    	; 89, 'Y'
1ACB CD           defb CDh    	; 205,  -51
1ACC 1B           defb 1Bh    	; 27
1ACD 07           defb 07h    	; 7
1ACE D9           defb D9h    	; 217,  -39
1ACF E5           defb E5h    	; 229,  -27
1AD0 60           defb 60h    	; 96, '`'
1AD1 69           defb 69h    	; 105, 'i'
1AD2 97           defb 97h    	; 151, -105
1AD3 CD           defb CDh    	; 205,  -51
1AD4 DF           defb DFh    	; 223,  -33
1AD5 0D           defb 0Dh    	; 13
1AD6 E1           defb E1h    	; 225,  -31
1AD7 CD           defb CDh    	; 205,  -51
1AD8 F6           defb F6h    	; 246,  -10
1AD9 19           defb 19h    	; 25
1ADA D1           defb D1h    	; 209,  -47
1ADB 28           defb 28h    	; 40, '('
1ADC 09           defb 09h    	; 9
1ADD FD           defb FDh    	; 253,   -3
1ADE CB           defb CBh    	; 203,  -53
1ADF 2A           defb 2Ah    	; 42, '*'
1AE0 7E           defb 7Eh    	; 126, '~'
1AE1 28           defb 28h    	; 40, '('
1AE2 01           defb 01h    	; 1
1AE3 3F           defb 3Fh    	; 63, '?'
1AE4 38           defb 38h    	; 56, '8'
1AE5 17           defb 17h    	; 23
1AE6 ED           defb EDh    	; 237,  -19
1AE7 5B           defb 5Bh    	; 91, '['
1AE8 35           defb 35h    	; 53, '5'
1AE9 40           defb 40h    	; 64, '@'
1AEA D5           defb D5h    	; 213,  -43
1AEB 2A           defb 2Ah    	; 42, '*'
1AEC 39           defb 39h    	; 57, '9'
1AED 40           defb 40h    	; 64, '@'
1AEE 22           defb 22h    	; 34, '"'
1AEF 2E           defb 2Eh    	; 46, '.'
1AF0 40           defb 40h    	; 64, '@'
1AF1 E5           defb E5h    	; 229,  -27
1AF2 21           defb 21h    	; 33, '!'
1AF3 00           defb 00h    	; 0
1AF4 9A           defb 9Ah    	; 154, -102
1AF5 E5           defb E5h    	; 229,  -27
1AF6 FD           defb FDh    	; 253,   -3
1AF7 CB           defb CBh    	; 203,  -53
1AF8 32           defb 32h    	; 50, '2'
1AF9 8E           defb 8Eh    	; 142, -114
1AFA C3           defb C3h    	; 195,  -61
1AFB 4E           defb 4Eh    	; 78, 'N'
1AFC 16           defb 16h    	; 22
1AFD E1           defb E1h    	; 225,  -31
1AFE E1           defb E1h    	; 225,  -31
1AFF E1           defb E1h    	; 225,  -31
1B00 E1           defb E1h    	; 225,  -31
1B01 E1           defb E1h    	; 225,  -31
1B02 E7           defb E7h    	; 231,  -25
1B03 FE           defb FEh    	; 254,   -2
1B04 2C           defb 2Ch    	; 44, ','
1B05 CA           defb CAh    	; 202,  -54
1B06 7F           defb 7Fh    	; 127
1B07 1A           defb 1Ah    	; 26
1B08 1B           defb 1Bh    	; 27
1B09 C3           defb C3h    	; 195,  -61
1B0A 4E           defb 4Eh    	; 78, 'N'
1B0B 16           defb 16h    	; 22
1B0C CD           defb CDh    	; 205,  -51
1B0D 8B           defb 8Bh    	; 139, -117
1B0E 0F           defb 0Fh    	; 15
1B0F D5           defb D5h    	; 213,  -43
1B10 11           defb 11h    	; 17
1B11 44           defb 44h    	; 68, 'D'
1B12 1B           defb 1Bh    	; 27
1B13 D5           defb D5h    	; 213,  -43
1B14 E5           defb E5h    	; 229,  -27
1B15 C5           defb C5h    	; 197,  -59
1B16 ED           defb EDh    	; 237,  -19
1B17 5B           defb 5Bh    	; 91, '['
1B18 37           defb 37h    	; 55, '7'
1B19 40           defb 40h    	; 64, '@'
1B1A 2A           defb 2Ah    	; 42, '*'
1B1B 30           defb 30h    	; 48, '0'
1B1C 40           defb 40h    	; 64, '@'
1B1D A7           defb A7h    	; 167,  -89
1B1E ED           defb EDh    	; 237,  -19
1B1F 52           defb 52h    	; 82, 'R'
1B20 28           defb 28h    	; 40, '('
1B21 0D           defb 0Dh    	; 13
1B22 E7           defb E7h    	; 231,  -25
1B23 28           defb 28h    	; 40, '('
1B24 0A           defb 0Ah    	; 10
1B25 FE           defb FEh    	; 254,   -2
1B26 2C           defb 2Ch    	; 44, ','
1B27 28           defb 28h    	; 40, '('
1B28 18           defb 18h    	; 24
1B29 C3           defb C3h    	; 195,  -61
1B2A 70           defb 70h    	; 112, 'p'
1B2B 15           defb 15h    	; 21
1B2C E7           defb E7h    	; 231,  -25
1B2D 20           defb 20h    	; 32, ' '
1B2E 0E           defb 0Eh    	; 14
1B2F E7           defb E7h    	; 231,  -25
1B30 67           defb 67h    	; 103, 'g'
1B31 E7           defb E7h    	; 231,  -25
1B32 6F           defb 6Fh    	; 111, 'o'
1B33 01           defb 01h    	; 1
1B34 FF           defb FFh    	; 255,   -1
1B35 7F           defb 7Fh    	; 127
1B36 A7           defb A7h    	; 167,  -89
1B37 ED           defb EDh    	; 237,  -19
1B38 42           defb 42h    	; 66, 'B'
1B39 D2           defb D2h    	; 210,  -46
1B3A 5C           defb 5Ch    	; 92, '\'
1B3B 15           defb 15h    	; 21
1B3C E7           defb E7h    	; 231,  -25
1B3D FE           defb FEh    	; 254,   -2
1B3E 97           defb 97h    	; 151, -105
1B3F 20           defb 20h    	; 32, ' '
1B40 EB           defb EBh    	; 235,  -21
1B41 C3           defb C3h    	; 195,  -61
1B42 AC           defb ACh    	; 172,  -84
1B43 0D           defb 0Dh    	; 13
1B44 ED           defb EDh    	; 237,  -19
1B45 53           defb 53h    	; 83, 'S'
1B46 37           defb 37h    	; 55, '7'
1B47 40           defb 40h    	; 64, '@'
1B48 D1           defb D1h    	; 209,  -47
1B49 E7           defb E7h    	; 231,  -25
1B4A FE           defb FEh    	; 254,   -2
1B4B 2C           defb 2Ch    	; 44, ','
1B4C 28           defb 28h    	; 40, '('
1B4D BE           defb BEh    	; 190,  -66
1B4E 1B           defb 1Bh    	; 27
1B4F C9           defb C9h    	; 201,  -55
1B50 CD           defb CDh    	; 205,  -51
1B51 00           defb 00h    	; 0
1B52 18           defb 18h    	; 24
1B53 1A           defb 1Ah    	; 26
1B54 FE           defb FEh    	; 254,   -2
1B55 23           defb 23h    	; 35, '#'
1B56 20           defb 20h    	; 32, ' '
1B57 0B           defb 0Bh    	; 11
1B58 13           defb 13h    	; 19
1B59 CD           defb CDh    	; 205,  -51
1B5A DB           defb DBh    	; 219,  -37
1B5B 12           defb 12h    	; 18
1B5C A7           defb A7h    	; 167,  -89
1B5D 28           defb 28h    	; 40, '('
1B5E 04           defb 04h    	; 4
1B5F 2A           defb 2Ah    	; 42, '*'
1B60 0E           defb 0Eh    	; 14
1B61 40           defb 40h    	; 64, '@'
1B62 E9           defb E9h    	; 233,  -23
1B63 26           defb 26h    	; 38, '&'
1B64 FF           defb FFh    	; 255,   -1
1B65 E7           defb E7h    	; 231,  -25
1B66 28           defb 28h    	; 40, '('
1B67 0D           defb 0Dh    	; 13
1B68 FE           defb FEh    	; 254,   -2
1B69 40           defb 40h    	; 64, '@'
1B6A 38           defb 38h    	; 56, '8'
1B6B 04           defb 04h    	; 4
1B6C FE           defb FEh    	; 254,   -2
1B6D 80           defb 80h    	; 128, -128
1B6E 38           defb 38h    	; 56, '8'
1B6F 07           defb 07h    	; 7
1B70 CD           defb CDh    	; 205,  -51
1B71 8E           defb 8Eh    	; 142, -114
1B72 04           defb 04h    	; 4
1B73 38           defb 38h    	; 56, '8'
1B74 F0           defb F0h    	; 240,  -16
1B75 1B           defb 1Bh    	; 27
1B76 C9           defb C9h    	; 201,  -55
1B77 1B           defb 1Bh    	; 27
1B78 3E           defb 3Eh    	; 62, '>'
1B79 3F           defb 3Fh    	; 63, '?'
1B7A 24           defb 24h    	; 36, '$'
1B7B 20           defb 20h    	; 32, ' '
1B7C 01           defb 01h    	; 1
1B7D EF           defb EFh    	; 239,  -17
1B7E 3E           defb 3Eh    	; 62, '>'
1B7F 01           defb 01h    	; 1
1B80 EF           defb EFh    	; 239,  -17
1B81 D5           defb D5h    	; 213,  -43
1B82 CD           defb CDh    	; 205,  -51
1B83 8B           defb 8Bh    	; 139, -117
1B84 0F           defb 0Fh    	; 15
1B85 D5           defb D5h    	; 213,  -43
1B86 EB           defb EBh    	; 235,  -21
1B87 2A           defb 2Ah    	; 42, '*'
1B88 14           defb 14h    	; 20
1B89 40           defb 40h    	; 64, '@'
1B8A E5           defb E5h    	; 229,  -27
1B8B 2A           defb 2Ah    	; 42, '*'
1B8C 49           defb 49h    	; 73, 'I'
1B8D 40           defb 40h    	; 64, '@'
1B8E E5           defb E5h    	; 229,  -27
1B8F 21           defb 21h    	; 33, '!'
1B90 01           defb 01h    	; 1
1B91 01           defb 01h    	; 1
1B92 E5           defb E5h    	; 229,  -27
1B93 21           defb 21h    	; 33, '!'
1B94 C2           defb C2h    	; 194,  -62
1B95 1B           defb 1Bh    	; 27
1B96 E5           defb E5h    	; 229,  -27
1B97 21           defb 21h    	; 33, '!'
1B98 CF           defb CFh    	; 207,  -49
1B99 1B           defb 1Bh    	; 27
1B9A 22           defb 22h    	; 34, '"'
1B9B 49           defb 49h    	; 73, 'I'
1B9C 40           defb 40h    	; 64, '@'
1B9D D5           defb D5h    	; 213,  -43
1B9E C5           defb C5h    	; 197,  -59
1B9F CD           defb CDh    	; 205,  -51
1BA0 46           defb 46h    	; 70, 'F'
1BA1 05           defb 05h    	; 5
1BA2 2A           defb 2Ah    	; 42, '*'
1BA3 1C           defb 1Ch    	; 28
1BA4 40           defb 40h    	; 64, '@'
1BA5 C1           defb C1h    	; 193,  -63
1BA6 C5           defb C5h    	; 197,  -59
1BA7 E5           defb E5h    	; 229,  -27
1BA8 FD           defb FDh    	; 253,   -3
1BA9 36           defb 36h    	; 54, '6'
1BAA 1E           defb 1Eh    	; 30
1BAB 33           defb 33h    	; 51, '3'
1BAC CB           defb CBh    	; 203,  -53
1BAD 69           defb 69h    	; 105, 'i'
1BAE 3E           defb 3Eh    	; 62, '>'
1BAF 22           defb 22h    	; 34, '"'
1BB0 0E           defb 0Eh    	; 14
1BB1 00           defb 00h    	; 0
1BB2 20           defb 20h    	; 32, ' '
1BB3 04           defb 04h    	; 4
1BB4 E7           defb E7h    	; 231,  -25
1BB5 CA           defb CAh    	; 202,  -54
1BB6 70           defb 70h    	; 112, 'p'
1BB7 15           defb 15h    	; 21
1BB8 CD           defb CDh    	; 205,  -51
1BB9 B2           defb B2h    	; 178,  -78
1BBA 0C           defb 0Ch    	; 12
1BBB D1           defb D1h    	; 209,  -47
1BBC 22           defb 22h    	; 34, '"'
1BBD 1C           defb 1Ch    	; 28
1BBE 40           defb 40h    	; 64, '@'
1BBF C3           defb C3h    	; 195,  -61
1BC0 AC           defb ACh    	; 172,  -84
1BC1 0D           defb 0Dh    	; 13
1BC2 3E           defb 3Eh    	; 62, '>'
1BC3 0D           defb 0Dh    	; 13
1BC4 EF           defb EFh    	; 239,  -17
1BC5 F1           defb F1h    	; 241,  -15
1BC6 E1           defb E1h    	; 225,  -31
1BC7 22           defb 22h    	; 34, '"'
1BC8 49           defb 49h    	; 73, 'I'
1BC9 40           defb 40h    	; 64, '@'
1BCA E1           defb E1h    	; 225,  -31
1BCB D1           defb D1h    	; 209,  -47
1BCC E1           defb E1h    	; 225,  -31
1BCD 18           defb 18h    	; 24
1BCE 81           defb 81h    	; 129, -127
1BCF E1           defb E1h    	; 225,  -31
1BD0 7C           defb 7Ch    	; 124, '|'
1BD1 B5           defb B5h    	; 181,  -75
1BD2 3D           defb 3Dh    	; 61, '='
1BD3 20           defb 20h    	; 32, ' '
1BD4 FA           defb FAh    	; 250,   -6
1BD5 E1           defb E1h    	; 225,  -31
1BD6 22           defb 22h    	; 34, '"'
1BD7 49           defb 49h    	; 73, 'I'
1BD8 40           defb 40h    	; 64, '@'
1BD9 E1           defb E1h    	; 225,  -31
1BDA CD           defb CDh    	; 205,  -51
1BDB 77           defb 77h    	; 119, 'w'
1BDC 02           defb 02h    	; 2
1BDD E1           defb E1h    	; 225,  -31
1BDE D1           defb D1h    	; 209,  -47
1BDF 3E           defb 3Eh    	; 62, '>'
1BE0 05           defb 05h    	; 5
1BE1 EF           defb EFh    	; 239,  -17
1BE2 18           defb 18h    	; 24
1BE3 9A           defb 9Ah    	; 154, -102
1BE4 11           defb 11h    	; 17
1BE5 00           defb 00h    	; 0
1BE6 00           defb 00h    	; 0
1BE7 E7           defb E7h    	; 231,  -25
1BE8 D6           defb D6h    	; 214,  -42
1BE9 20           defb 20h    	; 32, ' '
1BEA C8           defb C8h    	; 200,  -56
1BEB FE           defb FEh    	; 254,   -2
1BEC 20           defb 20h    	; 32, ' '
1BED 30           defb 30h    	; 48, '0'
1BEE 09           defb 09h    	; 9
1BEF 3D           defb 3Dh    	; 61, '='
1BF0 28           defb 28h    	; 40, '('
1BF1 01           defb 01h    	; 1
1BF2 3F           defb 3Fh    	; 63, '?'
1BF3 8F           defb 8Fh    	; 143, -113
1BF4 87           defb 87h    	; 135, -121
1BF5 4F           defb 4Fh    	; 79, 'O'
1BF6 18           defb 18h    	; 24
1BF7 EF           defb EFh    	; 239,  -17
1BF8 CD           defb CDh    	; 205,  -51
1BF9 E1           defb E1h    	; 225,  -31
1BFA 18           defb 18h    	; 24
1BFB 18           defb 18h    	; 24
1BFC EA           defb EAh    	; 234,  -22


; Subroutine: Size=47, CC=7.
; Called by: SUB132[1F6Eh].
; Calls: SUB036, LBL06.
1BFD SUB125:
1BFD 3A 1E 40     ld   a,(VAR_P) 	; 401Eh
1C00 AB           xor  e      
1C01 08           ex   af,af' 
1C02 7A           ld   a,d    
1C03 A7           and  a      
1C04 28 19        jr   z,.sub125_l2 	; 1C1Fh
1C06 3A 1F 40     ld   a,(DATA02) 	; 401Fh
1C09 A7           and  a      
1C0A 28 13        jr   z,.sub125_l2 	; 1C1Fh
1C0C 82           add  a,d    
1C0D FA 13 1C     jp   m,.sub125_l1 	; 1C13h
1C10 30 0D        jr   nc,.sub125_l2 	; 1C1Fh
1C12 A7           and  a      
1C13 .sub125_l1:
1C13 DA 64 15     jp   c,LBL06 	; 1564h
1C16 C6 80        add  a,80h  	; 128, -128
1C18 FD CB 1E FE  set  7,(iy+30) 
1C1C CB FB        set  7,e    
1C1E C0           ret  nz     
1C1F .sub125_l2:
1C1F C3 9E 06     jp   SUB036 	; 069Eh


1C22 FE           defb FEh    	; 254,   -2
1C23 22           defb 22h    	; 34, '"'
1C24 20           defb 20h    	; 32, ' '
1C25 03           defb 03h    	; 3
1C26 FD           defb FDh    	; 253,   -3
1C27 34           defb 34h    	; 52, '4'
1C28 5F           defb 5Fh    	; 95, '_'
1C29 FD           defb FDh    	; 253,   -3
1C2A CB           defb CBh    	; 203,  -53
1C2B 5F           defb 5Fh    	; 95, '_'
1C2C 46           defb 46h    	; 70, 'F'
1C2D 28           defb 28h    	; 40, '('
1C2E 06           defb 06h    	; 6
1C2F FE           defb FEh    	; 254,   -2
1C30 10           defb 10h    	; 16
1C31 30           defb 30h    	; 48, '0'
1C32 02           defb 02h    	; 2
1C33 C6           defb C6h    	; 198,  -58
1C34 10           defb 10h    	; 16
1C35 C3           defb C3h    	; 195,  -61
1C36 83           defb 83h    	; 131, -125
1C37 02           defb 02h    	; 2
1C38 E1           defb E1h    	; 225,  -31
1C39 C3           defb C3h    	; 195,  -61
1C3A 5A           defb 5Ah    	; 90, 'Z'
1C3B 16           defb 16h    	; 22
1C3C 8D           defb 8Dh    	; 141, -115
1C3D DE           defb DEh    	; 222,  -34
1C3E AB           defb ABh    	; 171,  -85
1C3F AD           defb ADh    	; 173,  -83
1C40 AA           defb AAh    	; 170,  -86
1C41 AF           defb AFh    	; 175,  -81
1C42 BE           defb BEh    	; 190,  -66
1C43 BC           defb BCh    	; 188,  -68
1C44 BD           defb BDh    	; 189,  -67
1C45 50           defb 50h    	; 80, 'P'
1C46 E9           defb E9h    	; 233,  -23
1C47 52           defb 52h    	; 82, 'R'
1C48 65           defb 65h    	; 101, 'e'
1C49 ED           defb EDh    	; 237,  -19
1C4A 43           defb 43h    	; 67, 'C'
1C4B F2           defb F2h    	; 242,  -14
1C4C 48           defb 48h    	; 72, 'H'
1C4D ED           defb EDh    	; 237,  -19
1C4E 49           defb 49h    	; 73, 'I'
1C4F 6E           defb 6Eh    	; 110, 'n'
1C50 6B           defb 6Bh    	; 107, 'k'
1C51 65           defb 65h    	; 101, 'e'
1C52 F9           defb F9h    	; 249,   -7
1C53 61           defb 61h    	; 97, 'a'
1C54 6E           defb 6Eh    	; 110, 'n'
1C55 E4           defb E4h    	; 228,  -28
1C56 6F           defb 6Fh    	; 111, 'o'
1C57 F2           defb F2h    	; 242,  -14
1C58 63           defb 63h    	; 99, 'c'
1C59 75           defb 75h    	; 117, 'u'
1C5A F2           defb F2h    	; 242,  -14
1C5B 44           defb 44h    	; 68, 'D'
1C5C 69           defb 69h    	; 105, 'i'
1C5D ED           defb EDh    	; 237,  -19
1C5E 45           defb 45h    	; 69, 'E'
1C5F 6E           defb 6Eh    	; 110, 'n'
1C60 E4           defb E4h    	; 228,  -28
1C61 46           defb 46h    	; 70, 'F'
1C62 6F           defb 6Fh    	; 111, 'o'
1C63 F2           defb F2h    	; 242,  -14
1C64 47           defb 47h    	; 71, 'G'
1C65 6F           defb 6Fh    	; 111, 'o'
1C66 74           defb 74h    	; 116, 't'
1C67 EF           defb EFh    	; 239,  -17
1C68 47           defb 47h    	; 71, 'G'
1C69 6F           defb 6Fh    	; 111, 'o'
1C6A 73           defb 73h    	; 115, 's'
1C6B 75           defb 75h    	; 117, 'u'
1C6C E2           defb E2h    	; 226,  -30
1C6D 49           defb 49h    	; 73, 'I'
1C6E E6           defb E6h    	; 230,  -26
1C6F 43           defb 43h    	; 67, 'C'
1C70 6F           defb 6Fh    	; 111, 'o'
1C71 6E           defb 6Eh    	; 110, 'n'
1C72 F4           defb F4h    	; 244,  -12
1C73 44           defb 44h    	; 68, 'D'
1C74 61           defb 61h    	; 97, 'a'
1C75 74           defb 74h    	; 116, 't'
1C76 E1           defb E1h    	; 225,  -31
1C77 4C           defb 4Ch    	; 76, 'L'
1C78 69           defb 69h    	; 105, 'i'
1C79 73           defb 73h    	; 115, 's'
1C7A F4           defb F4h    	; 244,  -12
1C7B 52           defb 52h    	; 82, 'R'
1C7C 65           defb 65h    	; 101, 'e'
1C7D 61           defb 61h    	; 97, 'a'
1C7E E4           defb E4h    	; 228,  -28
1C7F 4E           defb 4Eh    	; 78, 'N'
1C80 65           defb 65h    	; 101, 'e'
1C81 78           defb 78h    	; 120, 'x'
1C82 F4           defb F4h    	; 244,  -12
1C83 4F           defb 4Fh    	; 79, 'O'
1C84 EE           defb EEh    	; 238,  -18
1C85 50           defb 50h    	; 80, 'P'
1C86 6F           defb 6Fh    	; 111, 'o'
1C87 6B           defb 6Bh    	; 107, 'k'
1C88 E5           defb E5h    	; 229,  -27
1C89 45           defb 45h    	; 69, 'E'
1C8A 78           defb 78h    	; 120, 'x'
1C8B F4           defb F4h    	; 244,  -12
1C8C 52           defb 52h    	; 82, 'R'
1C8D 65           defb 65h    	; 101, 'e'
1C8E 74           defb 74h    	; 116, 't'
1C8F 75           defb 75h    	; 117, 'u'
1C90 72           defb 72h    	; 114, 'r'
1C91 EE           defb EEh    	; 238,  -18
1C92 53           defb 53h    	; 83, 'S'
1C93 61           defb 61h    	; 97, 'a'
1C94 76           defb 76h    	; 118, 'v'
1C95 E5           defb E5h    	; 229,  -27
1C96 74           defb 74h    	; 116, 't'
1C97 68           defb 68h    	; 104, 'h'
1C98 65           defb 65h    	; 101, 'e'
1C99 EE           defb EEh    	; 238,  -18
1C9A 4C           defb 4Ch    	; 76, 'L'
1C9B 6F           defb 6Fh    	; 111, 'o'
1C9C 61           defb 61h    	; 97, 'a'
1C9D E4           defb E4h    	; 228,  -28
1C9E 52           defb 52h    	; 82, 'R'
1C9F 65           defb 65h    	; 101, 'e'
1CA0 73           defb 73h    	; 115, 's'
1CA1 74           defb 74h    	; 116, 't'
1CA2 6F           defb 6Fh    	; 111, 'o'
1CA3 72           defb 72h    	; 114, 'r'
1CA4 E5           defb E5h    	; 229,  -27
1CA5 73           defb 73h    	; 115, 's'
1CA6 74           defb 74h    	; 116, 't'
1CA7 65           defb 65h    	; 101, 'e'
1CA8 F0           defb F0h    	; 240,  -16
1CA9 50           defb 50h    	; 80, 'P'
1CAA 6F           defb 6Fh    	; 111, 'o'
1CAB F0           defb F0h    	; 240,  -16
1CAC 4E           defb 4Eh    	; 78, 'N'
1CAD 65           defb 65h    	; 101, 'e'
1CAE F7           defb F7h    	; 247,   -9
1CAF 74           defb 74h    	; 116, 't'
1CB0 EF           defb EFh    	; 239,  -17
1CB1 42           defb 42h    	; 66, 'B'
1CB2 65           defb 65h    	; 101, 'e'
1CB3 65           defb 65h    	; 101, 'e'
1CB4 F0           defb F0h    	; 240,  -16
1CB5 50           defb 50h    	; 80, 'P'
1CB6 72           defb 72h    	; 114, 'r'
1CB7 69           defb 69h    	; 105, 'i'
1CB8 6E           defb 6Eh    	; 110, 'n'
1CB9 F4           defb F4h    	; 244,  -12
1CBA 52           defb 52h    	; 82, 'R'
1CBB 75           defb 75h    	; 117, 'u'
1CBC EE           defb EEh    	; 238,  -18
1CBD 4D           defb 4Dh    	; 77, 'M'
1CBE 6F           defb 6Fh    	; 111, 'o'
1CBF EE           defb EEh    	; 238,  -18
1CC0 6E           defb 6Eh    	; 110, 'n'
1CC1 6F           defb 6Fh    	; 111, 'o'
1CC2 F4           defb F4h    	; 244,  -12
1CC3 50           defb 50h    	; 80, 'P'
1CC4 6C           defb 6Ch    	; 108, 'l'
1CC5 6F           defb 6Fh    	; 111, 'o'
1CC6 F4           defb F4h    	; 244,  -12
1CC7 43           defb 43h    	; 67, 'C'
1CC8 61           defb 61h    	; 97, 'a'
1CC9 6C           defb 6Ch    	; 108, 'l'
1CCA EC           defb ECh    	; 236,  -20
1CCB 49           defb 49h    	; 73, 'I'
1CCC 6E           defb 6Eh    	; 110, 'n'
1CCD 70           defb 70h    	; 112, 'p'
1CCE 75           defb 75h    	; 117, 'u'
1CCF F4           defb F4h    	; 244,  -12
1CD0 73           defb 73h    	; 115, 's'
1CD1 74           defb 74h    	; 116, 't'
1CD2 72           defb 72h    	; 114, 'r'
1CD3 A4           defb A4h    	; 164,  -92
1CD4 6C           defb 6Ch    	; 108, 'l'
1CD5 66           defb 66h    	; 102, 'f'
1CD6 74           defb 74h    	; 116, 't'
1CD7 A4           defb A4h    	; 164,  -92
1CD8 72           defb 72h    	; 114, 'r'
1CD9 67           defb 67h    	; 103, 'g'
1CDA 68           defb 68h    	; 104, 'h'
1CDB A4           defb A4h    	; 164,  -92
1CDC 63           defb 63h    	; 99, 'c'
1CDD 68           defb 68h    	; 104, 'h'
1CDE 72           defb 72h    	; 114, 'r'
1CDF A4           defb A4h    	; 164,  -92
1CE0 6D           defb 6Dh    	; 109, 'm'
1CE1 69           defb 69h    	; 105, 'i'
1CE2 64           defb 64h    	; 100, 'd'
1CE3 A4           defb A4h    	; 164,  -92
1CE4 69           defb 69h    	; 105, 'i'
1CE5 6E           defb 6Eh    	; 110, 'n'
1CE6 F4           defb F4h    	; 244,  -12
1CE7 61           defb 61h    	; 97, 'a'
1CE8 73           defb 73h    	; 115, 's'
1CE9 E3           defb E3h    	; 227,  -29
1CEA 6C           defb 6Ch    	; 108, 'l'
1CEB 65           defb 65h    	; 101, 'e'
1CEC EE           defb EEh    	; 238,  -18
1CED 61           defb 61h    	; 97, 'a'
1CEE 62           defb 62h    	; 98, 'b'
1CEF F3           defb F3h    	; 243,  -13
1CF0 73           defb 73h    	; 115, 's'
1CF1 67           defb 67h    	; 103, 'g'
1CF2 EE           defb EEh    	; 238,  -18
1CF3 63           defb 63h    	; 99, 'c'
1CF4 6F           defb 6Fh    	; 111, 'o'
1CF5 F3           defb F3h    	; 243,  -13
1CF6 70           defb 70h    	; 112, 'p'
1CF7 65           defb 65h    	; 101, 'e'
1CF8 65           defb 65h    	; 101, 'e'
1CF9 EB           defb EBh    	; 235,  -21
1CFA 73           defb 73h    	; 115, 's'
1CFB 71           defb 71h    	; 113, 'q'
1CFC F2           defb F2h    	; 242,  -14
1CFD 72           defb 72h    	; 114, 'r'
1CFE 6E           defb 6Eh    	; 110, 'n'
1CFF E4           defb E4h    	; 228,  -28
1D00 73           defb 73h    	; 115, 's'
1D01 69           defb 69h    	; 105, 'i'
1D02 EE           defb EEh    	; 238,  -18
1D03 74           defb 74h    	; 116, 't'
1D04 61           defb 61h    	; 97, 'a'
1D05 EE           defb EEh    	; 238,  -18
1D06 75           defb 75h    	; 117, 'u'
1D07 73           defb 73h    	; 115, 's'
1D08 F2           defb F2h    	; 242,  -14
1D09 76           defb 76h    	; 118, 'v'
1D0A 61           defb 61h    	; 97, 'a'
1D0B EC           defb ECh    	; 236,  -20
1D0C 61           defb 61h    	; 97, 'a'
1D0D 74           defb 74h    	; 116, 't'
1D0E EE           defb EEh    	; 238,  -18
1D0F 70           defb 70h    	; 112, 'p'
1D10 6F           defb 6Fh    	; 111, 'o'
1D11 69           defb 69h    	; 105, 'i'
1D12 6E           defb 6Eh    	; 110, 'n'
1D13 F4           defb F4h    	; 244,  -12
1D14 65           defb 65h    	; 101, 'e'
1D15 78           defb 78h    	; 120, 'x'
1D16 F0           defb F0h    	; 240,  -16
1D17 6C           defb 6Ch    	; 108, 'l'
1D18 6F           defb 6Fh    	; 111, 'o'
1D19 E7           defb E7h    	; 231,  -25
1D1A 8D           defb 8Dh    	; 141, -115
1D1B 8D           defb 8Dh    	; 141, -115
1D1C 8D           defb 8Dh    	; 141, -115
1D1D 66           defb 66h    	; 102, 'f'
1D1E 72           defb 72h    	; 114, 'r'
1D1F E5           defb E5h    	; 229,  -27
1D20 44           defb 44h    	; 68, 'D'
1D21 E4           defb E4h    	; 228,  -28
1D22 43           defb 43h    	; 67, 'C'
1D23 EE           defb EEh    	; 238,  -18
1D24 50           defb 50h    	; 80, 'P'
1D25 F0           defb F0h    	; 240,  -16
1D26 4F           defb 4Fh    	; 79, 'O'
1D27 E4           defb E4h    	; 228,  -28
1D28 55           defb 55h    	; 85, 'U'
1D29 E6           defb E6h    	; 230,  -26
1D2A 53           defb 53h    	; 83, 'S'
1D2B EE           defb EEh    	; 238,  -18
1D2C 54           defb 54h    	; 84, 'T'
1D2D ED           defb EDh    	; 237,  -19
1D2E 55           defb 55h    	; 85, 'U'
1D2F F3           defb F3h    	; 243,  -13
1D30 2F           defb 2Fh    	; 47, '/'
1D31 B0           defb B0h    	; 176,  -80
1D32 49           defb 49h    	; 73, 'I'
1D33 F1           defb F1h    	; 241,  -15
1D34 4F           defb 4Fh    	; 79, 'O'
1D35 ED           defb EDh    	; 237,  -19
1D36 4F           defb 4Fh    	; 79, 'O'
1D37 F6           defb F6h    	; 246,  -10
1D38 53           defb 53h    	; 83, 'S'
1D39 EC           defb ECh    	; 236,  -20
1D3A 42           defb 42h    	; 66, 'B'
1D3B F3           defb F3h    	; 243,  -13
1D3C 4F           defb 4Fh    	; 79, 'O'
1D3D EB           defb EBh    	; 235,  -21
1D3E 20           defb 20h    	; 32, ' '
1D3F 65           defb 65h    	; 101, 'e'
1D40 72           defb 72h    	; 114, 'r'
1D41 72           defb 72h    	; 114, 'r'
1D42 6F           defb 6Fh    	; 111, 'o'
1D43 72           defb 72h    	; 114, 'r'
1D44 21           defb 21h    	; 33, '!'
1D45 8D           defb 8Dh    	; 141, -115
1D46 0D           defb 0Dh    	; 13
1D47 42           defb 42h    	; 66, 'B'
1D48 72           defb 72h    	; 114, 'r'
1D49 65           defb 65h    	; 101, 'e'
1D4A 61           defb 61h    	; 97, 'a'
1D4B 6B           defb 6Bh    	; 107, 'k'
1D4C 8D           defb 8Dh    	; 141, -115


; Subroutine: Size=3, CC=1.
; Called by: CHECK_2_4KB_IN_SYSINIT[0510h].
; Calls: SUB126.
1D4D BASIC_SIMPLE_ENTRY_POINT:
1D4D 21 C2 11     ld   hl,11C2h 	; 4546


; Subroutine: Size=63, CC=4.
; Called by: SETUP_HL_STARTBASIC[3FFDh], BASIC_SIMPLE_ENTRY_POINT[1D4Dh].
; Calls: CHECK_FOR_60h, PRINT_STRING, SUB025, SUB057, SUB102, SUB107, SUB134.
1D50 SUB126:
1D50 11 52 40     ld   de,4052h 	; 16466
1D53 CD A3 1F     call SUB134 	; 1FA3h
1D56 ED B0        ldir        
1D58 2A 18 40     ld   hl,(ADDR_END_OF_BASIC_PRG) 	; 4018h
1D5B 3E 80        ld   a,80h  	; 128, -128
1D5D BE           cp   (hl)   
1D5E 20 0C        jr   nz,.sub126_loop1 	; 1D6Ch
1D60 3E 60        ld   a,60h  	; 96, '`'
1D62 2B           dec  hl     
1D63 BE           cp   (hl)   
1D64 20 06        jr   nz,.sub126_loop1 	; 1D6Ch
1D66 2A 1A 40     ld   hl,(ADDR_END_OF_VARIABLES) 	; 401Ah
1D69 BE           cp   (hl)   
1D6A 28 20        jr   z,.sub126_l 	; 1D8Ch
1D6C .sub126_loop1:
1D6C 21 A0 40     ld   hl,40A0h 	; 16544
1D6F .sub126_loop2:
1D6F 22 30 40     ld   (ADDR_START_OF_BASIC_PRG),hl 	; 4030h
1D72 CD 66 0D     call SUB057 	; 0D66h
1D75 21 18 05     ld   hl,0518h 	; 1304
1D78 4C           ld   c,h    
1D79 22 4B 40     ld   (DATA12),hl 	; 404Bh
1D7C FD 74 32     ld   (iy+50),h 
1D7F CD 8F 01     call PRINT_STRING 	; 018Fh
1D82 11 A1 1D     ld   de,1DA1h 	; 7585
1D85 E7           rst  20h    
1D86 CD 8E 04     call SUB025 	; 048Eh
1D89 CD 0B 15     call SUB102 	; 150Bh
1D8C .sub126_l:
1D8C C3 BB 15     jp   SUB107 	; 15BBh


; Subroutine: Size=45, CC=2.
; Called by: -
; Calls: SUB136.
1D8F SUB127:
1D8F 1A           ld   a,(de) 
1D90 FE 60        cp   60h    	; 96, '`'
1D92 28 D8        jr   z,.sub126_loop1 	; 1D6Ch
1D94 CD C9 1F     call SUB136 	; 1FC9h
1D97 18 D6        jr   .sub126_loop2 	; 1D6Fh


1D99 CD           defb CDh    	; 205,  -51
1D9A C3           defb C3h    	; 195,  -61
1D9B 1F           defb 1Fh    	; 31
1D9C 32           defb 32h    	; 50, '2'
1D9D 4F           defb 4Fh    	; 79, 'O'
1D9E 40           defb 40h    	; 64, '@'
1D9F C9           defb C9h    	; 201,  -55
1DA0 00           defb 00h    	; 0
1DA1 AF           defb AFh    	; 175,  -81
1DA2 C8           defb C8h    	; 200,  -56
1DA3 30           defb 30h    	; 48, '0'
1DA4 29           defb 29h    	; 41, ')'
1DA5 29           defb 29h    	; 41, ')'
1DA6 81           defb 81h    	; 129, -127
1DA7 22           defb 22h    	; 34, '"'
1DA8 20           defb 20h    	; 32, ' '
1DA9 62           defb 62h    	; 98, 'b'
1DAA 79           defb 79h    	; 121, 'y'
1DAB 74           defb 74h    	; 116, 't'
1DAC 65           defb 65h    	; 101, 'e'
1DAD 73           defb 73h    	; 115, 's'
1DAE 20           defb 20h    	; 32, ' '
1DAF 66           defb 66h    	; 102, 'f'
1DB0 72           defb 72h    	; 114, 'r'
1DB1 65           defb 65h    	; 101, 'e'
1DB2 65           defb 65h    	; 101, 'e'
1DB3 20           defb 20h    	; 32, ' '
1DB4 63           defb 63h    	; 99, 'c'
1DB5 6F           defb 6Fh    	; 111, 'o'
1DB6 6D           defb 6Dh    	; 109, 'm'
1DB7 70           defb 70h    	; 112, 'p'
1DB8 75           defb 75h    	; 117, 'u'
1DB9 74           defb 74h    	; 116, 't'
1DBA 65           defb 65h    	; 101, 'e'
1DBB 72           defb 72h    	; 114, 'r'
1DBC 0D           defb 0Dh    	; 13
1DBD 20           defb 20h    	; 32, ' '
1DBE 20           defb 20h    	; 32, ' '
1DBF 20           defb 20h    	; 32, ' '
1DC0 48           defb 48h    	; 72, 'H'
1DC1 6F           defb 6Fh    	; 111, 'o'
1DC2 6D           defb 6Dh    	; 109, 'm'
1DC3 65           defb 65h    	; 101, 'e'
1DC4 4C           defb 4Ch    	; 76, 'L'
1DC5 61           defb 61h    	; 97, 'a'
1DC6 62           defb 62h    	; 98, 'b'
1DC7 20           defb 20h    	; 32, ' '
1DC8 42           defb 42h    	; 66, 'B'
1DC9 41           defb 41h    	; 65, 'A'
1DCA 53           defb 53h    	; 83, 'S'
1DCB 49           defb 49h    	; 73, 'I'
1DCC 43           defb 43h    	; 67, 'C'
1DCD 20           defb 20h    	; 32, ' '
1DCE 72           defb 72h    	; 114, 'r'
1DCF 65           defb 65h    	; 101, 'e'
1DD0 76           defb 76h    	; 118, 'v'
1DD1 2E           defb 2Eh    	; 46, '.'
1DD2 33           defb 33h    	; 51, '3'
1DD3 2E           defb 2Eh    	; 46, '.'
1DD4 31           defb 31h    	; 49, '1'
1DD5 0D           defb 0Dh    	; 13
1DD6 0D           defb 0Dh    	; 13
1DD7 60           defb 60h    	; 96, '`'
1DD8 CD           defb CDh    	; 205,  -51
1DD9 DB           defb DBh    	; 219,  -37
1DDA 12           defb 12h    	; 18
1DDB F5           defb F5h    	; 245,  -11
1DDC CD           defb CDh    	; 205,  -51
1DDD D5           defb D5h    	; 213,  -43
1DDE 12           defb 12h    	; 18
1DDF E1           defb E1h    	; 225,  -31
1DE0 CD           defb CDh    	; 205,  -51
1DE1 83           defb 83h    	; 131, -125
1DE2 1E           defb 1Eh    	; 30
1DE3 47           defb 47h    	; 71, 'G'
1DE4 3A           defb 3Ah    	; 58, ':'
1DE5 4F           defb 4Fh    	; 79, 'O'
1DE6 40           defb 40h    	; 64, '@'
1DE7 FE           defb FEh    	; 254,   -2
1DE8 01           defb 01h    	; 1
1DE9 78           defb 78h    	; 120, 'x'
1DEA 30           defb 30h    	; 48, '0'
1DEB 05           defb 05h    	; 5
1DEC EE           defb EEh    	; 238,  -18
1DED FF           defb FFh    	; 255,   -1
1DEE A1           defb A1h    	; 161,  -95
1DEF 18           defb 18h    	; 24
1DF0 06           defb 06h    	; 6
1DF1 20           defb 20h    	; 32, ' '
1DF2 03           defb 03h    	; 3
1DF3 B1           defb B1h    	; 177,  -79
1DF4 18           defb 18h    	; 24
1DF5 01           defb 01h    	; 1
1DF6 A9           defb A9h    	; 169,  -87
1DF7 D3           defb D3h    	; 211,  -45
1DF8 FF           defb FFh    	; 255,   -1
1DF9 77           defb 77h    	; 119, 'w'
1DFA D3           defb D3h    	; 211,  -45
1DFB 7F           defb 7Fh    	; 127
1DFC C9           defb C9h    	; 201,  -55
1DFD 00           defb 00h    	; 0
1DFE 00           defb 00h    	; 0
1DFF 00           defb 00h    	; 0
1E00 FA           defb FAh    	; 250,   -6
1E01 F9           defb F9h    	; 249,   -7
1E02 F8           defb F8h    	; 248,   -8
1E03 F2           defb F2h    	; 242,  -14
1E04 F1           defb F1h    	; 241,  -15
1E05 F0           defb F0h    	; 240,  -16
1E06 EA           defb EAh    	; 234,  -22
1E07 E9           defb E9h    	; 233,  -23
1E08 E8           defb E8h    	; 232,  -24
1E09 E2           defb E2h    	; 226,  -30
1E0A E1           defb E1h    	; 225,  -31
1E0B E0           defb E0h    	; 224,  -32
1E0C DA           defb DAh    	; 218,  -38
1E0D D9           defb D9h    	; 217,  -39
1E0E D8           defb D8h    	; 216,  -40
1E0F D2           defb D2h    	; 210,  -46
1E10 D1           defb D1h    	; 209,  -47
1E11 D0           defb D0h    	; 208,  -48
1E12 CA           defb CAh    	; 202,  -54
1E13 C9           defb C9h    	; 201,  -55
1E14 C8           defb C8h    	; 200,  -56
1E15 C2           defb C2h    	; 194,  -62
1E16 C1           defb C1h    	; 193,  -63
1E17 C0           defb C0h    	; 192,  -64
1E18 BA           defb BAh    	; 186,  -70
1E19 B9           defb B9h    	; 185,  -71
1E1A B8           defb B8h    	; 184,  -72
1E1B B2           defb B2h    	; 178,  -78
1E1C B1           defb B1h    	; 177,  -79
1E1D B0           defb B0h    	; 176,  -80
1E1E AA           defb AAh    	; 170,  -86
1E1F A9           defb A9h    	; 169,  -87
1E20 A8           defb A8h    	; 168,  -88
1E21 A2           defb A2h    	; 162,  -94
1E22 A1           defb A1h    	; 161,  -95
1E23 A0           defb A0h    	; 160,  -96
1E24 9A           defb 9Ah    	; 154, -102
1E25 99           defb 99h    	; 153, -103
1E26 98           defb 98h    	; 152, -104
1E27 92           defb 92h    	; 146, -110
1E28 91           defb 91h    	; 145, -111
1E29 90           defb 90h    	; 144, -112
1E2A 8A           defb 8Ah    	; 138, -118
1E2B 89           defb 89h    	; 137, -119
1E2C 88           defb 88h    	; 136, -120
1E2D 82           defb 82h    	; 130, -126
1E2E 81           defb 81h    	; 129, -127
1E2F 80           defb 80h    	; 128, -128
1E30 7A           defb 7Ah    	; 122, 'z'
1E31 79           defb 79h    	; 121, 'y'
1E32 78           defb 78h    	; 120, 'x'
1E33 72           defb 72h    	; 114, 'r'
1E34 71           defb 71h    	; 113, 'q'
1E35 70           defb 70h    	; 112, 'p'
1E36 6A           defb 6Ah    	; 106, 'j'
1E37 69           defb 69h    	; 105, 'i'
1E38 68           defb 68h    	; 104, 'h'
1E39 62           defb 62h    	; 98, 'b'
1E3A 61           defb 61h    	; 97, 'a'
1E3B 60           defb 60h    	; 96, '`'
1E3C 5A           defb 5Ah    	; 90, 'Z'
1E3D 59           defb 59h    	; 89, 'Y'
1E3E 58           defb 58h    	; 88, 'X'
1E3F 52           defb 52h    	; 82, 'R'
1E40 51           defb 51h    	; 81, 'Q'
1E41 50           defb 50h    	; 80, 'P'
1E42 4A           defb 4Ah    	; 74, 'J'
1E43 49           defb 49h    	; 73, 'I'
1E44 48           defb 48h    	; 72, 'H'
1E45 42           defb 42h    	; 66, 'B'
1E46 41           defb 41h    	; 65, 'A'
1E47 40           defb 40h    	; 64, '@'
1E48 3A           defb 3Ah    	; 58, ':'
1E49 39           defb 39h    	; 57, '9'
1E4A 38           defb 38h    	; 56, '8'
1E4B 32           defb 32h    	; 50, '2'
1E4C 31           defb 31h    	; 49, '1'
1E4D 30           defb 30h    	; 48, '0'
1E4E 2A           defb 2Ah    	; 42, '*'
1E4F 29           defb 29h    	; 41, ')'
1E50 28           defb 28h    	; 40, '('
1E51 22           defb 22h    	; 34, '"'
1E52 21           defb 21h    	; 33, '!'
1E53 20           defb 20h    	; 32, ' '
1E54 1A           defb 1Ah    	; 26
1E55 19           defb 19h    	; 25
1E56 18           defb 18h    	; 24
1E57 12           defb 12h    	; 18
1E58 11           defb 11h    	; 17
1E59 10           defb 10h    	; 16
1E5A 0A           defb 0Ah    	; 10
1E5B 09           defb 09h    	; 9
1E5C 08           defb 08h    	; 8
1E5D 02           defb 02h    	; 2
1E5E 01           defb 01h    	; 1
1E5F 00           defb 00h    	; 0
1E60 01           defb 01h    	; 1
1E61 02           defb 02h    	; 2
1E62 04           defb 04h    	; 4
1E63 08           defb 08h    	; 8
1E64 10           defb 10h    	; 16
1E65 20           defb 20h    	; 32, ' '
1E66 CD           defb CDh    	; 205,  -51
1E67 26           defb 26h    	; 38, '&'
1E68 07           defb 07h    	; 7
1E69 CD           defb CDh    	; 205,  -51
1E6A E6           defb E6h    	; 230,  -26
1E6B 09           defb 09h    	; 9
1E6C C1           defb C1h    	; 193,  -63
1E6D D1           defb D1h    	; 209,  -47
1E6E C5           defb C5h    	; 197,  -59
1E6F E5           defb E5h    	; 229,  -27
1E70 CD           defb CDh    	; 205,  -51
1E71 D5           defb D5h    	; 213,  -43
1E72 12           defb 12h    	; 18
1E73 E1           defb E1h    	; 225,  -31
1E74 C1           defb C1h    	; 193,  -63
1E75 D5           defb D5h    	; 213,  -43
1E76 C5           defb C5h    	; 197,  -59
1E77 65           defb 65h    	; 101, 'e'
1E78 CD           defb CDh    	; 205,  -51
1E79 83           defb 83h    	; 131, -125
1E7A 1E           defb 1Eh    	; 30
1E7B 47           defb 47h    	; 71, 'G'
1E7C 79           defb 79h    	; 121, 'y'
1E7D EE           defb EEh    	; 238,  -18
1E7E FF           defb FFh    	; 255,   -1
1E7F A0           defb A0h    	; 160,  -96
1E80 C3           defb C3h    	; 195,  -61
1E81 9A           defb 9Ah    	; 154, -102
1E82 0C           defb 0Ch    	; 12
1E83 FE           defb FEh    	; 254,   -2
1E84 60           defb 60h    	; 96, '`'
1E85 D2           defb D2h    	; 210,  -46
1E86 54           defb 54h    	; 84, 'T'
1E87 15           defb 15h    	; 21
1E88 C6           defb C6h    	; 198,  -58
1E89 00           defb 00h    	; 0
1E8A 4F           defb 4Fh    	; 79, 'O'
1E8B 06           defb 06h    	; 6
1E8C 1E           defb 1Eh    	; 30
1E8D 0A           defb 0Ah    	; 10
1E8E 6F           defb 6Fh    	; 111, 'o'
1E8F E6           defb E6h    	; 230,  -26
1E90 07           defb 07h    	; 7
1E91 CB           defb CBh    	; 203,  -53
1E92 2C           defb 2Ch    	; 44, ','
1E93 8F           defb 8Fh    	; 143, -113
1E94 C6           defb C6h    	; 198,  -58
1E95 60           defb 60h    	; 96, '`'
1E96 4F           defb 4Fh    	; 79, 'O'
1E97 0A           defb 0Ah    	; 10
1E98 F5           defb F5h    	; 245,  -11
1E99 7D           defb 7Dh    	; 125, '}'
1E9A E6           defb E6h    	; 230,  -26
1E9B F8           defb F8h    	; 248,   -8
1E9C 6F           defb 6Fh    	; 111, 'o'
1E9D CD           defb CDh    	; 205,  -51
1E9E D0           defb D0h    	; 208,  -48
1E9F 11           defb 11h    	; 17
1EA0 26           defb 26h    	; 38, '&'
1EA1 FF           defb FFh    	; 255,   -1
1EA2 29           defb 29h    	; 41, ')'
1EA3 29           defb 29h    	; 41, ')'
1EA4 29           defb 29h    	; 41, ')'
1EA5 B5           defb B5h    	; 181,  -75
1EA6 6F           defb 6Fh    	; 111, 'o'
1EA7 D3           defb D3h    	; 211,  -45
1EA8 FF           defb FFh    	; 255,   -1
1EA9 7E           defb 7Eh    	; 126, '~'
1EAA D3           defb D3h    	; 211,  -45
1EAB 7F           defb 7Fh    	; 127
1EAC 4F           defb 4Fh    	; 79, 'O'
1EAD E6           defb E6h    	; 230,  -26
1EAE C0           defb C0h    	; 192,  -64
1EAF FE           defb FEh    	; 254,   -2
1EB0 C0           defb C0h    	; 192,  -64
1EB1 28           defb 28h    	; 40, '('
1EB2 02           defb 02h    	; 2
1EB3 0E           defb 0Eh    	; 14
1EB4 C0           defb C0h    	; 192,  -64
1EB5 F1           defb F1h    	; 241,  -15
1EB6 C9           defb C9h    	; 201,  -55
1EB7 CD           defb CDh    	; 205,  -51
1EB8 72           defb 72h    	; 114, 'r'
1EB9 19           defb 19h    	; 25
1EBA ED           defb EDh    	; 237,  -19
1EBB 49           defb 49h    	; 73, 'I'
1EBC 7C           defb 7Ch    	; 124, '|'
1EBD FE           defb FEh    	; 254,   -2
1EBE 10           defb 10h    	; 16
1EBF 38           defb 38h    	; 56, '8'
1EC0 03           defb 03h    	; 3
1EC1 7E           defb 7Eh    	; 126, '~'
1EC2 18           defb 18h    	; 24
1EC3 06           defb 06h    	; 6
1EC4 4D           defb 4Dh    	; 77, 'M'
1EC5 44           defb 44h    	; 68, 'D'
1EC6 CB           defb CBh    	; 203,  -53
1EC7 B9           defb B9h    	; 185,  -71
1EC8 ED           defb EDh    	; 237,  -19
1EC9 78           defb 78h    	; 120, 'x'
1ECA D3           defb D3h    	; 211,  -45
1ECB 7F           defb 7Fh    	; 127
1ECC C3           defb C3h    	; 195,  -61
1ECD 76           defb 76h    	; 118, 'v'
1ECE 13           defb 13h    	; 19


; Subroutine: Size=29, CC=2.
; Called by: SUB120[190Ch].
; Calls: SUB103.
1ECF SUB128:
1ECF 47           ld   b,a    
1ED0 7B           ld   a,e    
1ED1 CB 29        sra  c      
1ED3 CB 3F        srl  a      
1ED5 A9           xor  c      
1ED6 CB FB        set  7,e    
1ED8 FD CB 1E FE  set  7,(iy+30) 
1EDC 05           dec  b      
1EDD 04           inc  b      
1EDE 28 09        jr   z,.sub128_l 	; 1EE9h
1EE0 .sub128_loop:
1EE0 14           inc  d      
1EE1 CB 3B        srl  e      
1EE3 CB 1C        rr   h      
1EE5 CB 1D        rr   l      
1EE7 10 F7        djnz .sub128_loop 	; 1EE0h
1EE9 .sub128_l:
1EE9 C3 1C 15     jp   SUB103 	; 151Ch


1EEC CD           defb CDh    	; 205,  -51
1EED BE           defb BEh    	; 190,  -66
1EEE 05           defb 05h    	; 5
1EEF C9           defb C9h    	; 201,  -55


; Subroutine: Size=12, CC=1.
; Called by: -
; Calls: SUB002, LOAD_ONE_REC, PRG_LOAD_INIT, SUB065.
1EF0 LOAD:
1EF0 CD F6 0D     call SUB065 	; 0DF6h
1EF3 CD 51 07     call LOAD_ONE_REC 	; 0751h
1EF6 CD 63 0D     call PRG_LOAD_INIT 	; 0D63h
1EF9 C3 79 00     jp   SUB002 	; 0079h


1EFC 00           defb 00h    	; 0


; Subroutine: Size=9, CC=1.
; Called by: SUB051[08F3h], SUB051[08F7h], SUB051[08FBh], SUB051[0929h].
; Calls: SUB130.
1EFD SUB129:
1EFD 4F           ld   c,a    
1EFE 1F           rra         
1EFF 1F           rra         
1F00 1F           rra         
1F01 1F           rra         
1F02 CD 06 1F     call SUB130 	; 1F06h
1F05 79           ld   a,c    


; Subroutine: Size=13, CC=2.
; Called by: SUB051[092Ch], SUB129[1F02h], SUB129[1F05h].
; Calls: -
1F06 SUB130:
1F06 05           dec  b      
1F07 20 03        jr   nz,.sub130_l 	; 1F0Ch
1F09 36 2E        ld   (hl),2Eh 	; 46, '.'
1F0B 23           inc  hl     
1F0C .sub130_l:
1F0C E6 0F        and  0Fh    	; 15
1F0E C6 30        add  a,30h  	; 48, '0'
1F10 77           ld   (hl),a 
1F11 23           inc  hl     
1F12 C9           ret         


1F13 3A           defb 3Ah    	; 58, ':'
1F14 1F           defb 1Fh    	; 31
1F15 40           defb 40h    	; 64, '@'
1F16 ED           defb EDh    	; 237,  -19
1F17 44           defb 44h    	; 68, 'D'
1F18 CD           defb CDh    	; 205,  -51
1F19 92           defb 92h    	; 146, -110
1F1A 0E           defb 0Eh    	; 14
1F1B CD           defb CDh    	; 205,  -51
1F1C FD           defb FDh    	; 253,   -3
1F1D 1B           defb 1Bh    	; 27
1F1E C6           defb C6h    	; 198,  -58
1F1F 19           defb 19h    	; 25
1F20 D9           defb D9h    	; 217,  -39
1F21 57           defb 57h    	; 87, 'W'
1F22 97           defb 97h    	; 151, -105
1F23 67           defb 67h    	; 103, 'g'
1F24 6F           defb 6Fh    	; 111, 'o'
1F25 5F           defb 5Fh    	; 95, '_'
1F26 D9           defb D9h    	; 217,  -39
1F27 7B           defb 7Bh    	; 123, '{'
1F28 ED           defb EDh    	; 237,  -19
1F29 4B           defb 4Bh    	; 75, 'K'
1F2A 20           defb 20h    	; 32, ' '
1F2B 40           defb 40h    	; 64, '@'
1F2C ED           defb EDh    	; 237,  -19
1F2D 5B           defb 5Bh    	; 91, '['
1F2E 1E           defb 1Eh    	; 30
1F2F 40           defb 40h    	; 64, '@'
1F30 BB           defb BBh    	; 187,  -69
1F31 20           defb 20h    	; 32, ' '
1F32 03           defb 03h    	; 3
1F33 ED           defb EDh    	; 237,  -19
1F34 42           defb 42h    	; 66, 'B'
1F35 09           defb 09h    	; 9
1F36 3F           defb 3Fh    	; 63, '?'
1F37 D9           defb D9h    	; 217,  -39
1F38 CB           defb CBh    	; 203,  -53
1F39 7B           defb 7Bh    	; 123, '{'
1F3A C2           defb C2h    	; 194,  -62
1F3B 63           defb 63h    	; 99, 'c'
1F3C 06           defb 06h    	; 6
1F3D 15           defb 15h    	; 21
1F3E ED           defb EDh    	; 237,  -19
1F3F 6A           defb 6Ah    	; 106, 'j'
1F40 CB           defb CBh    	; 203,  -53
1F41 13           defb 13h    	; 19
1F42 CB           defb CBh    	; 203,  -53
1F43 45           defb 45h    	; 69, 'E'
1F44 D9           defb D9h    	; 217,  -39
1F45 28           defb 28h    	; 40, '('
1F46 03           defb 03h    	; 3
1F47 ED           defb EDh    	; 237,  -19
1F48 42           defb 42h    	; 66, 'B'
1F49 9B           defb 9Bh    	; 155, -101
1F4A 29           defb 29h    	; 41, ')'
1F4B 8F           defb 8Fh    	; 143, -113
1F4C 38           defb 38h    	; 56, '8'
1F4D E9           defb E9h    	; 233,  -23
1F4E F2           defb F2h    	; 242,  -14
1F4F 30           defb 30h    	; 48, '0'
1F50 1F           defb 1Fh    	; 31
1F51 18           defb 18h    	; 24
1F52 DD           defb DDh    	; 221,  -35


; Subroutine: Size=27, CC=4.
; Called by: SUB132[1F7Ch], SUB132[1F82h], SUB132[1F88h].
; Calls: -
1F53 SUB131:
1F53 A7           and  a      
1F54 37           scf         
1F55 20 0E        jr   nz,.sub131_l 	; 1F65h
1F57 08           ex   af,af' 
1F58 6C           ld   l,h    
1F59 67           ld   h,a    
1F5A C9           ret         
1F5B .sub131_loop1:
1F5B 08           ex   af,af' 
1F5C 09           add  hl,bc  
1F5D 8B           adc  a,e    
1F5E .sub131_loop2:
1F5E 1F           rra         
1F5F CB 1C        rr   h      
1F61 CB 1D        rr   l      
1F63 08           ex   af,af' 
1F64 A7           and  a      
1F65 .sub131_l:
1F65 CB 1F        rr   a      
1F67 C8           ret  z      
1F68 38 F1        jr   c,.sub131_loop1 	; 1F5Bh
1F6A 08           ex   af,af' 
1F6B A7           and  a      
1F6C 18 F0        jr   .sub131_loop2 	; 1F5Eh


; Subroutine: Size=34, CC=1.
; Called by: SUB046[07CBh].
; Calls: SUB032, SUB125, SUB131.
1F6E SUB132:
1F6E CD FD 1B     call SUB125 	; 1BFDh
1F71 57           ld   d,a    
1F72 97           sub  a      
1F73 44           ld   b,h    
1F74 4D           ld   c,l    
1F75 67           ld   h,a    
1F76 6F           ld   l,a    
1F77 08           ex   af,af' 
1F78 F5           push af     
1F79 3A 20 40     ld   a,(DATA03) 	; 4020h
1F7C CD 53 1F     call SUB131 	; 1F53h
1F7F 3A 21 40     ld   a,(DATA04) 	; 4021h
1F82 CD 53 1F     call SUB131 	; 1F53h
1F85 3A 1E 40     ld   a,(VAR_P) 	; 401Eh
1F88 CD 53 1F     call SUB131 	; 1F53h
1F8B F1           pop  af     
1F8C 08           ex   af,af' 
1F8D C3 4D 06     jp   SUB032 	; 064Dh


; Subroutine: Size=8, CC=2.
; Called by: SUB099[1481h].
; Calls: CHECK_FOR_60h, SUB100, SUB101.
1F90 SUB133:
1F90 E7           rst  20h    
1F91 A7           and  a      
1F92 CA D4 14     jp   z,SUB101 	; 14D4h
1F95 C3 84 14     jp   SUB100 	; 1484h


1F98 CA           defb CAh    	; 202,  -54
1F99 5E           defb 5Eh    	; 94, '^'
1F9A 0B           defb 0Bh    	; 11
1F9B FE           defb FEh    	; 254,   -2
1F9C 32           defb 32h    	; 50, '2'
1F9D D2           defb D2h    	; 210,  -46
1F9E 6C           defb 6Ch    	; 108, 'l'
1F9F 15           defb 15h    	; 21
1FA0 C3           defb C3h    	; 195,  -61
1FA1 9A           defb 9Ah    	; 154, -102
1FA2 13           defb 13h    	; 19


; Subroutine: Size=7, CC=1.
; Called by: SUB126[1D53h].
; Calls: -
1FA3 SUB134:
1FA3 01 08 00     ld   bc,0008h 	; 8
1FA6 FD 70 32     ld   (iy+50),b 
1FA9 C9           ret         


1FAA 2A           defb 2Ah    	; 42, '*'
1FAB 2E           defb 2Eh    	; 46, '.'
1FAC 40           defb 40h    	; 64, '@'
1FAD 23           defb 23h    	; 35, '#'
1FAE CB           defb CBh    	; 203,  -53
1FAF 7C           defb 7Ch    	; 124, '|'
1FB0 2A           defb 2Ah    	; 42, '*'
1FB1 20           defb 20h    	; 32, ' '
1FB2 40           defb 40h    	; 64, '@'
1FB3 CA           defb CAh    	; 202,  -54
1FB4 C6           defb C6h    	; 198,  -58
1FB5 0D           defb 0Dh    	; 13
1FB6 C3           defb C3h    	; 195,  -61
1FB7 CB           defb CBh    	; 203,  -53
1FB8 0D           defb 0Dh    	; 13


; Subroutine: Size=10, CC=1.
; Called by: BASIC_INTERPRETER[10CDh].
; Calls: -
1FB9 SUB135:
1FB9 2A 1C 40     ld   hl,(ADDR_END_OF_STRINGS) 	; 401Ch
1FBC 22 2C 40     ld   (VAR_BASIC_STRING),hl 	; 402Ch
1FBF 01 00 00     ld   bc,0000h 	; 0
1FC2 C9           ret         


1FC3 E7           defb E7h    	; 231,  -25
1FC4 FE           defb FEh    	; 254,   -2
1FC5 87           defb 87h    	; 135, -121
1FC6 C2           defb C2h    	; 194,  -62
1FC7 70           defb 70h    	; 112, 'p'
1FC8 15           defb 15h    	; 21


; Subroutine: Size=27, CC=2.
; Called by: SUB127[1D94h].
; Calls: SUB043, SUB052, BASIC_INTERPRETER, LBL08.
1FC9 SUB136:
1FC9 CD CD 10     call BASIC_INTERPRETER 	; 10CDh
1FCC 04           inc  b      
1FCD CA 74 15     jp   z,LBL08 	; 1574h
1FD0 D5           push de     
1FD1 CD 26 07     call SUB043 	; 0726h
1FD4 CD E6 09     call SUB052 	; 09E6h
1FD7 D1           pop  de     
1FD8 7D           ld   a,l    
1FD9 C9           ret         


1FDA 00           defb 00h    	; 0


; Subroutine: Size=6, CC=1.
; Called by: SUB101[14F6h].
; Calls: SUB099, SUB102.
1FDB SUB137:
1FDB CD 0B 15     call SUB102 	; 150Bh
1FDE C3 34 14     jp   SUB099 	; 1434h


; Subroutine: Size=10, CC=2.
; Called by: SUB099[1438h].
; Calls: READ_ONE_LINE, AUTOSTART.
1FE1 SUB138:
1FE1 3A 4C 40     ld   a,(DATA13) 	; 404Ch
1FE4 A7           and  a      
1FE5 C2 43 05     jp   nz,READ_ONE_LINE 	; 0543h
1FE8 C3 9D 17     jp   AUTOSTART 	; 179Dh


; Subroutine: Size=6, CC=1.
; Called by: TOKENIZER[0CD4h].
; Calls: -
1FEB SUB139:
1FEB E5           push hl     
1FEC 2A 52 40     ld   hl,(DATA15) 	; 4052h
1FEF E3           ex   (sp),hl 
1FF0 C9           ret         


; Subroutine: Size=6, CC=1.
; Called by: SUB112[16E9h].
; Calls: -
1FF1 SUB140:
1FF1 E5           push hl     
1FF2 2A 54 40     ld   hl,(DATA16) 	; 4054h
1FF5 E3           ex   (sp),hl 
1FF6 C9           ret         


; Subroutine: Size=9, CC=1.
; Called by: SUB101[1508h].
; Calls: SUB109.
1FF7 SUB141:
1FF7 21 FF 7F     ld   hl,7FFFh 	; 32767
1FFA 22 2E 40     ld   (VAR_BASIC_CUR_LINE),hl 	; 402Eh
1FFD C3 4E 16     jp   SUB109 	; 164Eh


; Subroutine: Size=4, CC=1.
; Called by: SUB002[0079h], SUB002[007Dh].
; Calls: SUB142.
2000 BASIC_ENH_START:
2000 00           nop         
2001 C3 3D 26     jp   SUB142 	; 263Dh


2004 FE           defb FEh    	; 254,   -2
2005 C9           defb C9h    	; 201,  -55
2006 DA           defb DAh    	; 218,  -38
2007 67           defb 67h    	; 103, 'g'
2008 01           defb 01h    	; 1
2009 0E           defb 0Eh    	; 14
200A 00           defb 00h    	; 0
200B F5           defb F5h    	; 245,  -11
200C FE           defb FEh    	; 254,   -2
200D D7           defb D7h    	; 215,  -41
200E 30           defb 30h    	; 48, '0'
200F 04           defb 04h    	; 4
2010 3E           defb 3Eh    	; 62, '>'
2011 20           defb 20h    	; 32, ' '
2012 4F           defb 4Fh    	; 79, 'O'
2013 EF           defb EFh    	; 239,  -17
2014 F1           defb F1h    	; 241,  -15
2015 21           defb 21h    	; 33, '!'
2016 5E           defb 5Eh    	; 94, '^'
2017 26           defb 26h    	; 38, '&'
2018 D6           defb D6h    	; 214,  -42
2019 C8           defb C8h    	; 200,  -56
201A 47           defb 47h    	; 71, 'G'
201B C3           defb C3h    	; 195,  -61
201C 88           defb 88h    	; 136, -120
201D 01           defb 01h    	; 1
201E 1A           defb 1Ah    	; 26
201F FE           defb FEh    	; 254,   -2
2020 30           defb 30h    	; 48, '0'
2021 D8           defb D8h    	; 216,  -40
2022 FE           defb FEh    	; 254,   -2
2023 3A           defb 3Ah    	; 58, ':'
2024 38           defb 38h    	; 56, '8'
2025 03           defb 03h    	; 3
2026 FE           defb FEh    	; 254,   -2
2027 41           defb 41h    	; 65, 'A'
2028 D8           defb D8h    	; 216,  -40
2029 77           defb 77h    	; 119, 'w'
202A 23           defb 23h    	; 35, '#'
202B 13           defb 13h    	; 19
202C C9           defb C9h    	; 201,  -55
202D E7           defb E7h    	; 231,  -25
202E FE           defb FEh    	; 254,   -2
202F 24           defb 24h    	; 36, '$'
2030 28           defb 28h    	; 40, '('
2031 14           defb 14h    	; 20
2032 1B           defb 1Bh    	; 27
2033 21           defb 21h    	; 33, '!'
2034 5E           defb 5Eh    	; 94, '^'
2035 26           defb 26h    	; 38, '&'
2036 06           defb 06h    	; 6
2037 1C           defb 1Ch    	; 28
2038 CD           defb CDh    	; 205,  -51
2039 B7           defb B7h    	; 183,  -73
203A 16           defb 16h    	; 22
203B C2           defb C2h    	; 194,  -62
203C B2           defb B2h    	; 178,  -78
203D 16           defb 16h    	; 22
203E 3E           defb 3Eh    	; 62, '>'
203F E5           defb E5h    	; 229,  -27
2040 90           defb 90h    	; 144, -112
2041 E1           defb E1h    	; 225,  -31
2042 E1           defb E1h    	; 225,  -31
2043 C3           defb C3h    	; 195,  -61
2044 1D           defb 1Dh    	; 29
2045 0D           defb 0Dh    	; 13
2046 E1           defb E1h    	; 225,  -31
2047 E1           defb E1h    	; 225,  -31
2048 2B           defb 2Bh    	; 43, '+'
2049 7E           defb 7Eh    	; 126, '~'
204A C3           defb C3h    	; 195,  -61
204B D0           defb D0h    	; 208,  -48
204C 25           defb 25h    	; 37, '%'
204D 38           defb 38h    	; 56, '8'
204E 09           defb 09h    	; 9
204F FE           defb FEh    	; 254,   -2
2050 5F           defb 5Fh    	; 95, '_'
2051 30           defb 30h    	; 48, '0'
2052 05           defb 05h    	; 5
2053 3E           defb 3Eh    	; 62, '>'
2054 24           defb 24h    	; 36, '$'
2055 C3           defb C3h    	; 195,  -61
2056 F7           defb F7h    	; 247,   -9
2057 0C           defb 0Ch    	; 12
2058 36           defb 36h    	; 54, '6'
2059 E2           defb E2h    	; 226,  -30
205A 23           defb 23h    	; 35, '#'
205B CD           defb CDh    	; 205,  -51
205C 1E           defb 1Eh    	; 30
205D 20           defb 20h    	; 32, ' '
205E CD           defb CDh    	; 205,  -51
205F 1E           defb 1Eh    	; 30
2060 20           defb 20h    	; 32, ' '
2061 C3           defb C3h    	; 195,  -61
2062 AF           defb AFh    	; 175,  -81
2063 0C           defb 0Ch    	; 12
2064 4F           defb 4Fh    	; 79, 'O'
2065 3A           defb 3Ah    	; 58, ':'
2066 00           defb 00h    	; 0
2067 00           defb 00h    	; 0
2068 A7           defb A7h    	; 167,  -89
2069 79           defb 79h    	; 121, 'y'
206A C9           defb C9h    	; 201,  -55
206B FE           defb FEh    	; 254,   -2
206C 02           defb 02h    	; 2
206D 30           defb 30h    	; 48, '0'
206E 21           defb 21h    	; 33, '!'
206F A7           defb A7h    	; 167,  -89
2070 1B           defb 1Bh    	; 27
2071 1A           defb 1Ah    	; 26
2072 13           defb 13h    	; 19
2073 28           defb 28h    	; 40, '('
2074 0C           defb 0Ch    	; 12
2075 FE           defb FEh    	; 254,   -2
2076 D7           defb D7h    	; 215,  -41
2077 DA           defb DAh    	; 218,  -38
2078 70           defb 70h    	; 112, 'p'
2079 15           defb 15h    	; 21
207A FE           defb FEh    	; 254,   -2
207B E5           defb E5h    	; 229,  -27
207C D2           defb D2h    	; 210,  -46
207D 70           defb 70h    	; 112, 'p'
207E 15           defb 15h    	; 21
207F 18           defb 18h    	; 24
2080 04           defb 04h    	; 4
2081 C3           defb C3h    	; 195,  -61
2082 1E           defb 1Eh    	; 30
2083 25           defb 25h    	; 37, '%'
2084 00           defb 00h    	; 0
2085 87           defb 87h    	; 135, -121
2086 C6           defb C6h    	; 198,  -58
2087 36           defb 36h    	; 54, '6'
2088 26           defb 26h    	; 38, '&'
2089 27           defb 27h    	; 39, '''
208A 6F           defb 6Fh    	; 111, 'o'
208B 4E           defb 4Eh    	; 78, 'N'
208C 2C           defb 2Ch    	; 44, ','
208D 6E           defb 6Eh    	; 110, 'n'
208E 61           defb 61h    	; 97, 'a'
208F E9           defb E9h    	; 233,  -23
2090 CD           defb CDh    	; 205,  -51
2091 64           defb 64h    	; 100, 'd'
2092 20           defb 20h    	; 32, ' '
2093 CA           defb CAh    	; 202,  -54
2094 00           defb 00h    	; 0
2095 00           defb 00h    	; 0
2096 3E           defb 3Eh    	; 62, '>'
2097 0D           defb 0Dh    	; 13
2098 EF           defb EFh    	; 239,  -17
2099 79           defb 79h    	; 121, 'y'
209A C6           defb C6h    	; 198,  -58
209B 1C           defb 1Ch    	; 28
209C CD           defb CDh    	; 205,  -51
209D 85           defb 85h    	; 133, -123
209E 24           defb 24h    	; 36, '$'
209F CD           defb CDh    	; 205,  -51
20A0 0B           defb 0Bh    	; 11
20A1 15           defb 15h    	; 21
20A2 C3           defb C3h    	; 195,  -61
20A3 92           defb 92h    	; 146, -110
20A4 15           defb 15h    	; 21
20A5 1A           defb 1Ah    	; 26
20A6 FE           defb FEh    	; 254,   -2
20A7 2C           defb 2Ch    	; 44, ','
20A8 C0           defb C0h    	; 192,  -64
20A9 13           defb 13h    	; 19
20AA CD           defb CDh    	; 205,  -51
20AB CA           defb CAh    	; 202,  -54
20AC 11           defb 11h    	; 17
20AD 04           defb 04h    	; 4
20AE CA           defb CAh    	; 202,  -54
20AF 74           defb 74h    	; 116, 't'
20B0 15           defb 15h    	; 21
20B1 05           defb 05h    	; 5
20B2 C9           defb C9h    	; 201,  -55
20B3 DC           defb DCh    	; 220,  -36
20B4 26           defb 26h    	; 38, '&'
20B5 07           defb 07h    	; 7
20B6 E5           defb E5h    	; 229,  -27
20B7 D5           defb D5h    	; 213,  -43
20B8 D9           defb D9h    	; 217,  -39
20B9 CD           defb CDh    	; 205,  -51
20BA A5           defb A5h    	; 165,  -91
20BB 20           defb 20h    	; 32, ' '
20BC D9           defb D9h    	; 217,  -39
20BD D1           defb D1h    	; 209,  -47
20BE E1           defb E1h    	; 225,  -31
20BF 28           defb 28h    	; 40, '('
20C0 1E           defb 1Eh    	; 30
20C1 C1           defb C1h    	; 193,  -63
20C2 CD           defb CDh    	; 205,  -51
20C3 71           defb 71h    	; 113, 'q'
20C4 06           defb 06h    	; 6
20C5 D9           defb D9h    	; 217,  -39
20C6 06           defb 06h    	; 6
20C7 00           defb 00h    	; 0
20C8 C3           defb C3h    	; 195,  -61
20C9 BA           defb BAh    	; 186,  -70
20CA 12           defb 12h    	; 18
20CB CD           defb CDh    	; 205,  -51
20CC AA           defb AAh    	; 170,  -86
20CD 20           defb 20h    	; 32, ' '
20CE D9           defb D9h    	; 217,  -39
20CF 3F           defb 3Fh    	; 63, '?'
20D0 CD           defb CDh    	; 205,  -51
20D1 B3           defb B3h    	; 179,  -77
20D2 20           defb 20h    	; 32, ' '
20D3 18           defb 18h    	; 24
20D4 FB           defb FBh    	; 251,   -5
20D5 CD           defb CDh    	; 205,  -51
20D6 AA           defb AAh    	; 170,  -86
20D7 20           defb 20h    	; 32, ' '
20D8 D9           defb D9h    	; 217,  -39
20D9 3F           defb 3Fh    	; 63, '?'
20DA CD           defb CDh    	; 205,  -51
20DB B3           defb B3h    	; 179,  -77
20DC 20           defb 20h    	; 32, ' '
20DD 18           defb 18h    	; 24
20DE FA           defb FAh    	; 250,   -6
20DF E5           defb E5h    	; 229,  -27
20E0 D5           defb D5h    	; 213,  -43
20E1 CD           defb CDh    	; 205,  -51
20E2 F6           defb F6h    	; 246,  -10
20E3 19           defb 19h    	; 25
20E4 D1           defb D1h    	; 209,  -47
20E5 E1           defb E1h    	; 225,  -31
20E6 C9           defb C9h    	; 201,  -55
20E7 CD           defb CDh    	; 205,  -51
20E8 A5           defb A5h    	; 165,  -91
20E9 20           defb 20h    	; 32, ' '
20EA C2           defb C2h    	; 194,  -62
20EB 70           defb 70h    	; 112, 'p'
20EC 15           defb 15h    	; 21
20ED C9           defb C9h    	; 201,  -55
20EE CD           defb CDh    	; 205,  -51
20EF E7           defb E7h    	; 231,  -25
20F0 20           defb 20h    	; 32, ' '
20F1 D9           defb D9h    	; 217,  -39
20F2 CD           defb CDh    	; 205,  -51
20F3 26           defb 26h    	; 38, '&'
20F4 07           defb 07h    	; 7
20F5 E3           defb E3h    	; 227,  -29
20F6 D5           defb D5h    	; 213,  -43
20F7 E5           defb E5h    	; 229,  -27
20F8 D9           defb D9h    	; 217,  -39
20F9 C9           defb C9h    	; 201,  -55
20FA CD           defb CDh    	; 205,  -51
20FB AA           defb AAh    	; 170,  -86
20FC 20           defb 20h    	; 32, ' '
20FD D9           defb D9h    	; 217,  -39
20FE CD           defb CDh    	; 205,  -51
20FF 26           defb 26h    	; 38, '&'
2100 07           defb 07h    	; 7
2101 CB           defb CBh    	; 203,  -53
2102 7B           defb 7Bh    	; 123, '{'
2103 28           defb 28h    	; 40, '('
2104 0C           defb 0Ch    	; 12
2105 D9           defb D9h    	; 217,  -39
2106 CD           defb CDh    	; 205,  -51
2107 E7           defb E7h    	; 231,  -25
2108 20           defb 20h    	; 32, ' '
2109 CD           defb CDh    	; 205,  -51
210A E7           defb E7h    	; 231,  -25
210B 20           defb 20h    	; 32, ' '
210C CD           defb CDh    	; 205,  -51
210D A5           defb A5h    	; 165,  -91
210E 20           defb 20h    	; 32, ' '
210F 18           defb 18h    	; 24
2110 B5           defb B5h    	; 181,  -75
2111 7A           defb 7Ah    	; 122, 'z'
2112 A7           defb A7h    	; 167,  -89
2113 D9           defb D9h    	; 217,  -39
2114 20           defb 20h    	; 32, ' '
2115 0E           defb 0Eh    	; 14
2116 CD           defb CDh    	; 205,  -51
2117 EE           defb EEh    	; 238,  -18
2118 20           defb 20h    	; 32, ' '
2119 CD           defb CDh    	; 205,  -51
211A E7           defb E7h    	; 231,  -25
211B 20           defb 20h    	; 32, ' '
211C CD           defb CDh    	; 205,  -51
211D A5           defb A5h    	; 165,  -91
211E 20           defb 20h    	; 32, ' '
211F D9           defb D9h    	; 217,  -39
2120 D1           defb D1h    	; 209,  -47
2121 E1           defb E1h    	; 225,  -31
2122 18           defb 18h    	; 24
2123 9E           defb 9Eh    	; 158,  -98
2124 CD           defb CDh    	; 205,  -51
2125 E7           defb E7h    	; 231,  -25
2126 20           defb 20h    	; 32, ' '
2127 CD           defb CDh    	; 205,  -51
2128 EE           defb EEh    	; 238,  -18
2129 20           defb 20h    	; 32, ' '
212A CD           defb CDh    	; 205,  -51
212B A5           defb A5h    	; 165,  -91
212C 20           defb 20h    	; 32, ' '
212D 18           defb 18h    	; 24
212E F0           defb F0h    	; 240,  -16
212F CD           defb CDh    	; 205,  -51
2130 DB           defb DBh    	; 219,  -37
2131 12           defb 12h    	; 18
2132 F5           defb F5h    	; 245,  -11
2133 1A           defb 1Ah    	; 26
2134 FE           defb FEh    	; 254,   -2
2135 2C           defb 2Ch    	; 44, ','
2136 3E           defb 3Eh    	; 62, '>'
2137 20           defb 20h    	; 32, ' '
2138 CC           defb CCh    	; 204,  -52
2139 D5           defb D5h    	; 213,  -43
213A 12           defb 12h    	; 18
213B C1           defb C1h    	; 193,  -63
213C FD           defb FDh    	; 253,   -3
213D 70           defb 70h    	; 112, 'p'
213E 1E           defb 1Eh    	; 30
213F 2A           defb 2Ah    	; 42, '*'
2140 2C           defb 2Ch    	; 44, ','
2141 40           defb 40h    	; 64, '@'
2142 22           defb 22h    	; 34, '"'
2143 20           defb 20h    	; 32, ' '
2144 40           defb 40h    	; 64, '@'
2145 04           defb 04h    	; 4
2146 77           defb 77h    	; 119, 'w'
2147 23           defb 23h    	; 35, '#'
2148 10           defb 10h    	; 16
2149 FC           defb FCh    	; 252,   -4
214A 22           defb 22h    	; 34, '"'
214B 2C           defb 2Ch    	; 44, ','
214C 40           defb 40h    	; 64, '@'
214D 06           defb 06h    	; 6
214E FF           defb FFh    	; 255,   -1
214F C3           defb C3h    	; 195,  -61
2150 BA           defb BAh    	; 186,  -70
2151 12           defb 12h    	; 18
2152 CD           defb CDh    	; 205,  -51
2153 CA           defb CAh    	; 202,  -54
2154 11           defb 11h    	; 17
2155 04           defb 04h    	; 4
2156 C2           defb C2h    	; 194,  -62
2157 74           defb 74h    	; 116, 't'
2158 15           defb 15h    	; 21
2159 C9           defb C9h    	; 201,  -55
215A CD           defb CDh    	; 205,  -51
215B 52           defb 52h    	; 82, 'R'
215C 21           defb 21h    	; 33, '!'
215D D5           defb D5h    	; 213,  -43
215E FD           defb FDh    	; 253,   -3
215F 4E           defb 4Eh    	; 78, 'N'
2160 1E           defb 1Eh    	; 30
2161 0C           defb 0Ch    	; 12
2162 0D           defb 0Dh    	; 13
2163 20           defb 20h    	; 32, ' '
2164 04           defb 04h    	; 4
2165 61           defb 61h    	; 97, 'a'
2166 69           defb 69h    	; 105, 'i'
2167 18           defb 18h    	; 24
2168 10           defb 10h    	; 16
2169 2A           defb 2Ah    	; 42, '*'
216A 20           defb 20h    	; 32, ' '
216B 40           defb 40h    	; 64, '@'
216C ED           defb EDh    	; 237,  -19
216D 5B           defb 5Bh    	; 91, '['
216E 2C           defb 2Ch    	; 44, ','
216F 40           defb 40h    	; 64, '@'
2170 D5           defb D5h    	; 213,  -43
2171 ED           defb EDh    	; 237,  -19
2172 B0           defb B0h    	; 176,  -80
2173 78           defb 78h    	; 120, 'x'
2174 12           defb 12h    	; 18
2175 D1           defb D1h    	; 209,  -47
2176 CD           defb CDh    	; 205,  -51
2177 81           defb 81h    	; 129, -127
2178 22           defb 22h    	; 34, '"'
2179 CD           defb CDh    	; 205,  -51
217A 3A           defb 3Ah    	; 58, ':'
217B 06           defb 06h    	; 6
217C D1           defb D1h    	; 209,  -47
217D C3           defb C3h    	; 195,  -61
217E C6           defb C6h    	; 198,  -58
217F 20           defb 20h    	; 32, ' '
2180 CD           defb CDh    	; 205,  -51
2181 DB           defb DBh    	; 219,  -37
2182 12           defb 12h    	; 18
2183 D5           defb D5h    	; 213,  -43
2184 EB           defb EBh    	; 235,  -21
2185 21           defb 21h    	; 33, '!'
2186 A1           defb A1h    	; 161,  -95
2187 21           defb 21h    	; 33, '!'
2188 22           defb 22h    	; 34, '"'
2189 04           defb 04h    	; 4
218A 40           defb 40h    	; 64, '@'
218B 2A           defb 2Ah    	; 42, '*'
218C 2C           defb 2Ch    	; 44, ','
218D 40           defb 40h    	; 64, '@'
218E 22           defb 22h    	; 34, '"'
218F 20           defb 20h    	; 32, ' '
2190 40           defb 40h    	; 64, '@'
2191 CD           defb CDh    	; 205,  -51
2192 A0           defb A0h    	; 160,  -96
2193 01           defb 01h    	; 1
2194 FD           defb FDh    	; 253,   -3
2195 36           defb 36h    	; 54, '6'
2196 1E           defb 1Eh    	; 30
2197 04           defb 04h    	; 4
2198 22           defb 22h    	; 34, '"'
2199 2C           defb 2Ch    	; 44, ','
219A 40           defb 40h    	; 64, '@'
219B CD           defb CDh    	; 205,  -51
219C 23           defb 23h    	; 35, '#'
219D 04           defb 04h    	; 4
219E D1           defb D1h    	; 209,  -47
219F 18           defb 18h    	; 24
21A0 AC           defb ACh    	; 172,  -84
21A1 E1           defb E1h    	; 225,  -31
21A2 77           defb 77h    	; 119, 'w'
21A3 23           defb 23h    	; 35, '#'
21A4 C9           defb C9h    	; 201,  -55
21A5 CD           defb CDh    	; 205,  -51
21A6 AA           defb AAh    	; 170,  -86
21A7 20           defb 20h    	; 32, ' '
21A8 CD           defb CDh    	; 205,  -51
21A9 F1           defb F1h    	; 241,  -15
21AA 20           defb 20h    	; 32, ' '
21AB CD           defb CDh    	; 205,  -51
21AC E7           defb E7h    	; 231,  -25
21AD 20           defb 20h    	; 32, ' '
21AE EB           defb EBh    	; 235,  -21
21AF D1           defb D1h    	; 209,  -47
21B0 E3           defb E3h    	; 227,  -29
21B1 E5           defb E5h    	; 229,  -27
21B2 D5           defb D5h    	; 213,  -43
21B3 FD           defb FDh    	; 253,   -3
21B4 CB           defb CBh    	; 203,  -53
21B5 1E           defb 1Eh    	; 30
21B6 BE           defb BEh    	; 190,  -66
21B7 CD           defb CDh    	; 205,  -51
21B8 F1           defb F1h    	; 241,  -15
21B9 20           defb 20h    	; 32, ' '
21BA CD           defb CDh    	; 205,  -51
21BB A9           defb A9h    	; 169,  -87
21BC 06           defb 06h    	; 6
21BD CD           defb CDh    	; 205,  -51
21BE 74           defb 74h    	; 116, 't'
21BF 09           defb 09h    	; 9
21C0 D1           defb D1h    	; 209,  -47
21C1 E1           defb E1h    	; 225,  -31
21C2 CD           defb CDh    	; 205,  -51
21C3 CB           defb CBh    	; 203,  -53
21C4 07           defb 07h    	; 7
21C5 D1           defb D1h    	; 209,  -47
21C6 E1           defb E1h    	; 225,  -31
21C7 CD           defb CDh    	; 205,  -51
21C8 13           defb 13h    	; 19
21C9 07           defb 07h    	; 7
21CA 18           defb 18h    	; 24
21CB B0           defb B0h    	; 176,  -80
21CC CD           defb CDh    	; 205,  -51
21CD AA           defb AAh    	; 170,  -86
21CE 20           defb 20h    	; 32, ' '
21CF D5           defb D5h    	; 213,  -43
21D0 CD           defb CDh    	; 205,  -51
21D1 26           defb 26h    	; 38, '&'
21D2 07           defb 07h    	; 7
21D3 CD           defb CDh    	; 205,  -51
21D4 3F           defb 3Fh    	; 63, '?'
21D5 09           defb 09h    	; 9
21D6 18           defb 18h    	; 24
21D7 A4           defb A4h    	; 164,  -92
21D8 D5           defb D5h    	; 213,  -43
21D9 D5           defb D5h    	; 213,  -43
21DA CD           defb CDh    	; 205,  -51
21DB 75           defb 75h    	; 117, 'u'
21DC 0F           defb 0Fh    	; 15
21DD D1           defb D1h    	; 209,  -47
21DE 2A           defb 2Ah    	; 42, '*'
21DF 2E           defb 2Eh    	; 46, '.'
21E0 40           defb 40h    	; 64, '@'
21E1 E5           defb E5h    	; 229,  -27
21E2 3E           defb 3Eh    	; 62, '>'
21E3 D3           defb D3h    	; 211,  -45
21E4 F5           defb F5h    	; 245,  -11
21E5 C3           defb C3h    	; 195,  -61
21E6 4E           defb 4Eh    	; 78, 'N'
21E7 16           defb 16h    	; 22
21E8 F1           defb F1h    	; 241,  -15
21E9 F1           defb F1h    	; 241,  -15
21EA FE           defb FEh    	; 254,   -2
21EB D3           defb D3h    	; 211,  -45
21EC C2           defb C2h    	; 194,  -62
21ED 58           defb 58h    	; 88, 'X'
21EE 15           defb 15h    	; 21
21EF CD           defb CDh    	; 205,  -51
21F0 CD           defb CDh    	; 205,  -51
21F1 10           defb 10h    	; 16
21F2 04           defb 04h    	; 4
21F3 CA           defb CAh    	; 202,  -54
21F4 74           defb 74h    	; 116, 't'
21F5 15           defb 15h    	; 21
21F6 3A           defb 3Ah    	; 58, ':'
21F7 1F           defb 1Fh    	; 31
21F8 40           defb 40h    	; 64, '@'
21F9 A7           defb A7h    	; 167,  -89
21FA 20           defb 20h    	; 32, ' '
21FB 08           defb 08h    	; 8
21FC E1           defb E1h    	; 225,  -31
21FD 22           defb 22h    	; 34, '"'
21FE 2E           defb 2Eh    	; 46, '.'
21FF 40           defb 40h    	; 64, '@'
2200 D1           defb D1h    	; 209,  -47
2201 D5           defb D5h    	; 213,  -43
2202 18           defb 18h    	; 24
2203 DD           defb DDh    	; 221,  -35
2204 E1           defb E1h    	; 225,  -31
2205 E1           defb E1h    	; 225,  -31
2206 C9           defb C9h    	; 201,  -55
2207 1A           defb 1Ah    	; 26
2208 FE           defb FEh    	; 254,   -2
2209 3A           defb 3Ah    	; 58, ':'
220A C8           defb C8h    	; 200,  -56
220B FE           defb FEh    	; 254,   -2
220C 60           defb 60h    	; 96, '`'
220D C8           defb C8h    	; 200,  -56
220E FE           defb FEh    	; 254,   -2
220F 27           defb 27h    	; 39, '''
2210 C9           defb C9h    	; 201,  -55
2211 22           defb 22h    	; 34, '"'
2212 30           defb 30h    	; 48, '0'
2213 40           defb 40h    	; 64, '@'
2214 CD           defb CDh    	; 205,  -51
2215 66           defb 66h    	; 102, 'f'
2216 0D           defb 0Dh    	; 13
2217 3E           defb 3Eh    	; 62, '>'
2218 F3           defb F3h    	; 243,  -13
2219 0E           defb 0Eh    	; 14
221A 00           defb 00h    	; 0
221B C3           defb C3h    	; 195,  -61
221C 15           defb 15h    	; 21
221D 20           defb 20h    	; 32, ' '
221E 0E           defb 0Eh    	; 14
221F 00           defb 00h    	; 0
2220 47           defb 47h    	; 71, 'G'
2221 04           defb 04h    	; 4
2222 2A           defb 2Ah    	; 42, '*'
2223 30           defb 30h    	; 48, '0'
2224 40           defb 40h    	; 64, '@'
2225 3A           defb 3Ah    	; 58, ':'
2226 41           defb 41h    	; 65, 'A'
2227 40           defb 40h    	; 64, '@'
2228 A7           defb A7h    	; 167,  -89
2229 28           defb 28h    	; 40, '('
222A 03           defb 03h    	; 3
222B 2A           defb 2Ah    	; 42, '*'
222C 45           defb 45h    	; 69, 'E'
222D 40           defb 40h    	; 64, '@'
222E 22           defb 22h    	; 34, '"'
222F 45           defb 45h    	; 69, 'E'
2230 40           defb 40h    	; 64, '@'
2231 05           defb 05h    	; 5
2232 C8           defb C8h    	; 200,  -56
2233 0C           defb 0Ch    	; 12
2234 3E           defb 3Eh    	; 62, '>'
2235 60           defb 60h    	; 96, '`'
2236 23           defb 23h    	; 35, '#'
2237 23           defb 23h    	; 35, '#'
2238 C5           defb C5h    	; 197,  -59
2239 06           defb 06h    	; 6
223A FF           defb FFh    	; 255,   -1
223B ED           defb EDh    	; 237,  -19
223C B1           defb B1h    	; 177,  -79
223D C1           defb C1h    	; 193,  -63
223E CB           defb CBh    	; 203,  -53
223F 7E           defb 7Eh    	; 126, '~'
2240 28           defb 28h    	; 40, '('
2241 F4           defb F4h    	; 244,  -12
2242 7D           defb 7Dh    	; 125, '}'
2243 FD           defb FDh    	; 253,   -3
2244 BE           defb BEh    	; 190,  -66
2245 18           defb 18h    	; 24
2246 7C           defb 7Ch    	; 124, '|'
2247 23           defb 23h    	; 35, '#'
2248 20           defb 20h    	; 32, ' '
2249 E7           defb E7h    	; 231,  -25
224A FD           defb FDh    	; 253,   -3
224B BE           defb BEh    	; 190,  -66
224C 19           defb 19h    	; 25
224D 20           defb 20h    	; 32, ' '
224E E2           defb E2h    	; 226,  -30
224F A7           defb A7h    	; 167,  -89
2250 C9           defb C9h    	; 201,  -55
2251 CD           defb CDh    	; 205,  -51
2252 07           defb 07h    	; 7
2253 22           defb 22h    	; 34, '"'
2254 3E           defb 3Eh    	; 62, '>'
2255 00           defb 00h    	; 0
2256 C4           defb C4h    	; 196,  -60
2257 DB           defb DBh    	; 219,  -37
2258 12           defb 12h    	; 18
2259 CD           defb CDh    	; 205,  -51
225A 1E           defb 1Eh    	; 30
225B 22           defb 22h    	; 34, '"'
225C 22           defb 22h    	; 34, '"'
225D 30           defb 30h    	; 48, '0'
225E 40           defb 40h    	; 64, '@'
225F FD           defb FDh    	; 253,   -3
2260 71           defb 71h    	; 113, 'q'
2261 41           defb 41h    	; 65, 'A'
2262 C4           defb C4h    	; 196,  -60
2263 11           defb 11h    	; 17
2264 22           defb 22h    	; 34, '"'
2265 C3           defb C3h    	; 195,  -61
2266 BA           defb BAh    	; 186,  -70
2267 15           defb 15h    	; 21
2268 FD           defb FDh    	; 253,   -3
2269 6E           defb 6Eh    	; 110, 'n'
226A 41           defb 41h    	; 65, 'A'
226B C3           defb C3h    	; 195,  -61
226C 41           defb 41h    	; 65, 'A'
226D 12           defb 12h    	; 18
226E 21           defb 21h    	; 33, '!'
226F 00           defb 00h    	; 0
2270 00           defb 00h    	; 0
2271 1A           defb 1Ah    	; 26
2272 FE           defb FEh    	; 254,   -2
2273 32           defb 32h    	; 50, '2'
2274 30           defb 30h    	; 48, '0'
2275 2F           defb 2Fh    	; 47, '/'
2276 D6           defb D6h    	; 214,  -42
2277 30           defb 30h    	; 48, '0'
2278 38           defb 38h    	; 56, '8'
2279 2B           defb 2Bh    	; 43, '+'
227A 1F           defb 1Fh    	; 31
227B ED           defb EDh    	; 237,  -19
227C 6A           defb 6Ah    	; 106, 'j'
227D 13           defb 13h    	; 19
227E 18           defb 18h    	; 24
227F F1           defb F1h    	; 241,  -15
2280 13           defb 13h    	; 19
2281 1A           defb 1Ah    	; 26
2282 FE           defb FEh    	; 254,   -2
2283 20           defb 20h    	; 32, ' '
2284 28           defb 28h    	; 40, '('
2285 FA           defb FAh    	; 250,   -6
2286 21           defb 21h    	; 33, '!'
2287 00           defb 00h    	; 0
2288 00           defb 00h    	; 0
2289 1A           defb 1Ah    	; 26
228A D6           defb D6h    	; 214,  -42
228B 30           defb 30h    	; 48, '0'
228C D8           defb D8h    	; 216,  -40
228D FE           defb FEh    	; 254,   -2
228E 17           defb 17h    	; 23
228F D0           defb D0h    	; 208,  -48
2290 FE           defb FEh    	; 254,   -2
2291 0A           defb 0Ah    	; 10
2292 38           defb 38h    	; 56, '8'
2293 05           defb 05h    	; 5
2294 FE           defb FEh    	; 254,   -2
2295 11           defb 11h    	; 17
2296 D8           defb D8h    	; 216,  -40
2297 D6           defb D6h    	; 214,  -42
2298 07           defb 07h    	; 7
2299 29           defb 29h    	; 41, ')'
229A 29           defb 29h    	; 41, ')'
229B 29           defb 29h    	; 41, ')'
229C 29           defb 29h    	; 41, ')'
229D B5           defb B5h    	; 181,  -75
229E 6F           defb 6Fh    	; 111, 'o'
229F 13           defb 13h    	; 19
22A0 18           defb 18h    	; 24
22A1 E7           defb E7h    	; 231,  -25
22A2 CD           defb CDh    	; 205,  -51
22A3 86           defb 86h    	; 134, -122
22A4 22           defb 22h    	; 34, '"'
22A5 C3           defb C3h    	; 195,  -61
22A6 43           defb 43h    	; 67, 'C'
22A7 12           defb 12h    	; 18
22A8 CD           defb CDh    	; 205,  -51
22A9 6E           defb 6Eh    	; 110, 'n'
22AA 0E           defb 0Eh    	; 14
22AB 28           defb 28h    	; 40, '('
22AC 06           defb 06h    	; 6
22AD FE           defb FEh    	; 254,   -2
22AE 82           defb 82h    	; 130, -126
22AF 20           defb 20h    	; 32, ' '
22B0 14           defb 14h    	; 20
22B1 18           defb 18h    	; 24
22B2 08           defb 08h    	; 8
22B3 FE           defb FEh    	; 254,   -2
22B4 82           defb 82h    	; 130, -126
22B5 28           defb 28h    	; 40, '('
22B6 04           defb 04h    	; 4
22B7 44           defb 44h    	; 68, 'D'
22B8 4D           defb 4Dh    	; 77, 'M'
22B9 18           defb 18h    	; 24
22BA 0D           defb 0Dh    	; 13
22BB 13           defb 13h    	; 19
22BC E5           defb E5h    	; 229,  -27
22BD CD           defb CDh    	; 205,  -51
22BE 6E           defb 6Eh    	; 110, 'n'
22BF 0E           defb 0Eh    	; 14
22C0 44           defb 44h    	; 68, 'D'
22C1 4D           defb 4Dh    	; 77, 'M'
22C2 E1           defb E1h    	; 225,  -31
22C3 28           defb 28h    	; 40, '('
22C4 03           defb 03h    	; 3
22C5 01           defb 01h    	; 1
22C6 FD           defb FDh    	; 253,   -3
22C7 7F           defb 7Fh    	; 127
22C8 C5           defb C5h    	; 197,  -59
22C9 CD           defb CDh    	; 205,  -51
22CA 49           defb 49h    	; 73, 'I'
22CB 0D           defb 0Dh    	; 13
22CC 1B           defb 1Bh    	; 27
22CD 1B           defb 1Bh    	; 27
22CE E1           defb E1h    	; 225,  -31
22CF D5           defb D5h    	; 213,  -43
22D0 23           defb 23h    	; 35, '#'
22D1 CD           defb CDh    	; 205,  -51
22D2 4F           defb 4Fh    	; 79, 'O'
22D3 0D           defb 0Dh    	; 13
22D4 1B           defb 1Bh    	; 27
22D5 1B           defb 1Bh    	; 27
22D6 2A           defb 2Ah    	; 42, '*'
22D7 18           defb 18h    	; 24
22D8 40           defb 40h    	; 64, '@'
22D9 23           defb 23h    	; 35, '#'
22DA A7           defb A7h    	; 167,  -89
22DB ED           defb EDh    	; 237,  -19
22DC 52           defb 52h    	; 82, 'R'
22DD 44           defb 44h    	; 68, 'D'
22DE 4D           defb 4Dh    	; 77, 'M'
22DF EB           defb EBh    	; 235,  -21
22E0 D1           defb D1h    	; 209,  -47
22E1 ED           defb EDh    	; 237,  -19
22E2 B0           defb B0h    	; 176,  -80
22E3 1B           defb 1Bh    	; 27
22E4 EB           defb EBh    	; 235,  -21
22E5 CD           defb CDh    	; 205,  -51
22E6 66           defb 66h    	; 102, 'f'
22E7 0D           defb 0Dh    	; 13
22E8 C3           defb C3h    	; 195,  -61
22E9 BA           defb BAh    	; 186,  -70
22EA 15           defb 15h    	; 21
22EB CD           defb CDh    	; 205,  -51
22EC DB           defb DBh    	; 219,  -37
22ED 12           defb 12h    	; 18
22EE CD           defb CDh    	; 205,  -51
22EF 1E           defb 1Eh    	; 30
22F0 22           defb 22h    	; 34, '"'
22F1 C2           defb C2h    	; 194,  -62
22F2 7C           defb 7Ch    	; 124, '|'
22F3 15           defb 15h    	; 21
22F4 E7           defb E7h    	; 231,  -25
22F5 FE           defb FEh    	; 254,   -2
22F6 2C           defb 2Ch    	; 44, ','
22F7 C2           defb C2h    	; 194,  -62
22F8 70           defb 70h    	; 112, 'p'
22F9 15           defb 15h    	; 21
22FA C5           defb C5h    	; 197,  -59
22FB E5           defb E5h    	; 229,  -27
22FC CD           defb CDh    	; 205,  -51
22FD 3E           defb 3Eh    	; 62, '>'
22FE 17           defb 17h    	; 23
22FF EB           defb EBh    	; 235,  -21
2300 E3           defb E3h    	; 227,  -29
2301 E5           defb E5h    	; 229,  -27
2302 CD           defb CDh    	; 205,  -51
2303 56           defb 56h    	; 86, 'V'
2304 0D           defb 0Dh    	; 13
2305 DA           defb DAh    	; 218,  -38
2306 7C           defb 7Ch    	; 124, '|'
2307 15           defb 15h    	; 21
2308 E1           defb E1h    	; 225,  -31
2309 22           defb 22h    	; 34, '"'
230A 30           defb 30h    	; 48, '0'
230B 40           defb 40h    	; 64, '@'
230C E1           defb E1h    	; 225,  -31
230D C1           defb C1h    	; 193,  -63
230E FD           defb FDh    	; 253,   -3
230F 71           defb 71h    	; 113, 'q'
2310 41           defb 41h    	; 65, 'A'
2311 C9           defb C9h    	; 201,  -55
2312 C1           defb C1h    	; 193,  -63
2313 CD           defb CDh    	; 205,  -51
2314 EB           defb EBh    	; 235,  -21
2315 22           defb 22h    	; 34, '"'
2316 C3           defb C3h    	; 195,  -61
2317 67           defb 67h    	; 103, 'g'
2318 17           defb 17h    	; 23
2319 C1           defb C1h    	; 193,  -63
231A D5           defb D5h    	; 213,  -43
231B CD           defb CDh    	; 205,  -51
231C 75           defb 75h    	; 117, 'u'
231D 0F           defb 0Fh    	; 15
231E D1           defb D1h    	; 209,  -47
231F FD           defb FDh    	; 253,   -3
2320 4E           defb 4Eh    	; 78, 'N'
2321 41           defb 41h    	; 65, 'A'
2322 C5           defb C5h    	; 197,  -59
2323 2A           defb 2Ah    	; 42, '*'
2324 30           defb 30h    	; 48, '0'
2325 40           defb 40h    	; 64, '@'
2326 E5           defb E5h    	; 229,  -27
2327 2A           defb 2Ah    	; 42, '*'
2328 2E           defb 2Eh    	; 46, '.'
2329 40           defb 40h    	; 64, '@'
232A E5           defb E5h    	; 229,  -27
232B CD           defb CDh    	; 205,  -51
232C EB           defb EBh    	; 235,  -21
232D 22           defb 22h    	; 34, '"'
232E E5           defb E5h    	; 229,  -27
232F 3E           defb 3Eh    	; 62, '>'
2330 D8           defb D8h    	; 216,  -40
2331 F5           defb F5h    	; 245,  -11
2332 18           defb 18h    	; 24
2333 E2           defb E2h    	; 226,  -30
2334 E1           defb E1h    	; 225,  -31
2335 F1           defb F1h    	; 241,  -15
2336 FE           defb FEh    	; 254,   -2
2337 D8           defb D8h    	; 216,  -40
2338 C2           defb C2h    	; 194,  -62
2339 89           defb 89h    	; 137, -119
233A 17           defb 17h    	; 23
233B D1           defb D1h    	; 209,  -47
233C E1           defb E1h    	; 225,  -31
233D 22           defb 22h    	; 34, '"'
233E 2E           defb 2Eh    	; 46, '.'
233F 40           defb 40h    	; 64, '@'
2340 E1           defb E1h    	; 225,  -31
2341 22           defb 22h    	; 34, '"'
2342 30           defb 30h    	; 48, '0'
2343 40           defb 40h    	; 64, '@'
2344 C1           defb C1h    	; 193,  -63
2345 FD           defb FDh    	; 253,   -3
2346 71           defb 71h    	; 113, 'q'
2347 41           defb 41h    	; 65, 'A'
2348 C3           defb C3h    	; 195,  -61
2349 4E           defb 4Eh    	; 78, 'N'
234A 16           defb 16h    	; 22
234B CD           defb CDh    	; 205,  -51
234C A8           defb A8h    	; 168,  -88
234D 0E           defb 0Eh    	; 14
234E 38           defb 38h    	; 56, '8'
234F 03           defb 03h    	; 3
2350 21           defb 21h    	; 33, '!'
2351 00           defb 00h    	; 0
2352 00           defb 00h    	; 0
2353 D5           defb D5h    	; 213,  -43
2354 C3           defb C3h    	; 195,  -61
2355 79           defb 79h    	; 121, 'y'
2356 21           defb 21h    	; 33, '!'
2357 CD           defb CDh    	; 205,  -51
2358 AA           defb AAh    	; 170,  -86
2359 20           defb 20h    	; 32, ' '
235A CD           defb CDh    	; 205,  -51
235B F1           defb F1h    	; 241,  -15
235C 20           defb 20h    	; 32, ' '
235D CD           defb CDh    	; 205,  -51
235E 5E           defb 5Eh    	; 94, '^'
235F 0B           defb 0Bh    	; 11
2360 CD           defb CDh    	; 205,  -51
2361 A5           defb A5h    	; 165,  -91
2362 20           defb 20h    	; 32, ' '
2363 D5           defb D5h    	; 213,  -43
2364 21           defb 21h    	; 33, '!'
2365 00           defb 00h    	; 0
2366 00           defb 00h    	; 0
2367 11           defb 11h    	; 17
2368 20           defb 20h    	; 32, ' '
2369 84           defb 84h    	; 132, -124
236A CD           defb CDh    	; 205,  -51
236B 49           defb 49h    	; 73, 'I'
236C 0C           defb 0Ch    	; 12
236D F1           defb F1h    	; 241,  -15
236E D1           defb D1h    	; 209,  -47
236F E1           defb E1h    	; 225,  -31
2370 F5           defb F5h    	; 245,  -11
2371 CD           defb CDh    	; 205,  -51
2372 F1           defb F1h    	; 241,  -15
2373 20           defb 20h    	; 32, ' '
2374 CD           defb CDh    	; 205,  -51
2375 CB           defb CBh    	; 203,  -53
2376 07           defb 07h    	; 7
2377 11           defb 11h    	; 17
2378 00           defb 00h    	; 0
2379 80           defb 80h    	; 128, -128
237A CD           defb CDh    	; 205,  -51
237B 0E           defb 0Eh    	; 14
237C 07           defb 07h    	; 7
237D CD           defb CDh    	; 205,  -51
237E 74           defb 74h    	; 116, 't'
237F 09           defb 09h    	; 9
2380 D9           defb D9h    	; 217,  -39
2381 D1           defb D1h    	; 209,  -47
2382 E1           defb E1h    	; 225,  -31
2383 CD           defb CDh    	; 205,  -51
2384 71           defb 71h    	; 113, 'q'
2385 06           defb 06h    	; 6
2386 D9           defb D9h    	; 217,  -39
2387 CD           defb CDh    	; 205,  -51
2388 A9           defb A9h    	; 169,  -87
2389 06           defb 06h    	; 6
238A D1           defb D1h    	; 209,  -47
238B C3           defb C3h    	; 195,  -61
238C C6           defb C6h    	; 198,  -58
238D 20           defb 20h    	; 32, ' '
238E CD           defb CDh    	; 205,  -51
238F DB           defb DBh    	; 219,  -37
2390 12           defb 12h    	; 18
2391 E6           defb E6h    	; 230,  -26
2392 3F           defb 3Fh    	; 63, '?'
2393 CA           defb CAh    	; 202,  -54
2394 54           defb 54h    	; 84, 'T'
2395 15           defb 15h    	; 21
2396 F5           defb F5h    	; 245,  -11
2397 CD           defb CDh    	; 205,  -51
2398 D5           defb D5h    	; 213,  -43
2399 12           defb 12h    	; 18
239A C1           defb C1h    	; 193,  -63
239B CD           defb CDh    	; 205,  -51
239C E0           defb E0h    	; 224,  -32
239D 25           defb 25h    	; 37, '%'
239E C5           defb C5h    	; 197,  -59
239F CD           defb CDh    	; 205,  -51
23A0 64           defb 64h    	; 100, 'd'
23A1 20           defb 20h    	; 32, ' '
23A2 20           defb 20h    	; 32, ' '
23A3 0F           defb 0Fh    	; 15
23A4 CD           defb CDh    	; 205,  -51
23A5 00           defb 00h    	; 0
23A6 00           defb 00h    	; 0
23A7 C1           defb C1h    	; 193,  -63
23A8 D5           defb D5h    	; 213,  -43
23A9 C5           defb C5h    	; 197,  -59
23AA FD           defb FDh    	; 253,   -3
23AB 36           defb 36h    	; 54, '6'
23AC 2A           defb 2Ah    	; 42, '*'
23AD 00           defb 00h    	; 0
23AE CD           defb CDh    	; 205,  -51
23AF 00           defb 00h    	; 0
23B0 00           defb 00h    	; 0
23B1 18           defb 18h    	; 24
23B2 0D           defb 0Dh    	; 13
23B3 CD           defb CDh    	; 205,  -51
23B4 E7           defb E7h    	; 231,  -25
23B5 20           defb 20h    	; 32, ' '
23B6 C1           defb C1h    	; 193,  -63
23B7 D5           defb D5h    	; 213,  -43
23B8 C5           defb C5h    	; 197,  -59
23B9 FD           defb FDh    	; 253,   -3
23BA 36           defb 36h    	; 54, '6'
23BB 2A           defb 2Ah    	; 42, '*'
23BC 00           defb 00h    	; 0
23BD CD           defb CDh    	; 205,  -51
23BE 74           defb 74h    	; 116, 't'
23BF 08           defb 08h    	; 8
23C0 EB           defb EBh    	; 235,  -21
23C1 60           defb 60h    	; 96, '`'
23C2 69           defb 69h    	; 105, 'i'
23C3 C1           defb C1h    	; 193,  -63
23C4 22           defb 22h    	; 34, '"'
23C5 20           defb 20h    	; 32, ' '
23C6 40           defb 40h    	; 64, '@'
23C7 36           defb 36h    	; 54, '6'
23C8 20           defb 20h    	; 32, ' '
23C9 23           defb 23h    	; 35, '#'
23CA 78           defb 78h    	; 120, 'x'
23CB 81           defb 81h    	; 129, -127
23CC 47           defb 47h    	; 71, 'G'
23CD E7           defb E7h    	; 231,  -25
23CE CB           defb CBh    	; 203,  -53
23CF 47           defb 47h    	; 71, 'G'
23D0 20           defb 20h    	; 32, ' '
23D1 02           defb 02h    	; 2
23D2 3E           defb 3Eh    	; 62, '>'
23D3 2B           defb 2Bh    	; 43, '+'
23D4 DD           defb DDh    	; 221,  -35
23D5 6F           defb 6Fh    	; 111, 'o'
23D6 FD           defb FDh    	; 253,   -3
23D7 7E           defb 7Eh    	; 126, '~'
23D8 2A           defb 2Ah    	; 42, '*'
23D9 81           defb 81h    	; 129, -127
23DA 04           defb 04h    	; 4
23DB B8           defb B8h    	; 184,  -72
23DC 04           defb 04h    	; 4
23DD FD           defb FDh    	; 253,   -3
23DE 70           defb 70h    	; 112, 'p'
23DF 1E           defb 1Eh    	; 30
23E0 38           defb 38h    	; 56, '8'
23E1 06           defb 06h    	; 6
23E2 D1           defb D1h    	; 209,  -47
23E3 DD           defb DDh    	; 221,  -35
23E4 7D           defb 7Dh    	; 125, '}'
23E5 C3           defb C3h    	; 195,  -61
23E6 3C           defb 3Ch    	; 60, '<'
23E7 21           defb 21h    	; 33, '!'
23E8 05           defb 05h    	; 5
23E9 05           defb 05h    	; 5
23EA FD           defb FDh    	; 253,   -3
23EB CB           defb CBh    	; 203,  -53
23EC 42           defb 42h    	; 66, 'B'
23ED BE           defb BEh    	; 190,  -66
23EE 78           defb 78h    	; 120, 'x'
23EF B9           defb B9h    	; 185,  -71
23F0 20           defb 20h    	; 32, ' '
23F1 0F           defb 0Fh    	; 15
23F2 FD           defb FDh    	; 253,   -3
23F3 CB           defb CBh    	; 203,  -53
23F4 42           defb 42h    	; 66, 'B'
23F5 FE           defb FEh    	; 254,   -2
23F6 FD           defb FDh    	; 253,   -3
23F7 CB           defb CBh    	; 203,  -53
23F8 42           defb 42h    	; 66, 'B'
23F9 4E           defb 4Eh    	; 78, 'N'
23FA 36           defb 36h    	; 54, '6'
23FB 2E           defb 2Eh    	; 46, '.'
23FC 28           defb 28h    	; 40, '('
23FD 02           defb 02h    	; 2
23FE 36           defb 36h    	; 54, '6'
23FF 2C           defb 2Ch    	; 44, ','
2400 23           defb 23h    	; 35, '#'
2401 FD           defb FDh    	; 253,   -3
2402 7E           defb 7Eh    	; 126, '~'
2403 2A           defb 2Ah    	; 42, '*'
2404 81           defb 81h    	; 129, -127
2405 B8           defb B8h    	; 184,  -72
2406 30           defb 30h    	; 48, '0'
2407 0A           defb 0Ah    	; 10
2408 3E           defb 3Eh    	; 62, '>'
2409 20           defb 20h    	; 32, ' '
240A FD           defb FDh    	; 253,   -3
240B CB           defb CBh    	; 203,  -53
240C 42           defb 42h    	; 66, 'B'
240D 7E           defb 7Eh    	; 126, '~'
240E 28           defb 28h    	; 40, '('
240F 12           defb 12h    	; 18
2410 18           defb 18h    	; 24
2411 0E           defb 0Eh    	; 14
2412 E7           defb E7h    	; 231,  -25
2413 FE           defb FEh    	; 254,   -2
2414 2E           defb 2Eh    	; 46, '.'
2415 28           defb 28h    	; 40, '('
2416 FB           defb FBh    	; 251,   -5
2417 FE           defb FEh    	; 254,   -2
2418 30           defb 30h    	; 48, '0'
2419 38           defb 38h    	; 56, '8'
241A 04           defb 04h    	; 4
241B FE           defb FEh    	; 254,   -2
241C 3A           defb 3Ah    	; 58, ':'
241D 38           defb 38h    	; 56, '8'
241E 03           defb 03h    	; 3
241F 1B           defb 1Bh    	; 27
2420 3E           defb 3Eh    	; 62, '>'
2421 30           defb 30h    	; 48, '0'
2422 77           defb 77h    	; 119, 'w'
2423 23           defb 23h    	; 35, '#'
2424 10           defb 10h    	; 16
2425 C8           defb C8h    	; 200,  -56
2426 22           defb 22h    	; 34, '"'
2427 2C           defb 2Ch    	; 44, ','
2428 40           defb 40h    	; 64, '@'
2429 FD           defb FDh    	; 253,   -3
242A 56           defb 56h    	; 86, 'V'
242B 42           defb 42h    	; 66, 'B'
242C 01           defb 01h    	; 1
242D 00           defb 00h    	; 0
242E 30           defb 30h    	; 48, '0'
242F CB           defb CBh    	; 203,  -53
2430 52           defb 52h    	; 82, 'R'
2431 28           defb 28h    	; 40, '('
2432 02           defb 02h    	; 2
2433 0E           defb 0Eh    	; 14
2434 01           defb 01h    	; 1
2435 2B           defb 2Bh    	; 43, '+'
2436 7E           defb 7Eh    	; 126, '~'
2437 FE           defb FEh    	; 254,   -2
2438 2F           defb 2Fh    	; 47, '/'
2439 38           defb 38h    	; 56, '8'
243A 0B           defb 0Bh    	; 11
243B CB           defb CBh    	; 203,  -53
243C 41           defb 41h    	; 65, 'A'
243D 20           defb 20h    	; 32, ' '
243E F6           defb F6h    	; 246,  -10
243F B8           defb B8h    	; 184,  -72
2440 20           defb 20h    	; 32, ' '
2441 F1           defb F1h    	; 241,  -15
2442 36           defb 36h    	; 54, '6'
2443 20           defb 20h    	; 32, ' '
2444 18           defb 18h    	; 24
2445 EF           defb EFh    	; 239,  -17
2446 CB           defb CBh    	; 203,  -53
2447 41           defb 41h    	; 65, 'A'
2448 20           defb 20h    	; 32, ' '
2449 15           defb 15h    	; 21
244A CB           defb CBh    	; 203,  -53
244B 5A           defb 5Ah    	; 90, 'Z'
244C 28           defb 28h    	; 40, '('
244D 05           defb 05h    	; 5
244E 23           defb 23h    	; 35, '#'
244F 70           defb 70h    	; 112, 'p'
2450 2B           defb 2Bh    	; 43, '+'
2451 18           defb 18h    	; 24
2452 0C           defb 0Ch    	; 12
2453 36           defb 36h    	; 54, '6'
2454 20           defb 20h    	; 32, ' '
2455 2B           defb 2Bh    	; 43, '+'
2456 CB           defb CBh    	; 203,  -53
2457 A2           defb A2h    	; 162,  -94
2458 7E           defb 7Eh    	; 126, '~'
2459 FE           defb FEh    	; 254,   -2
245A 20           defb 20h    	; 32, ' '
245B 20           defb 20h    	; 32, ' '
245C 01           defb 01h    	; 1
245D 70           defb 70h    	; 112, 'p'
245E 23           defb 23h    	; 35, '#'
245F CB           defb CBh    	; 203,  -53
2460 62           defb 62h    	; 98, 'b'
2461 20           defb 20h    	; 32, ' '
2462 F2           defb F2h    	; 242,  -14
2463 DD           defb DDh    	; 221,  -35
2464 7D           defb 7Dh    	; 125, '}'
2465 CB           defb CBh    	; 203,  -53
2466 42           defb 42h    	; 66, 'B'
2467 20           defb 20h    	; 32, ' '
2468 06           defb 06h    	; 6
2469 FE           defb FEh    	; 254,   -2
246A 2B           defb 2Bh    	; 43, '+'
246B 20           defb 20h    	; 32, ' '
246C 02           defb 02h    	; 2
246D 3E           defb 3Eh    	; 62, '>'
246E 20           defb 20h    	; 32, ' '
246F 2A           defb 2Ah    	; 42, '*'
2470 20           defb 20h    	; 32, ' '
2471 40           defb 40h    	; 64, '@'
2472 4F           defb 4Fh    	; 79, 'O'
2473 CB           defb CBh    	; 203,  -53
2474 6A           defb 6Ah    	; 106, 'j'
2475 EB           defb EBh    	; 235,  -21
2476 28           defb 28h    	; 40, '('
2477 07           defb 07h    	; 7
2478 E7           defb E7h    	; 231,  -25
2479 FE           defb FEh    	; 254,   -2
247A 20           defb 20h    	; 32, ' '
247B 28           defb 28h    	; 40, '('
247C FB           defb FBh    	; 251,   -5
247D 1B           defb 1Bh    	; 27
247E 1B           defb 1Bh    	; 27
247F 79           defb 79h    	; 121, 'y'
2480 12           defb 12h    	; 18
2481 D1           defb D1h    	; 209,  -47
2482 C3           defb C3h    	; 195,  -61
2483 4D           defb 4Dh    	; 77, 'M'
2484 21           defb 21h    	; 33, '!'
2485 CD           defb CDh    	; 205,  -51
2486 04           defb 04h    	; 4
2487 20           defb 20h    	; 32, ' '
2488 3E           defb 3Eh    	; 62, '>'
2489 21           defb 21h    	; 33, '!'
248A EF           defb EFh    	; 239,  -17
248B 3E           defb 3Eh    	; 62, '>'
248C 0D           defb 0Dh    	; 13
248D EF           defb EFh    	; 239,  -17
248E EF           defb EFh    	; 239,  -17
248F C9           defb C9h    	; 201,  -55
2490 90           defb 90h    	; 144, -112
2491 A9           defb A9h    	; 169,  -87
2492 A4           defb A4h    	; 164,  -92
2493 96           defb 96h    	; 150, -106
2494 CF           defb CFh    	; 207,  -49
2495 CE           defb CEh    	; 206,  -50
2496 92           defb 92h    	; 146, -110
2497 9A           defb 9Ah    	; 154, -102
2498 94           defb 94h    	; 148, -108
2499 AE           defb AEh    	; 174,  -82
249A A2           defb A2h    	; 162,  -94
249B AC           defb ACh    	; 172,  -84
249C 8F           defb 8Fh    	; 143, -113
249D 97           defb 97h    	; 151, -105
249E 93           defb 93h    	; 147, -109
249F A7           defb A7h    	; 167,  -89
24A0 9C           defb 9Ch    	; 156, -100
24A1 98           defb 98h    	; 152, -104
24A2 D1           defb D1h    	; 209,  -47
24A3 9F           defb 9Fh    	; 159,  -97
24A4 D2           defb D2h    	; 210,  -46
24A5 99           defb 99h    	; 153, -103
24A6 A3           defb A3h    	; 163,  -93
24A7 A1           defb A1h    	; 161,  -95
24A8 D0           defb D0h    	; 208,  -48
24A9 D6           defb D6h    	; 214,  -42
24AA D3           defb D3h    	; 211,  -45
24AB CB           defb CBh    	; 203,  -53
24AC 89           defb 89h    	; 137, -119
24AD AD           defb ADh    	; 173,  -83
24AE 00           defb 00h    	; 0
24AF 91           defb 91h    	; 145, -111
24B0 D7           defb D7h    	; 215,  -41
24B1 BE           defb BEh    	; 190,  -66
24B2 DC           defb DCh    	; 220,  -36
24B3 BF           defb BFh    	; 191,  -65
24B4 BC           defb BCh    	; 188,  -68
24B5 BB           defb BBh    	; 187,  -69
24B6 B7           defb B7h    	; 183,  -73
24B7 DB           defb DBh    	; 219,  -37
24B8 E4           defb E4h    	; 228,  -28
24B9 8C           defb 8Ch    	; 140, -116
24BA B6           defb B6h    	; 182,  -74
24BB C2           defb C2h    	; 194,  -62
24BC AF           defb AFh    	; 175,  -81
24BD B5           defb B5h    	; 181,  -75
24BE DF           defb DFh    	; 223,  -33
24BF B2           defb B2h    	; 178,  -78
24C0 BA           defb BAh    	; 186,  -70
24C1 BD           defb BDh    	; 189,  -67
24C2 B4           defb B4h    	; 180,  -76
24C3 C1           defb C1h    	; 193,  -63
24C4 DA           defb DAh    	; 218,  -38
24C5 C0           defb C0h    	; 192,  -64
24C6 B8           defb B8h    	; 184,  -72
24C7 B9           defb B9h    	; 185,  -71
24C8 C4           defb C4h    	; 196,  -60
24C9 DD           defb DDh    	; 221,  -35
24CA C3           defb C3h    	; 195,  -61
24CB B1           defb B1h    	; 177,  -79
24CC B3           defb B3h    	; 179,  -77
24CD B0           defb B0h    	; 176,  -80
24CE 00           defb 00h    	; 0
24CF E0           defb E0h    	; 224,  -32
24D0 47           defb 47h    	; 71, 'G'
24D1 3A           defb 3Ah    	; 58, ':'
24D2 02           defb 02h    	; 2
24D3 E8           defb E8h    	; 232,  -24
24D4 E6           defb E6h    	; 230,  -26
24D5 0A           defb 0Ah    	; 10
24D6 78           defb 78h    	; 120, 'x'
24D7 CA           defb CAh    	; 202,  -54
24D8 00           defb 00h    	; 0
24D9 00           defb 00h    	; 0
24DA FE           defb FEh    	; 254,   -2
24DB 10           defb 10h    	; 16
24DC 30           defb 30h    	; 48, '0'
24DD 03           defb 03h    	; 3
24DE C6           defb C6h    	; 198,  -58
24DF 10           defb 10h    	; 16
24E0 C9           defb C9h    	; 201,  -55
24E1 FD           defb FDh    	; 253,   -3
24E2 CB           defb CBh    	; 203,  -53
24E3 08           defb 08h    	; 8
24E4 46           defb 46h    	; 70, 'F'
24E5 20           defb 20h    	; 32, ' '
24E6 01           defb 01h    	; 1
24E7 A9           defb A9h    	; 169,  -87
24E8 FE           defb FEh    	; 254,   -2
24E9 60           defb 60h    	; 96, '`'
24EA CB           defb CBh    	; 203,  -53
24EB 4A           defb 4Ah    	; 74, 'J'
24EC 38           defb 38h    	; 56, '8'
24ED 05           defb 05h    	; 5
24EE 20           defb 20h    	; 32, ' '
24EF 01           defb 01h    	; 1
24F0 81           defb 81h    	; 129, -127
24F1 81           defb 81h    	; 129, -127
24F2 C9           defb C9h    	; 201,  -55
24F3 20           defb 20h    	; 32, ' '
24F4 02           defb 02h    	; 2
24F5 C6           defb C6h    	; 198,  -58
24F6 20           defb 20h    	; 32, ' '
24F7 C6           defb C6h    	; 198,  -58
24F8 50           defb 50h    	; 80, 'P'
24F9 6F           defb 6Fh    	; 111, 'o'
24FA 26           defb 26h    	; 38, '&'
24FB 24           defb 24h    	; 36, '$'
24FC 7E           defb 7Eh    	; 126, '~'
24FD A7           defb A7h    	; 167,  -89
24FE 21           defb 21h    	; 33, '!'
24FF 04           defb 04h    	; 4
2500 25           defb 25h    	; 37, '%'
2501 C3           defb C3h    	; 195,  -61
2502 1F           defb 1Fh    	; 31
2503 04           defb 04h    	; 4
2504 E1           defb E1h    	; 225,  -31
2505 CD           defb CDh    	; 205,  -51
2506 23           defb 23h    	; 35, '#'
2507 04           defb 04h    	; 4
2508 D5           defb D5h    	; 213,  -43
2509 CD           defb CDh    	; 205,  -51
250A 04           defb 04h    	; 4
250B 20           defb 20h    	; 32, ' '
250C D1           defb D1h    	; 209,  -47
250D C9           defb C9h    	; 201,  -55
250E 21           defb 21h    	; 33, '!'
250F 00           defb 00h    	; 0
2510 06           defb 06h    	; 6
2511 FD           defb FDh    	; 253,   -3
2512 CB           defb CBh    	; 203,  -53
2513 06           defb 06h    	; 6
2514 76           defb 76h    	; 118, 'v'
2515 20           defb 20h    	; 32, ' '
2516 03           defb 03h    	; 3
2517 21           defb 21h    	; 33, '!'
2518 D0           defb D0h    	; 208,  -48
2519 24           defb 24h    	; 36, '$'
251A 22           defb 22h    	; 34, '"'
251B 06           defb 06h    	; 6
251C 40           defb 40h    	; 64, '@'
251D C9           defb C9h    	; 201,  -55
251E FE           defb FEh    	; 254,   -2
251F C9           defb C9h    	; 201,  -55
2520 DA           defb DAh    	; 218,  -38
2521 70           defb 70h    	; 112, 'p'
2522 15           defb 15h    	; 21
2523 FE           defb FEh    	; 254,   -2
2524 D7           defb D7h    	; 215,  -41
2525 D2           defb D2h    	; 210,  -46
2526 70           defb 70h    	; 112, 'p'
2527 15           defb 15h    	; 21
2528 C3           defb C3h    	; 195,  -61
2529 85           defb 85h    	; 133, -123
252A 20           defb 20h    	; 32, ' '
252B 4F           defb 4Fh    	; 79, 'O'
252C 1A           defb 1Ah    	; 26
252D FE           defb FEh    	; 254,   -2
252E 22           defb 22h    	; 34, '"'
252F C8           defb C8h    	; 200,  -56
2530 C5           defb C5h    	; 197,  -59
2531 CD           defb CDh    	; 205,  -51
2532 DB           defb DBh    	; 219,  -37
2533 12           defb 12h    	; 18
2534 C1           defb C1h    	; 193,  -63
2535 F5           defb F5h    	; 245,  -11
2536 E7           defb E7h    	; 231,  -25
2537 FE           defb FEh    	; 254,   -2
2538 2C           defb 2Ch    	; 44, ','
2539 C2           defb C2h    	; 194,  -62
253A 70           defb 70h    	; 112, 'p'
253B 15           defb 15h    	; 21
253C F1           defb F1h    	; 241,  -15
253D A7           defb A7h    	; 167,  -89
253E C8           defb C8h    	; 200,  -56
253F E1           defb E1h    	; 225,  -31
2540 2A           defb 2Ah    	; 42, '*'
2541 50           defb 50h    	; 80, 'P'
2542 40           defb 40h    	; 64, '@'
2543 E9           defb E9h    	; 233,  -23
2544 3E           defb 3Eh    	; 62, '>'
2545 01           defb 01h    	; 1
2546 CD           defb CDh    	; 205,  -51
2547 2B           defb 2Bh    	; 43, '+'
2548 25           defb 25h    	; 37, '%'
2549 C3           defb C3h    	; 195,  -61
254A F1           defb F1h    	; 241,  -15
254B 15           defb 15h    	; 21
254C 3E           defb 3Eh    	; 62, '>'
254D 02           defb 02h    	; 2
254E CD           defb CDh    	; 205,  -51
254F 2B           defb 2Bh    	; 43, '+'
2550 25           defb 25h    	; 37, '%'
2551 C3           defb C3h    	; 195,  -61
2552 F0           defb F0h    	; 240,  -16
2553 1E           defb 1Eh    	; 30
2554 CD           defb CDh    	; 205,  -51
2555 DB           defb DBh    	; 219,  -37
2556 25           defb 25h    	; 37, '%'
2557 CD           defb CDh    	; 205,  -51
2558 1F           defb 1Fh    	; 31
2559 06           defb 06h    	; 6
255A A7           defb A7h    	; 167,  -89
255B 20           defb 20h    	; 32, ' '
255C FA           defb FAh    	; 250,   -6
255D CF           defb CFh    	; 207,  -49
255E C9           defb C9h    	; 201,  -55
255F 3E           defb 3Eh    	; 62, '>'
2560 04           defb 04h    	; 4
2561 CD           defb CDh    	; 205,  -51
2562 54           defb 54h    	; 84, 'T'
2563 25           defb 25h    	; 37, '%'
2564 6F           defb 6Fh    	; 111, 'o'
2565 CF           defb CFh    	; 207,  -49
2566 67           defb 67h    	; 103, 'g'
2567 CF           defb CFh    	; 207,  -49
2568 4F           defb 4Fh    	; 79, 'O'
2569 CF           defb CFh    	; 207,  -49
256A 47           defb 47h    	; 71, 'G'
256B 11           defb 11h    	; 17
256C A1           defb A1h    	; 161,  -95
256D 40           defb 40h    	; 64, '@'
256E CF           defb CFh    	; 207,  -49
256F A7           defb A7h    	; 167,  -89
2570 ED           defb EDh    	; 237,  -19
2571 52           defb 52h    	; 82, 'R'
2572 19           defb 19h    	; 25
2573 38           defb 38h    	; 56, '8'
2574 03           defb 03h    	; 3
2575 BE           defb BEh    	; 190,  -66
2576 20           defb 20h    	; 32, ' '
2577 09           defb 09h    	; 9
2578 23           defb 23h    	; 35, '#'
2579 0B           defb 0Bh    	; 11
257A 78           defb 78h    	; 120, 'x'
257B B1           defb B1h    	; 177,  -79
257C 20           defb 20h    	; 32, ' '
257D F0           defb F0h    	; 240,  -16
257E C3           defb C3h    	; 195,  -61
257F 79           defb 79h    	; 121, 'y'
2580 00           defb 00h    	; 0
2581 7E           defb 7Eh    	; 126, '~'
2582 FE           defb FEh    	; 254,   -2
2583 CF           defb CFh    	; 207,  -49
2584 20           defb 20h    	; 32, ' '
2585 B3           defb B3h    	; 179,  -77
2586 2B           defb 2Bh    	; 43, '+'
2587 7E           defb 7Eh    	; 126, '~'
2588 FE           defb FEh    	; 254,   -2
2589 3A           defb 3Ah    	; 58, ':'
258A 20           defb 20h    	; 32, ' '
258B AD           defb ADh    	; 173,  -83
258C 18           defb 18h    	; 24
258D F0           defb F0h    	; 240,  -16
258E 3E           defb 3Eh    	; 62, '>'
258F 03           defb 03h    	; 3
2590 CD           defb CDh    	; 205,  -51
2591 54           defb 54h    	; 84, 'T'
2592 25           defb 25h    	; 37, '%'
2593 FE           defb FEh    	; 254,   -2
2594 16           defb 16h    	; 22
2595 20           defb 20h    	; 32, ' '
2596 A2           defb A2h    	; 162,  -94
2597 CF           defb CFh    	; 207,  -49
2598 FE           defb FEh    	; 254,   -2
2599 40           defb 40h    	; 64, '@'
259A 20           defb 20h    	; 32, ' '
259B 9D           defb 9Dh    	; 157,  -99
259C CF           defb CFh    	; 207,  -49
259D 5F           defb 5Fh    	; 95, '_'
259E CF           defb CFh    	; 207,  -49
259F 57           defb 57h    	; 87, 'W'
25A0 06           defb 06h    	; 6
25A1 1A           defb 1Ah    	; 26
25A2 CF           defb CFh    	; 207,  -49
25A3 1B           defb 1Bh    	; 27
25A4 10           defb 10h    	; 16
25A5 FC           defb FCh    	; 252,   -4
25A6 CF           defb CFh    	; 207,  -49
25A7 6F           defb 6Fh    	; 111, 'o'
25A8 1B           defb 1Bh    	; 27
25A9 CF           defb CFh    	; 207,  -49
25AA 67           defb 67h    	; 103, 'g'
25AB 01           defb 01h    	; 1
25AC 32           defb 32h    	; 50, '2'
25AD 40           defb 40h    	; 64, '@'
25AE A7           defb A7h    	; 167,  -89
25AF ED           defb EDh    	; 237,  -19
25B0 42           defb 42h    	; 66, 'B'
25B1 CF           defb CFh    	; 207,  -49
25B2 2B           defb 2Bh    	; 43, '+'
25B3 1B           defb 1Bh    	; 27
25B4 7C           defb 7Ch    	; 124, '|'
25B5 B5           defb B5h    	; 181,  -75
25B6 20           defb 20h    	; 32, ' '
25B7 F9           defb F9h    	; 249,   -7
25B8 2A           defb 2Ah    	; 42, '*'
25B9 18           defb 18h    	; 24
25BA 40           defb 40h    	; 64, '@'
25BB 23           defb 23h    	; 35, '#'
25BC CF           defb CFh    	; 207,  -49
25BD 77           defb 77h    	; 119, 'w'
25BE 1B           defb 1Bh    	; 27
25BF 7A           defb 7Ah    	; 122, 'z'
25C0 B3           defb B3h    	; 179,  -77
25C1 20           defb 20h    	; 32, ' '
25C2 F8           defb F8h    	; 248,   -8
25C3 CD           defb CDh    	; 205,  -51
25C4 66           defb 66h    	; 102, 'f'
25C5 0D           defb 0Dh    	; 13
25C6 18           defb 18h    	; 24
25C7 B6           defb B6h    	; 182,  -74
25C8 FD           defb FDh    	; 253,   -3
25C9 36           defb 36h    	; 54, '6'
25CA 41           defb 41h    	; 65, 'A'
25CB 00           defb 00h    	; 0
25CC C3           defb C3h    	; 195,  -61
25CD 8F           defb 8Fh    	; 143, -113
25CE 1D           defb 1Dh    	; 29
25CF 00           defb 00h    	; 0
25D0 23           defb 23h    	; 35, '#'
25D1 FE           defb FEh    	; 254,   -2
25D2 8C           defb 8Ch    	; 140, -116
25D3 CA           defb CAh    	; 202,  -54
25D4 53           defb 53h    	; 83, 'S'
25D5 20           defb 20h    	; 32, ' '
25D6 FE           defb FEh    	; 254,   -2
25D7 41           defb 41h    	; 65, 'A'
25D8 C3           defb C3h    	; 195,  -61
25D9 4D           defb 4Dh    	; 77, 'M'
25DA 20           defb 20h    	; 32, ' '
25DB CD           defb CDh    	; 205,  -51
25DC 2B           defb 2Bh    	; 43, '+'
25DD 25           defb 25h    	; 37, '%'
25DE 13           defb 13h    	; 19
25DF C9           defb C9h    	; 201,  -55
25E0 E6           defb E6h    	; 230,  -26
25E1 3F           defb 3Fh    	; 63, '?'
25E2 CA           defb CAh    	; 202,  -54
25E3 54           defb 54h    	; 84, 'T'
25E4 15           defb 15h    	; 21
25E5 4F           defb 4Fh    	; 79, 'O'
25E6 C9           defb C9h    	; 201,  -55
25E7 00           defb 00h    	; 0
25E8 00           defb 00h    	; 0
25E9 00           defb 00h    	; 0
25EA 00           defb 00h    	; 0
25EB 00           defb 00h    	; 0
25EC 00           defb 00h    	; 0
25ED 00           defb 00h    	; 0
25EE 00           defb 00h    	; 0
25EF 00           defb 00h    	; 0
25F0 00           defb 00h    	; 0
25F1 00           defb 00h    	; 0
25F2 00           defb 00h    	; 0
25F3 00           defb 00h    	; 0
25F4 00           defb 00h    	; 0
25F5 00           defb 00h    	; 0
25F6 00           defb 00h    	; 0
25F7 00           defb 00h    	; 0
25F8 00           defb 00h    	; 0
25F9 00           defb 00h    	; 0
25FA 00           defb 00h    	; 0
25FB 00           defb 00h    	; 0
25FC 00           defb 00h    	; 0
25FD 00           defb 00h    	; 0
25FE 00           defb 00h    	; 0
25FF 00           defb 00h    	; 0
2600 00           defb 00h    	; 0
2601 00           defb 00h    	; 0
2602 00           defb 00h    	; 0
2603 00           defb 00h    	; 0
2604 00           defb 00h    	; 0
2605 00           defb 00h    	; 0
2606 00           defb 00h    	; 0
2607 00           defb 00h    	; 0
2608 00           defb 00h    	; 0
2609 00           defb 00h    	; 0
260A 00           defb 00h    	; 0
260B 00           defb 00h    	; 0
260C 00           defb 00h    	; 0
260D 00           defb 00h    	; 0
260E 00           defb 00h    	; 0
260F 00           defb 00h    	; 0
2610 00           defb 00h    	; 0
2611 00           defb 00h    	; 0
2612 00           defb 00h    	; 0
2613 00           defb 00h    	; 0
2614 00           defb 00h    	; 0
2615 00           defb 00h    	; 0
2616 00           defb 00h    	; 0
2617 00           defb 00h    	; 0
2618 00           defb 00h    	; 0
2619 00           defb 00h    	; 0
261A 00           defb 00h    	; 0
261B 00           defb 00h    	; 0
261C 00           defb 00h    	; 0
261D 00           defb 00h    	; 0
261E 00           defb 00h    	; 0
261F 00           defb 00h    	; 0
2620 00           defb 00h    	; 0
2621 00           defb 00h    	; 0
2622 00           defb 00h    	; 0
2623 00           defb 00h    	; 0
2624 00           defb 00h    	; 0
2625 00           defb 00h    	; 0
2626 00           defb 00h    	; 0
2627 00           defb 00h    	; 0
2628 00           defb 00h    	; 0
2629 00           defb 00h    	; 0
262A 00           defb 00h    	; 0
262B 00           defb 00h    	; 0
262C 00           defb 00h    	; 0
262D 00           defb 00h    	; 0
262E 00           defb 00h    	; 0
262F 00           defb 00h    	; 0
2630 00           defb 00h    	; 0
2631 00           defb 00h    	; 0
2632 00           defb 00h    	; 0
2633 00           defb 00h    	; 0
2634 00           defb 00h    	; 0
2635 00           defb 00h    	; 0
2636 00           defb 00h    	; 0
2637 00           defb 00h    	; 0
2638 00           defb 00h    	; 0
2639 00           defb 00h    	; 0
263A 00           defb 00h    	; 0
263B 00           defb 00h    	; 0
263C 00           defb 00h    	; 0


; Subroutine: Size=24, CC=3.
; Called by: BASIC_ENH_START[2001h].
; Calls: SETUP_HL_STARTBASIC.
263D SUB142:
263D 2A 18 40     ld   hl,(ADDR_END_OF_BASIC_PRG) 	; 4018h
2640 3E 80        ld   a,80h  	; 128, -128
2642 BE           cp   (hl)   
2643 20 06        jr   nz,.sub142_l1 	; 264Bh
2645 3E 60        ld   a,60h  	; 96, '`'
2647 2B           dec  hl     
2648 BE           cp   (hl)   
2649 28 04        jr   z,.sub142_l2 	; 264Fh
264B .sub142_l1:
264B FD 36 41 00  ld   (iy+65),00h 	; 0
264F .sub142_l2:
264F 21 55 26     ld   hl,2655h 	; 9813
2652 C3 F6 3F     jp   SETUP_HL_STARTBASIC 	; 3FF6h


2655 2D           defb 2Dh    	; 45, '-'
2656 20           defb 20h    	; 32, ' '
2657 04           defb 04h    	; 4
2658 20           defb 20h    	; 32, ' '
2659 6B           defb 6Bh    	; 107, 'k'
265A 20           defb 20h    	; 32, ' '
265B 3C           defb 3Ch    	; 60, '<'
265C 1C           defb 1Ch    	; 28
265D FF           defb FFh    	; 255,   -1
265E FF           defb FFh    	; 255,   -1
265F 4B           defb 4Bh    	; 75, 'K'
2660 65           defb 65h    	; 101, 'e'
2661 F9           defb F9h    	; 249,   -7
2662 4E           defb 4Eh    	; 78, 'N'
2663 65           defb 65h    	; 101, 'e'
2664 F7           defb F7h    	; 247,   -9
2665 45           defb 45h    	; 69, 'E'
2666 78           defb 78h    	; 120, 'x'
2667 F4           defb F4h    	; 244,  -12
2668 45           defb 45h    	; 69, 'E'
2669 73           defb 73h    	; 115, 's'
266A 61           defb 61h    	; 97, 'a'
266B 76           defb 76h    	; 118, 'v'
266C E5           defb E5h    	; 229,  -27
266D 45           defb 45h    	; 69, 'E'
266E 6C           defb 6Ch    	; 108, 'l'
266F 6F           defb 6Fh    	; 111, 'o'
2670 61           defb 61h    	; 97, 'a'
2671 E4           defb E4h    	; 228,  -28
2672 4D           defb 4Dh    	; 77, 'M'
2673 65           defb 65h    	; 101, 'e'
2674 72           defb 72h    	; 114, 'r'
2675 67           defb 67h    	; 103, 'g'
2676 E5           defb E5h    	; 229,  -27
2677 56           defb 56h    	; 86, 'V'
2678 65           defb 65h    	; 101, 'e'
2679 72           defb 72h    	; 114, 'r'
267A 69           defb 69h    	; 105, 'i'
267B 66           defb 66h    	; 102, 'f'
267C F9           defb F9h    	; 249,   -7
267D 45           defb 45h    	; 69, 'E'
267E 64           defb 64h    	; 100, 'd'
267F 69           defb 69h    	; 105, 'i'
2680 F4           defb F4h    	; 244,  -12
2681 52           defb 52h    	; 82, 'R'
2682 65           defb 65h    	; 101, 'e'
2683 70           defb 70h    	; 112, 'p'
2684 65           defb 65h    	; 101, 'e'
2685 61           defb 61h    	; 97, 'a'
2686 F4           defb F4h    	; 244,  -12
2687 55           defb 55h    	; 85, 'U'
2688 6E           defb 6Eh    	; 110, 'n'
2689 74           defb 74h    	; 116, 't'
268A 69           defb 69h    	; 105, 'i'
268B EC           defb ECh    	; 236,  -20
268C 44           defb 44h    	; 68, 'D'
268D 65           defb 65h    	; 101, 'e'
268E 6C           defb 6Ch    	; 108, 'l'
268F 65           defb 65h    	; 101, 'e'
2690 74           defb 74h    	; 116, 't'
2691 E5           defb E5h    	; 229,  -27
2692 47           defb 47h    	; 71, 'G'
2693 6F           defb 6Fh    	; 111, 'o'
2694 73           defb 73h    	; 115, 's'
2695 75           defb 75h    	; 117, 'u'
2696 62           defb 62h    	; 98, 'b'
2697 A3           defb A3h    	; 163,  -93
2698 47           defb 47h    	; 71, 'G'
2699 6F           defb 6Fh    	; 111, 'o'
269A 74           defb 74h    	; 116, 't'
269B 6F           defb 6Fh    	; 111, 'o'
269C A3           defb A3h    	; 163,  -93
269D 52           defb 52h    	; 82, 'R'
269E 65           defb 65h    	; 101, 'e'
269F 74           defb 74h    	; 116, 't'
26A0 75           defb 75h    	; 117, 'u'
26A1 72           defb 72h    	; 114, 'r'
26A2 EE           defb EEh    	; 238,  -18
26A3 66           defb 66h    	; 102, 'f'
26A4 6F           defb 6Fh    	; 111, 'o'
26A5 72           defb 72h    	; 114, 'r'
26A6 6D           defb 6Dh    	; 109, 'm'
26A7 24           defb 24h    	; 36, '$'
26A8 A8           defb A8h    	; 168,  -88
26A9 68           defb 68h    	; 104, 'h'
26AA 65           defb 65h    	; 101, 'e'
26AB 78           defb 78h    	; 120, 'x'
26AC 24           defb 24h    	; 36, '$'
26AD A8           defb A8h    	; 168,  -88
26AE 64           defb 64h    	; 100, 'd'
26AF 65           defb 65h    	; 101, 'e'
26B0 63           defb 63h    	; 99, 'c'
26B1 A8           defb A8h    	; 168,  -88
26B2 6D           defb 6Dh    	; 109, 'm'
26B3 69           defb 69h    	; 105, 'i'
26B4 6E           defb 6Eh    	; 110, 'n'
26B5 A8           defb A8h    	; 168,  -88
26B6 6D           defb 6Dh    	; 109, 'm'
26B7 61           defb 61h    	; 97, 'a'
26B8 78           defb 78h    	; 120, 'x'
26B9 A8           defb A8h    	; 168,  -88
26BA 66           defb 66h    	; 102, 'f'
26BB 73           defb 73h    	; 115, 's'
26BC 77           defb 77h    	; 119, 'w'
26BD A8           defb A8h    	; 168,  -88
26BE 6D           defb 6Dh    	; 109, 'm'
26BF 6F           defb 6Fh    	; 111, 'o'
26C0 64           defb 64h    	; 100, 'd'
26C1 A8           defb A8h    	; 168,  -88
26C2 50           defb 50h    	; 80, 'P'
26C3 72           defb 72h    	; 114, 'r'
26C4 E7           defb E7h    	; 231,  -25
26C5 66           defb 66h    	; 102, 'f'
26C6 72           defb 72h    	; 114, 'r'
26C7 61           defb 61h    	; 97, 'a'
26C8 A8           defb A8h    	; 168,  -88
26C9 73           defb 73h    	; 115, 's'
26CA 74           defb 74h    	; 116, 't'
26CB 72           defb 72h    	; 114, 'r'
26CC 69           defb 69h    	; 105, 'i'
26CD 6E           defb 6Eh    	; 110, 'n'
26CE 67           defb 67h    	; 103, 'g'
26CF 24           defb 24h    	; 36, '$'
26D0 A8           defb A8h    	; 168,  -88
26D1 A5           defb A5h    	; 165,  -91
26D2 A4           defb A4h    	; 164,  -92
26D3 76           defb 76h    	; 118, 'v'
26D4 61           defb 61h    	; 97, 'a'
26D5 72           defb 72h    	; 114, 'r'
26D6 A8           defb A8h    	; 168,  -88
26D7 72           defb 72h    	; 114, 'r'
26D8 6F           defb 6Fh    	; 111, 'o'
26D9 75           defb 75h    	; 117, 'u'
26DA 6E           defb 6Eh    	; 110, 'n'
26DB 64           defb 64h    	; 100, 'd'
26DC A8           defb A8h    	; 168,  -88
26DD 55           defb 55h    	; 85, 'U'
26DE 6A           defb 6Ah    	; 106, 'j'
26DF 72           defb 72h    	; 114, 'r'
26E0 61           defb 61h    	; 97, 'a'
26E1 20           defb 20h    	; 32, ' '
26E2 6D           defb 6Dh    	; 109, 'm'
26E3 7B           defb 7Bh    	; 123, '{'
26E4 72           defb 72h    	; 114, 'r'
26E5 65           defb 65h    	; 101, 'e'
26E6 74           defb 74h    	; 116, 't'
26E7 65           defb 65h    	; 101, 'e'
26E8 7A           defb 7Ah    	; 122, 'z'
26E9 65           defb 65h    	; 101, 'e'
26EA 74           defb 74h    	; 116, 't'
26EB 74           defb 74h    	; 116, 't'
26EC 20           defb 20h    	; 32, ' '
26ED 74           defb 74h    	; 116, 't'
26EE 7C           defb 7Ch    	; 124, '|'
26EF 6D           defb 6Dh    	; 109, 'm'
26F0 E2           defb E2h    	; 226,  -30
26F1 4E           defb 4Eh    	; 78, 'N'
26F2 65           defb 65h    	; 101, 'e'
26F3 6D           defb 6Dh    	; 109, 'm'
26F4 20           defb 20h    	; 32, ' '
26F5 66           defb 66h    	; 102, 'f'
26F6 6F           defb 6Fh    	; 111, 'o'
26F7 6C           defb 6Ch    	; 108, 'l'
26F8 79           defb 79h    	; 121, 'y'
26F9 74           defb 74h    	; 116, 't'
26FA 61           defb 61h    	; 97, 'a'
26FB 74           defb 74h    	; 116, 't'
26FC 68           defb 68h    	; 104, 'h'
26FD 61           defb 61h    	; 97, 'a'
26FE 74           defb 74h    	; 116, 't'
26FF FE           defb FEh    	; 254,   -2
2700 53           defb 53h    	; 83, 'S'
2701 74           defb 74h    	; 116, 't'
2702 61           defb 61h    	; 97, 'a'
2703 63           defb 63h    	; 99, 'c'
2704 6B           defb 6Bh    	; 107, 'k'
2705 2D           defb 2Dh    	; 45, '-'
2706 68           defb 68h    	; 104, 'h'
2707 69           defb 69h    	; 105, 'i'
2708 62           defb 62h    	; 98, 'b'
2709 E1           defb E1h    	; 225,  -31
270A 54           defb 54h    	; 84, 'T'
270B 7C           defb 7Ch    	; 124, '|'
270C 62           defb 62h    	; 98, 'b'
270D 62           defb 62h    	; 98, 'b'
270E 20           defb 20h    	; 32, ' '
270F 52           defb 52h    	; 82, 'R'
2710 45           defb 45h    	; 69, 'E'
2711 41           defb 41h    	; 65, 'A'
2712 44           defb 44h    	; 68, 'D'
2713 2C           defb 2Ch    	; 44, ','
2714 20           defb 20h    	; 32, ' '
2715 6D           defb 6Dh    	; 109, 'm'
2716 69           defb 69h    	; 105, 'i'
2717 6E           defb 6Eh    	; 110, 'n'
2718 74           defb 74h    	; 116, 't'
2719 20           defb 20h    	; 32, ' '
271A 44           defb 44h    	; 68, 'D'
271B 41           defb 41h    	; 65, 'A'
271C 54           defb 54h    	; 84, 'T'
271D C1           defb C1h    	; 193,  -63
271E A0           defb A0h    	; 160,  -96
271F 5B           defb 5Bh    	; 91, '['
2720 72           defb 72h    	; 114, 'r'
2721 74           defb 74h    	; 116, 't'
2722 65           defb 65h    	; 101, 'e'
2723 6C           defb 6Ch    	; 108, 'l'
2724 6D           defb 6Dh    	; 109, 'm'
2725 65           defb 65h    	; 101, 'e'
2726 74           defb 74h    	; 116, 't'
2727 6C           defb 6Ch    	; 108, 'l'
2728 65           defb 65h    	; 101, 'e'
2729 EE           defb EEh    	; 238,  -18
272A 52           defb 52h    	; 82, 'R'
272B 6F           defb 6Fh    	; 111, 'o'
272C 73           defb 73h    	; 115, 's'
272D 73           defb 73h    	; 115, 's'
272E 7A           defb 7Ah    	; 122, 'z'
272F 20           defb 20h    	; 32, ' '
2730 61           defb 61h    	; 97, 'a'
2731 64           defb 64h    	; 100, 'd'
2732 61           defb 61h    	; 97, 'a'
2733 74           defb 74h    	; 116, 't'
2734 74           defb 74h    	; 116, 't'
2735 69           defb 69h    	; 105, 'i'
2736 70           defb 70h    	; 112, 'p'
2737 75           defb 75h    	; 117, 'u'
2738 F3           defb F3h    	; 243,  -13
2739 48           defb 48h    	; 72, 'H'
273A 69           defb 69h    	; 105, 'i'
273B 76           defb 76h    	; 118, 'v'
273C 61           defb 61h    	; 97, 'a'
273D 74           defb 74h    	; 116, 't'
273E 6B           defb 6Bh    	; 107, 'k'
273F 6F           defb 6Fh    	; 111, 'o'
2740 7A           defb 7Ah    	; 122, 'z'
2741 7F           defb 7Fh    	; 127
2742 73           defb 73h    	; 115, 's'
2743 20           defb 20h    	; 32, ' '
2744 6E           defb 6Eh    	; 110, 'n'
2745 65           defb 65h    	; 101, 'e'
2746 6D           defb 6Dh    	; 109, 'm'
2747 6C           defb 6Ch    	; 108, 'l'
2748 7B           defb 7Bh    	; 123, '{'
2749 74           defb 74h    	; 116, 't'
274A 65           defb 65h    	; 101, 'e'
274B 7A           defb 7Ah    	; 122, 'z'
274C 7C           defb 7Ch    	; 124, '|'
274D 20           defb 20h    	; 32, ' '
274E 73           defb 73h    	; 115, 's'
274F 6F           defb 6Fh    	; 111, 'o'
2750 72           defb 72h    	; 114, 'r'
2751 72           defb 72h    	; 114, 'r'
2752 E1           defb E1h    	; 225,  -31
2753 30           defb 30h    	; 48, '0'
2754 2D           defb 2Dh    	; 45, '-'
2755 76           defb 76h    	; 118, 'v'
2756 61           defb 61h    	; 97, 'a'
2757 6C           defb 6Ch    	; 108, 'l'
2758 20           defb 20h    	; 32, ' '
2759 76           defb 76h    	; 118, 'v'
275A 61           defb 61h    	; 97, 'a'
275B 6C           defb 6Ch    	; 108, 'l'
275C 7E           defb 7Eh    	; 126, '~'
275D 20           defb 20h    	; 32, ' '
275E 6F           defb 6Fh    	; 111, 'o'
275F 73           defb 73h    	; 115, 's'
2760 7A           defb 7Ah    	; 122, 'z'
2761 74           defb 74h    	; 116, 't'
2762 7F           defb 7Fh    	; 127
2763 F3           defb F3h    	; 243,  -13
2764 4E           defb 4Eh    	; 78, 'N'
2765 65           defb 65h    	; 101, 'e'
2766 6D           defb 6Dh    	; 109, 'm'
2767 20           defb 20h    	; 32, ' '
2768 7B           defb 7Bh    	; 123, '{'
2769 72           defb 72h    	; 114, 'r'
276A 74           defb 74h    	; 116, 't'
276B 65           defb 65h    	; 101, 'e'
276C 6C           defb 6Ch    	; 108, 'l'
276D 6D           defb 6Dh    	; 109, 'm'
276E 65           defb 65h    	; 101, 'e'
276F 7A           defb 7Ah    	; 122, 'z'
2770 68           defb 68h    	; 104, 'h'
2771 65           defb 65h    	; 101, 'e'
2772 74           defb 74h    	; 116, 't'
2773 7C           defb 7Ch    	; 124, '|'
2774 20           defb 20h    	; 32, ' '
2775 73           defb 73h    	; 115, 's'
2776 7A           defb 7Ah    	; 122, 'z'
2777 7F           defb 7Fh    	; 127
2778 ED           defb EDh    	; 237,  -19
2779 54           defb 54h    	; 84, 'T'
277A 75           defb 75h    	; 117, 'u'
277B 6C           defb 6Ch    	; 108, 'l'
277C 20           defb 20h    	; 32, ' '
277D 6B           defb 6Bh    	; 107, 'k'
277E 69           defb 69h    	; 105, 'i'
277F 63           defb 63h    	; 99, 'c'
2780 73           defb 73h    	; 115, 's'
2781 69           defb 69h    	; 105, 'i'
2782 20           defb 20h    	; 32, ' '
2783 61           defb 61h    	; 97, 'a'
2784 20           defb 20h    	; 32, ' '
2785 74           defb 74h    	; 116, 't'
2786 7F           defb 7Fh    	; 127
2787 F2           defb F2h    	; 242,  -14
2788 54           defb 54h    	; 84, 'T'
2789 75           defb 75h    	; 117, 'u'
278A 6C           defb 6Ch    	; 108, 'l'
278B 20           defb 20h    	; 32, ' '
278C 6E           defb 6Eh    	; 110, 'n'
278D 61           defb 61h    	; 97, 'a'
278E 67           defb 67h    	; 103, 'g'
278F 79           defb 79h    	; 121, 'y'
2790 20           defb 20h    	; 32, ' '
2791 73           defb 73h    	; 115, 's'
2792 7A           defb 7Ah    	; 122, 'z'
2793 7F           defb 7Fh    	; 127
2794 ED           defb EDh    	; 237,  -19
2795 54           defb 54h    	; 84, 'T'
2796 75           defb 75h    	; 117, 'u'
2797 6C           defb 6Ch    	; 108, 'l'
2798 20           defb 20h    	; 32, ' '
2799 68           defb 68h    	; 104, 'h'
279A 6F           defb 6Fh    	; 111, 'o'
279B 73           defb 73h    	; 115, 's'
279C 73           defb 73h    	; 115, 's'
279D 7A           defb 7Ah    	; 122, 'z'
279E 75           defb 75h    	; 117, 'u'
279F 20           defb 20h    	; 32, ' '
27A0 73           defb 73h    	; 115, 's'
27A1 7A           defb 7Ah    	; 122, 'z'
27A2 7C           defb 7Ch    	; 124, '|'
27A3 76           defb 76h    	; 118, 'v'
27A4 65           defb 65h    	; 101, 'e'
27A5 E7           defb E7h    	; 231,  -25
27A6 52           defb 52h    	; 82, 'R'
27A7 6F           defb 6Fh    	; 111, 'o'
27A8 73           defb 73h    	; 115, 's'
27A9 73           defb 73h    	; 115, 's'
27AA 7A           defb 7Ah    	; 122, 'z'
27AB 20           defb 20h    	; 32, ' '
27AC 74           defb 74h    	; 116, 't'
27AD 7C           defb 7Ch    	; 124, '|'
27AE 6D           defb 6Dh    	; 109, 'm'
27AF 62           defb 62h    	; 98, 'b'
27B0 69           defb 69h    	; 105, 'i'
27B1 6E           defb 6Eh    	; 110, 'n'
27B2 64           defb 64h    	; 100, 'd'
27B3 65           defb 65h    	; 101, 'e'
27B4 F8           defb F8h    	; 248,   -8
27B5 0D           defb 0Dh    	; 13
27B6 56           defb 56h    	; 86, 'V'
27B7 7F           defb 7Fh    	; 127
27B8 6C           defb 6Ch    	; 108, 'l'
27B9 74           defb 74h    	; 116, 't'
27BA 6F           defb 6Fh    	; 111, 'o'
27BB 7A           defb 7Ah    	; 122, 'z'
27BC 7E           defb 7Eh    	; 126, '~'
27BD 6B           defb 6Bh    	; 107, 'k'
27BE 20           defb 20h    	; 32, ' '
27BF 74           defb 74h    	; 116, 't'
27C0 7C           defb 7Ch    	; 124, '|'
27C1 72           defb 72h    	; 114, 'r'
27C2 7C           defb 7Ch    	; 124, '|'
27C3 6C           defb 6Ch    	; 108, 'l'
27C4 76           defb 76h    	; 118, 'v'
27C5 65           defb 65h    	; 101, 'e'
27C6 A1           defb A1h    	; 161,  -95
27C7 A1           defb A1h    	; 161,  -95
27C8 25           defb 25h    	; 37, '%'
27C9 0E           defb 0Eh    	; 14
27CA 25           defb 25h    	; 37, '%'
27CB C8           defb C8h    	; 200,  -56
27CC 28           defb 28h    	; 40, '('
27CD 00           defb 00h    	; 0
27CE 25           defb 25h    	; 37, '%'
27CF 44           defb 44h    	; 68, 'D'
27D0 25           defb 25h    	; 37, '%'
27D1 4C           defb 4Ch    	; 76, 'L'
27D2 25           defb 25h    	; 37, '%'
27D3 8E           defb 8Eh    	; 142, -114
27D4 25           defb 25h    	; 37, '%'
27D5 5F           defb 5Fh    	; 95, '_'
27D6 22           defb 22h    	; 34, '"'
27D7 51           defb 51h    	; 81, 'Q'
27D8 21           defb 21h    	; 33, '!'
27D9 D8           defb D8h    	; 216,  -40
27DA 21           defb 21h    	; 33, '!'
27DB E8           defb E8h    	; 232,  -24
27DC 22           defb 22h    	; 34, '"'
27DD A8           defb A8h    	; 168,  -88
27DE 23           defb 23h    	; 35, '#'
27DF 19           defb 19h    	; 25
27E0 23           defb 23h    	; 35, '#'
27E1 12           defb 12h    	; 18
27E2 23           defb 23h    	; 35, '#'
27E3 34           defb 34h    	; 52, '4'
27E4 23           defb 23h    	; 35, '#'
27E5 8E           defb 8Eh    	; 142, -114
27E6 21           defb 21h    	; 33, '!'
27E7 80           defb 80h    	; 128, -128
27E8 21           defb 21h    	; 33, '!'
27E9 5A           defb 5Ah    	; 90, 'Z'
27EA 20           defb 20h    	; 32, ' '
27EB D5           defb D5h    	; 213,  -43
27EC 20           defb 20h    	; 32, ' '
27ED CB           defb CBh    	; 203,  -53
27EE 20           defb 20h    	; 32, ' '
27EF FA           defb FAh    	; 250,   -6
27F0 21           defb 21h    	; 33, '!'
27F1 A5           defb A5h    	; 165,  -91
27F2 22           defb 22h    	; 34, '"'
27F3 68           defb 68h    	; 104, 'h'
27F4 21           defb 21h    	; 33, '!'
27F5 CC           defb CCh    	; 204,  -52
27F6 21           defb 21h    	; 33, '!'
27F7 2F           defb 2Fh    	; 47, '/'
27F8 22           defb 22h    	; 34, '"'
27F9 6E           defb 6Eh    	; 110, 'n'
27FA 22           defb 22h    	; 34, '"'
27FB A2           defb A2h    	; 162,  -94
27FC 23           defb 23h    	; 35, '#'
27FD 4B           defb 4Bh    	; 75, 'K'
27FE 23           defb 23h    	; 35, '#'
27FF 57           defb 57h    	; 87, 'W'
2800 AF           defb AFh    	; 175,  -81
2801 00           defb 00h    	; 0
2802 00           defb 00h    	; 0
2803 00           defb 00h    	; 0
2804 00           defb 00h    	; 0
2805 00           defb 00h    	; 0
2806 00           defb 00h    	; 0
2807 00           defb 00h    	; 0
2808 CD           defb CDh    	; 205,  -51
2809 BE           defb BEh    	; 190,  -66
280A 01           defb 01h    	; 1
280B CD           defb CDh    	; 205,  -51
280C 39           defb 39h    	; 57, '9'
280D 28           defb 28h    	; 40, '('
280E 18           defb 18h    	; 24
280F F8           defb F8h    	; 248,   -8
2810 E5           defb E5h    	; 229,  -27
2811 CD           defb CDh    	; 205,  -51
2812 2D           defb 2Dh    	; 45, '-'
2813 05           defb 05h    	; 5
2814 E5           defb E5h    	; 229,  -27
2815 CD           defb CDh    	; 205,  -51
2816 2D           defb 2Dh    	; 45, '-'
2817 05           defb 05h    	; 5
2818 44           defb 44h    	; 68, 'D'
2819 4D           defb 4Dh    	; 77, 'M'
281A D1           defb D1h    	; 209,  -47
281B E1           defb E1h    	; 225,  -31
281C C9           defb C9h    	; 201,  -55
281D F5           defb F5h    	; 245,  -11
281E 3E           defb 3Eh    	; 62, '>'
281F 0E           defb 0Eh    	; 14
2820 EF           defb EFh    	; 239,  -17
2821 1B           defb 1Bh    	; 27
2822 CD           defb CDh    	; 205,  -51
2823 A0           defb A0h    	; 160,  -96
2824 01           defb 01h    	; 1
2825 3E           defb 3Eh    	; 62, '>'
2826 20           defb 20h    	; 32, ' '
2827 EF           defb EFh    	; 239,  -17
2828 E7           defb E7h    	; 231,  -25
2829 CD           defb CDh    	; 205,  -51
282A A5           defb A5h    	; 165,  -91
282B 01           defb 01h    	; 1
282C 3E           defb 3Eh    	; 62, '>'
282D 2D           defb 2Dh    	; 45, '-'
282E EF           defb EFh    	; 239,  -17
282F F1           defb F1h    	; 241,  -15
2830 CD           defb CDh    	; 205,  -51
2831 A5           defb A5h    	; 165,  -91
2832 01           defb 01h    	; 1
2833 DF           defb DFh    	; 223,  -33
2834 FE           defb FEh    	; 254,   -2
2835 58           defb 58h    	; 88, 'X'
2836 C0           defb C0h    	; 192,  -64
2837 C1           defb C1h    	; 193,  -63
2838 C9           defb C9h    	; 201,  -55
2839 FE           defb FEh    	; 254,   -2
283A 43           defb 43h    	; 67, 'C'
283B 20           defb 20h    	; 32, ' '
283C 16           defb 16h    	; 22
283D CD           defb CDh    	; 205,  -51
283E 10           defb 10h    	; 16
283F 28           defb 28h    	; 40, '('
2840 D5           defb D5h    	; 213,  -43
2841 C5           defb C5h    	; 197,  -59
2842 D1           defb D1h    	; 209,  -47
2843 C1           defb C1h    	; 193,  -63
2844 E7           defb E7h    	; 231,  -25
2845 BE           defb BEh    	; 190,  -66
2846 23           defb 23h    	; 35, '#'
2847 EB           defb EBh    	; 235,  -21
2848 C4           defb C4h    	; 196,  -60
2849 1D           defb 1Dh    	; 29
284A 28           defb 28h    	; 40, '('
284B EB           defb EBh    	; 235,  -21
284C A7           defb A7h    	; 167,  -89
284D ED           defb EDh    	; 237,  -19
284E 42           defb 42h    	; 66, 'B'
284F 09           defb 09h    	; 9
2850 38           defb 38h    	; 56, '8'
2851 F2           defb F2h    	; 242,  -14
2852 C9           defb C9h    	; 201,  -55
2853 FE           defb FEh    	; 254,   -2
2854 46           defb 46h    	; 70, 'F'
2855 20           defb 20h    	; 32, ' '
2856 0C           defb 0Ch    	; 12
2857 CD           defb CDh    	; 205,  -51
2858 10           defb 10h    	; 16
2859 28           defb 28h    	; 40, '('
285A 71           defb 71h    	; 113, 'q'
285B A7           defb A7h    	; 167,  -89
285C ED           defb EDh    	; 237,  -19
285D 52           defb 52h    	; 82, 'R'
285E 19           defb 19h    	; 25
285F 23           defb 23h    	; 35, '#'
2860 38           defb 38h    	; 56, '8'
2861 F8           defb F8h    	; 248,   -8
2862 C9           defb C9h    	; 201,  -55
2863 FE           defb FEh    	; 254,   -2
2864 4D           defb 4Dh    	; 77, 'M'
2865 20           defb 20h    	; 32, ' '
2866 1D           defb 1Dh    	; 29
2867 CD           defb CDh    	; 205,  -51
2868 10           defb 10h    	; 16
2869 28           defb 28h    	; 40, '('
286A EB           defb EBh    	; 235,  -21
286B ED           defb EDh    	; 237,  -19
286C 52           defb 52h    	; 82, 'R'
286D 23           defb 23h    	; 35, '#'
286E C5           defb C5h    	; 197,  -59
286F E3           defb E3h    	; 227,  -29
2870 C1           defb C1h    	; 193,  -63
2871 EB           defb EBh    	; 235,  -21
2872 D8           defb D8h    	; 216,  -40
2873 ED           defb EDh    	; 237,  -19
2874 52           defb 52h    	; 82, 'R'
2875 19           defb 19h    	; 25
2876 30           defb 30h    	; 48, '0'
2877 09           defb 09h    	; 9
2878 0B           defb 0Bh    	; 11
2879 09           defb 09h    	; 9
287A EB           defb EBh    	; 235,  -21
287B 09           defb 09h    	; 9
287C EB           defb EBh    	; 235,  -21
287D 03           defb 03h    	; 3
287E ED           defb EDh    	; 237,  -19
287F B8           defb B8h    	; 184,  -72
2880 C9           defb C9h    	; 201,  -55
2881 ED           defb EDh    	; 237,  -19
2882 B0           defb B0h    	; 176,  -80
2883 C9           defb C9h    	; 201,  -55
2884 0E           defb 0Eh    	; 14
2885 3B           defb 3Bh    	; 59, ';'
2886 FE           defb FEh    	; 254,   -2
2887 54           defb 54h    	; 84, 'T'
2888 20           defb 20h    	; 32, ' '
2889 20           defb 20h    	; 32, ' '
288A DD           defb DDh    	; 221,  -35
288B 21           defb 21h    	; 33, '!'
288C A2           defb A2h    	; 162,  -94
288D 2D           defb 2Dh    	; 45, '-'
288E E5           defb E5h    	; 229,  -27
288F CD           defb CDh    	; 205,  -51
2890 2D           defb 2Dh    	; 45, '-'
2891 05           defb 05h    	; 5
2892 D1           defb D1h    	; 209,  -47
2893 06           defb 06h    	; 6
2894 14           defb 14h    	; 20
2895 E5           defb E5h    	; 229,  -27
2896 C5           defb C5h    	; 197,  -59
2897 CD           defb CDh    	; 205,  -51
2898 D7           defb D7h    	; 215,  -41
2899 2D           defb 2Dh    	; 45, '-'
289A C1           defb C1h    	; 193,  -63
289B 10           defb 10h    	; 16
289C F9           defb F9h    	; 249,   -7
289D E1           defb E1h    	; 225,  -31
289E 04           defb 04h    	; 4
289F A7           defb A7h    	; 167,  -89
28A0 ED           defb EDh    	; 237,  -19
28A1 52           defb 52h    	; 82, 'R'
28A2 19           defb 19h    	; 25
28A3 30           defb 30h    	; 48, '0'
28A4 F0           defb F0h    	; 240,  -16
28A5 ED           defb EDh    	; 237,  -19
28A6 53           defb 53h    	; 83, 'S'
28A7 12           defb 12h    	; 18
28A8 40           defb 40h    	; 64, '@'
28A9 C9           defb C9h    	; 201,  -55
28AA B9           defb B9h    	; 185,  -71
28AB C2           defb C2h    	; 194,  -62
28AC 84           defb 84h    	; 132, -124
28AD 03           defb 03h    	; 3
28AE CD           defb CDh    	; 205,  -51
28AF E9           defb E9h    	; 233,  -23
28B0 03           defb 03h    	; 3
28B1 A7           defb A7h    	; 167,  -89
28B2 C8           defb C8h    	; 200,  -56
28B3 DD           defb DDh    	; 221,  -35
28B4 21           defb 21h    	; 33, '!'
28B5 E4           defb E4h    	; 228,  -28
28B6 2F           defb 2Fh    	; 47, '/'
28B7 DD           defb DDh    	; 221,  -35
28B8 22           defb 22h    	; 34, '"'
28B9 3B           defb 3Bh    	; 59, ';'
28BA 40           defb 40h    	; 64, '@'
28BB DD           defb DDh    	; 221,  -35
28BC 21           defb 21h    	; 33, '!'
28BD 2D           defb 2Dh    	; 45, '-'
28BE 05           defb 05h    	; 5
28BF E5           defb E5h    	; 229,  -27
28C0 ED           defb EDh    	; 237,  -19
28C1 4B           defb 4Bh    	; 75, 'K'
28C2 47           defb 47h    	; 71, 'G'
28C3 40           defb 40h    	; 64, '@'
28C4 C5           defb C5h    	; 197,  -59
28C5 C5           defb C5h    	; 197,  -59
28C6 CD           defb CDh    	; 205,  -51
28C7 8C           defb 8Ch    	; 140, -116
28C8 2F           defb 2Fh    	; 47, '/'
28C9 01           defb 01h    	; 1
28CA 3B           defb 3Bh    	; 59, ';'
28CB 3F           defb 3Fh    	; 63, '?'
28CC E1           defb E1h    	; 225,  -31
28CD CD           defb CDh    	; 205,  -51
28CE F2           defb F2h    	; 242,  -14
28CF 2F           defb 2Fh    	; 47, '/'
28D0 EF           defb EFh    	; 239,  -17
28D1 EF           defb EFh    	; 239,  -17
28D2 EF           defb EFh    	; 239,  -17
28D3 E1           defb E1h    	; 225,  -31
28D4 2B           defb 2Bh    	; 43, '+'
28D5 D1           defb D1h    	; 209,  -47
28D6 CD           defb CDh    	; 205,  -51
28D7 77           defb 77h    	; 119, 'w'
28D8 02           defb 02h    	; 2
28D9 CD           defb CDh    	; 205,  -51
28DA D7           defb D7h    	; 215,  -41
28DB 2D           defb 2Dh    	; 45, '-'
28DC 0E           defb 0Eh    	; 14
28DD 3B           defb 3Bh    	; 59, ';'
28DE C3           defb C3h    	; 195,  -61
28DF 9E           defb 9Eh    	; 158,  -98
28E0 03           defb 03h    	; 3
28E1 03           defb 03h    	; 3
28E2 23           defb 23h    	; 35, '#'
28E3 70           defb 70h    	; 112, 'p'
28E4 24           defb 24h    	; 36, '$'
28E5 B2           defb B2h    	; 178,  -78
28E6 29           defb 29h    	; 41, ')'
28E7 B2           defb B2h    	; 178,  -78
28E8 A4           defb A4h    	; 164,  -92
28E9 E9           defb E9h    	; 233,  -23
28EA 2E           defb 2Eh    	; 46, '.'
28EB 25           defb 25h    	; 37, '%'
28EC E7           defb E7h    	; 231,  -25
28ED 32           defb 32h    	; 50, '2'
28EE 2C           defb 2Ch    	; 44, ','
28EF E4           defb E4h    	; 228,  -28
28F0 32           defb 32h    	; 50, '2'
28F1 32           defb 32h    	; 50, '2'
28F2 E4           defb E4h    	; 228,  -28
28F3 32           defb 32h    	; 50, '2'
28F4 25           defb 25h    	; 37, '%'
28F5 74           defb 74h    	; 116, 't'
28F6 B2           defb B2h    	; 178,  -78
28F7 E9           defb E9h    	; 233,  -23
28F8 2F           defb 2Fh    	; 47, '/'
28F9 35           defb 35h    	; 53, '5'
28FA 74           defb 74h    	; 116, 't'
28FB 24           defb 24h    	; 36, '$'
28FC B2           defb B2h    	; 178,  -78
28FD 29           defb 29h    	; 41, ')'
28FE B2           defb B2h    	; 178,  -78
28FF A4           defb A4h    	; 164,  -92
2900 E9           defb E9h    	; 233,  -23
2901 2F           defb 2Fh    	; 47, '/'
2902 35           defb 35h    	; 53, '5'
2903 34           defb 34h    	; 52, '4'
2904 40           defb 40h    	; 64, '@'
2905 A1           defb A1h    	; 161,  -95
2906 A2           defb A2h    	; 162,  -94
2907 A3           defb A3h    	; 163,  -93
2908 A4           defb A4h    	; 164,  -92
2909 A5           defb A5h    	; 165,  -91
290A A8           defb A8h    	; 168,  -88
290B EC           defb ECh    	; 236,  -20
290C 29           defb 29h    	; 41, ')'
290D 6E           defb 6Eh    	; 110, 'n'
290E 24           defb 24h    	; 36, '$'
290F B2           defb B2h    	; 178,  -78
2910 29           defb 29h    	; 41, ')'
2911 B2           defb B2h    	; 178,  -78
2912 A4           defb A4h    	; 164,  -92
2913 E9           defb E9h    	; 233,  -23
2914 29           defb 29h    	; 41, ')'
2915 2E           defb 2Eh    	; 46, '.'
2916 40           defb 40h    	; 64, '@'
2917 A1           defb A1h    	; 161,  -95
2918 A2           defb A2h    	; 162,  -94
2919 A3           defb A3h    	; 163,  -93
291A A4           defb A4h    	; 164,  -92
291B A5           defb A5h    	; 165,  -91
291C A8           defb A8h    	; 168,  -88
291D EC           defb ECh    	; 236,  -20
291E 29           defb 29h    	; 41, ')'
291F 6D           defb 6Dh    	; 109, 'm'
2920 90           defb 90h    	; 144, -112
2921 91           defb 91h    	; 145, -111
2922 D2           defb D2h    	; 210,  -46
2923 2C           defb 2Ch    	; 44, ','
2924 64           defb 64h    	; 100, 'd'
2925 24           defb 24h    	; 36, '$'
2926 B2           defb B2h    	; 178,  -78
2927 29           defb 29h    	; 41, ')'
2928 B2           defb B2h    	; 178,  -78
2929 A4           defb A4h    	; 164,  -92
292A E9           defb E9h    	; 233,  -23
292B 2C           defb 2Ch    	; 44, ','
292C 24           defb 24h    	; 36, '$'
292D 40           defb 40h    	; 64, '@'
292E 21           defb 21h    	; 33, '!'
292F 0C           defb 0Ch    	; 12
2930 B2           defb B2h    	; 178,  -78
2931 21           defb 21h    	; 33, '!'
2932 0C           defb 0Ch    	; 12
2933 A9           defb A9h    	; 169,  -87
2934 32           defb 32h    	; 50, '2'
2935 0C           defb 0Ch    	; 12
2936 A1           defb A1h    	; 161,  -95
2937 29           defb 29h    	; 41, ')'
2938 0C           defb 0Ch    	; 12
2939 E1           defb E1h    	; 225,  -31
293A 21           defb 21h    	; 33, '!'
293B 24           defb 24h    	; 36, '$'
293C 23           defb 23h    	; 35, '#'
293D 40           defb 40h    	; 64, '@'
293E 28           defb 28h    	; 40, '('
293F AC           defb ACh    	; 172,  -84
2940 22           defb 22h    	; 34, '"'
2941 A3           defb A3h    	; 163,  -93
2942 24           defb 24h    	; 36, '$'
2943 A5           defb A5h    	; 165,  -91
2944 33           defb 33h    	; 51, '3'
2945 F0           defb F0h    	; 240,  -16
2946 33           defb 33h    	; 51, '3'
2947 22           defb 22h    	; 34, '"'
2948 23           defb 23h    	; 35, '#'
2949 40           defb 40h    	; 64, '@'
294A 28           defb 28h    	; 40, '('
294B AC           defb ACh    	; 172,  -84
294C 22           defb 22h    	; 34, '"'
294D A3           defb A3h    	; 163,  -93
294E 24           defb 24h    	; 36, '$'
294F A5           defb A5h    	; 165,  -91
2950 33           defb 33h    	; 51, '3'
2951 F0           defb F0h    	; 240,  -16
2952 21           defb 21h    	; 33, '!'
2953 24           defb 24h    	; 36, '$'
2954 24           defb 24h    	; 36, '$'
2955 00           defb 00h    	; 0
2956 28           defb 28h    	; 40, '('
2957 2C           defb 2Ch    	; 44, ','
2958 4C           defb 4Ch    	; 76, 'L'
2959 22           defb 22h    	; 34, '"'
295A A3           defb A3h    	; 163,  -93
295B 24           defb 24h    	; 36, '$'
295C A5           defb A5h    	; 165,  -91
295D 28           defb 28h    	; 40, '('
295E AC           defb ACh    	; 172,  -84
295F 33           defb 33h    	; 51, '3'
2960 F0           defb F0h    	; 240,  -16
2961 25           defb 25h    	; 37, '%'
2962 E9           defb E9h    	; 233,  -23
2963 21           defb 21h    	; 33, '!'
2964 24           defb 24h    	; 36, '$'
2965 24           defb 24h    	; 36, '$'
2966 00           defb 00h    	; 0
2967 69           defb 69h    	; 105, 'i'
2968 38           defb 38h    	; 56, '8'
2969 0C           defb 0Ch    	; 12
296A 22           defb 22h    	; 34, '"'
296B A3           defb A3h    	; 163,  -93
296C 39           defb 39h    	; 57, '9'
296D 0C           defb 0Ch    	; 12
296E 22           defb 22h    	; 34, '"'
296F A3           defb A3h    	; 163,  -93
2970 38           defb 38h    	; 56, '8'
2971 0C           defb 0Ch    	; 12
2972 24           defb 24h    	; 36, '$'
2973 A5           defb A5h    	; 165,  -91
2974 39           defb 39h    	; 57, '9'
2975 0C           defb 0Ch    	; 12
2976 24           defb 24h    	; 36, '$'
2977 A5           defb A5h    	; 165,  -91
2978 38           defb 38h    	; 56, '8'
2979 0C           defb 0Ch    	; 12
297A 29           defb 29h    	; 41, ')'
297B B8           defb B8h    	; 184,  -72
297C 39           defb 39h    	; 57, '9'
297D 0C           defb 0Ch    	; 12
297E 29           defb 29h    	; 41, ')'
297F B9           defb B9h    	; 185,  -71
2980 38           defb 38h    	; 56, '8'
2981 0C           defb 0Ch    	; 12
2982 33           defb 33h    	; 51, '3'
2983 B0           defb B0h    	; 176,  -80
2984 39           defb 39h    	; 57, '9'
2985 0C           defb 0Ch    	; 12
2986 33           defb 33h    	; 51, '3'
2987 F0           defb F0h    	; 240,  -16
2988 2E           defb 2Eh    	; 46, '.'
2989 2F           defb 2Fh    	; 47, '/'
298A F0           defb F0h    	; 240,  -16
298B 30           defb 30h    	; 48, '0'
298C 35           defb 35h    	; 53, '5'
298D 33           defb 33h    	; 51, '3'
298E 28           defb 28h    	; 40, '('
298F 40           defb 40h    	; 64, '@'
2990 22           defb 22h    	; 34, '"'
2991 A3           defb A3h    	; 163,  -93
2992 24           defb 24h    	; 36, '$'
2993 A5           defb A5h    	; 165,  -91
2994 28           defb 28h    	; 40, '('
2995 AC           defb ACh    	; 172,  -84
2996 29           defb 29h    	; 41, ')'
2997 B8           defb B8h    	; 184,  -72
2998 29           defb 29h    	; 41, ')'
2999 B9           defb B9h    	; 185,  -71
299A 21           defb 21h    	; 33, '!'
299B E6           defb E6h    	; 230,  -26
299C 30           defb 30h    	; 48, '0'
299D 2F           defb 2Fh    	; 47, '/'
299E 30           defb 30h    	; 48, '0'
299F 40           defb 40h    	; 64, '@'
29A0 22           defb 22h    	; 34, '"'
29A1 A3           defb A3h    	; 163,  -93
29A2 24           defb 24h    	; 36, '$'
29A3 A5           defb A5h    	; 165,  -91
29A4 28           defb 28h    	; 40, '('
29A5 AC           defb ACh    	; 172,  -84
29A6 29           defb 29h    	; 41, ')'
29A7 B8           defb B8h    	; 184,  -72
29A8 29           defb 29h    	; 41, ')'
29A9 B9           defb B9h    	; 185,  -71
29AA 21           defb 21h    	; 33, '!'
29AB E6           defb E6h    	; 230,  -26
29AC 24           defb 24h    	; 36, '$'
29AD 25           defb 25h    	; 37, '%'
29AE 23           defb 23h    	; 35, '#'
29AF 40           defb 40h    	; 64, '@'
29B0 22           defb 22h    	; 34, '"'
29B1 A3           defb A3h    	; 163,  -93
29B2 24           defb 24h    	; 36, '$'
29B3 A5           defb A5h    	; 165,  -91
29B4 28           defb 28h    	; 40, '('
29B5 AC           defb ACh    	; 172,  -84
29B6 29           defb 29h    	; 41, ')'
29B7 B8           defb B8h    	; 184,  -72
29B8 29           defb 29h    	; 41, ')'
29B9 B9           defb B9h    	; 185,  -71
29BA 33           defb 33h    	; 51, '3'
29BB F0           defb F0h    	; 240,  -16
29BC 29           defb 29h    	; 41, ')'
29BD 2E           defb 2Eh    	; 46, '.'
29BE 23           defb 23h    	; 35, '#'
29BF 40           defb 40h    	; 64, '@'
29C0 22           defb 22h    	; 34, '"'
29C1 A3           defb A3h    	; 163,  -93
29C2 24           defb 24h    	; 36, '$'
29C3 A5           defb A5h    	; 165,  -91
29C4 28           defb 28h    	; 40, '('
29C5 AC           defb ACh    	; 172,  -84
29C6 29           defb 29h    	; 41, ')'
29C7 B8           defb B8h    	; 184,  -72
29C8 29           defb 29h    	; 41, ')'
29C9 B9           defb B9h    	; 185,  -71
29CA 33           defb 33h    	; 51, '3'
29CB F0           defb F0h    	; 240,  -16
29CC 32           defb 32h    	; 50, '2'
29CD 33           defb 33h    	; 51, '3'
29CE 74           defb 74h    	; 116, 't'
29CF 90           defb 90h    	; 144, -112
29D0 91           defb 91h    	; 145, -111
29D1 92           defb 92h    	; 146, -110
29D2 93           defb 93h    	; 147, -109
29D3 94           defb 94h    	; 148, -108
29D4 95           defb 95h    	; 149, -107
29D5 96           defb 96h    	; 150, -106
29D6 D7           defb D7h    	; 215,  -41
29D7 25           defb 25h    	; 37, '%'
29D8 38           defb 38h    	; 56, '8'
29D9 40           defb 40h    	; 64, '@'
29DA 21           defb 21h    	; 33, '!'
29DB 26           defb 26h    	; 38, '&'
29DC 0C           defb 0Ch    	; 12
29DD 21           defb 21h    	; 33, '!'
29DE 26           defb 26h    	; 38, '&'
29DF 87           defb 87h    	; 135, -121
29E0 24           defb 24h    	; 36, '$'
29E1 25           defb 25h    	; 37, '%'
29E2 0C           defb 0Ch    	; 12
29E3 28           defb 28h    	; 40, '('
29E4 EC           defb ECh    	; 236,  -20
29E5 25           defb 25h    	; 37, '%'
29E6 38           defb 38h    	; 56, '8'
29E7 00           defb 00h    	; 0
29E8 08           defb 08h    	; 8
29E9 33           defb 33h    	; 51, '3'
29EA 30           defb 30h    	; 48, '0'
29EB 09           defb 09h    	; 9
29EC 4C           defb 4Ch    	; 76, 'L'
29ED 28           defb 28h    	; 40, '('
29EE AC           defb ACh    	; 172,  -84
29EF 29           defb 29h    	; 41, ')'
29F0 B8           defb B8h    	; 184,  -72
29F1 29           defb 29h    	; 41, ')'
29F2 F9           defb F9h    	; 249,   -7
29F3 25           defb 25h    	; 37, '%'
29F4 38           defb 38h    	; 56, '8'
29F5 F8           defb F8h    	; 248,   -8
29F6 2A           defb 2Ah    	; 42, '*'
29F7 30           defb 30h    	; 48, '0'
29F8 00           defb 00h    	; 0
29F9 48           defb 48h    	; 72, 'H'
29FA 28           defb 28h    	; 40, '('
29FB 2C           defb 2Ch    	; 44, ','
29FC 89           defb 89h    	; 137, -119
29FD 29           defb 29h    	; 41, ')'
29FE 38           defb 38h    	; 56, '8'
29FF 89           defb 89h    	; 137, -119
2A00 29           defb 29h    	; 41, ')'
2A01 39           defb 39h    	; 57, '9'
2A02 C9           defb C9h    	; 201,  -55
2A03 28           defb 28h    	; 40, '('
2A04 21           defb 21h    	; 33, '!'
2A05 2C           defb 2Ch    	; 44, ','
2A06 F4           defb F4h    	; 244,  -12
2A07 2C           defb 2Ch    	; 44, ','
2A08 24           defb 24h    	; 36, '$'
2A09 00           defb 00h    	; 0
2A0A 33           defb 33h    	; 51, '3'
2A0B 30           defb 30h    	; 48, '0'
2A0C 4C           defb 4Ch    	; 76, 'L'
2A0D 28           defb 28h    	; 40, '('
2A0E AC           defb ACh    	; 172,  -84
2A0F 29           defb 29h    	; 41, ')'
2A10 B8           defb B8h    	; 184,  -72
2A11 29           defb 29h    	; 41, ')'
2A12 F9           defb F9h    	; 249,   -7
2A13 2C           defb 2Ch    	; 44, ','
2A14 24           defb 24h    	; 36, '$'
2A15 00           defb 00h    	; 0
2A16 21           defb 21h    	; 33, '!'
2A17 0C           defb 0Ch    	; 12
2A18 48           defb 48h    	; 72, 'H'
2A19 22           defb 22h    	; 34, '"'
2A1A 23           defb 23h    	; 35, '#'
2A1B 89           defb 89h    	; 137, -119
2A1C 24           defb 24h    	; 36, '$'
2A1D 25           defb 25h    	; 37, '%'
2A1E C9           defb C9h    	; 201,  -55
2A1F 2C           defb 2Ch    	; 44, ','
2A20 24           defb 24h    	; 36, '$'
2A21 00           defb 00h    	; 0
2A22 48           defb 48h    	; 72, 'H'
2A23 22           defb 22h    	; 34, '"'
2A24 23           defb 23h    	; 35, '#'
2A25 09           defb 09h    	; 9
2A26 0C           defb 0Ch    	; 12
2A27 A1           defb A1h    	; 161,  -95
2A28 24           defb 24h    	; 36, '$'
2A29 25           defb 25h    	; 37, '%'
2A2A 09           defb 09h    	; 9
2A2B 0C           defb 0Ch    	; 12
2A2C E1           defb E1h    	; 225,  -31
2A2D 24           defb 24h    	; 36, '$'
2A2E E9           defb E9h    	; 233,  -23
2A2F 32           defb 32h    	; 50, '2'
2A30 2C           defb 2Ch    	; 44, ','
2A31 23           defb 23h    	; 35, '#'
2A32 E1           defb E1h    	; 225,  -31
2A33 32           defb 32h    	; 50, '2'
2A34 32           defb 32h    	; 50, '2'
2A35 23           defb 23h    	; 35, '#'
2A36 E1           defb E1h    	; 225,  -31
2A37 32           defb 32h    	; 50, '2'
2A38 2C           defb 2Ch    	; 44, ','
2A39 E1           defb E1h    	; 225,  -31
2A3A 32           defb 32h    	; 50, '2'
2A3B 32           defb 32h    	; 50, '2'
2A3C E1           defb E1h    	; 225,  -31
2A3D 24           defb 24h    	; 36, '$'
2A3E 21           defb 21h    	; 33, '!'
2A3F E1           defb E1h    	; 225,  -31
2A40 23           defb 23h    	; 35, '#'
2A41 30           defb 30h    	; 48, '0'
2A42 EC           defb ECh    	; 236,  -20
2A43 33           defb 33h    	; 51, '3'
2A44 23           defb 23h    	; 35, '#'
2A45 E6           defb E6h    	; 230,  -26
2A46 23           defb 23h    	; 35, '#'
2A47 23           defb 23h    	; 35, '#'
2A48 E6           defb E6h    	; 230,  -26
2A49 32           defb 32h    	; 50, '2'
2A4A 25           defb 25h    	; 37, '%'
2A4B 74           defb 74h    	; 116, 't'
2A4C 2E           defb 2Eh    	; 46, '.'
2A4D BA           defb BAh    	; 186,  -70
2A4E BA           defb BAh    	; 186,  -70
2A4F 2E           defb 2Eh    	; 46, '.'
2A50 A3           defb A3h    	; 163,  -93
2A51 A3           defb A3h    	; 163,  -93
2A52 30           defb 30h    	; 48, '0'
2A53 A5           defb A5h    	; 165,  -91
2A54 30           defb 30h    	; 48, '0'
2A55 AF           defb AFh    	; 175,  -81
2A56 B0           defb B0h    	; 176,  -80
2A57 ED           defb EDh    	; 237,  -19
2A58 32           defb 32h    	; 50, '2'
2A59 25           defb 25h    	; 37, '%'
2A5A F4           defb F4h    	; 244,  -12
2A5B 2A           defb 2Ah    	; 42, '*'
2A5C 72           defb 72h    	; 114, 'r'
2A5D 2E           defb 2Eh    	; 46, '.'
2A5E BA           defb BAh    	; 186,  -70
2A5F BA           defb BAh    	; 186,  -70
2A60 2E           defb 2Eh    	; 46, '.'
2A61 A3           defb A3h    	; 163,  -93
2A62 E3           defb E3h    	; 227,  -29
2A63 2A           defb 2Ah    	; 42, '*'
2A64 F2           defb F2h    	; 242,  -14
2A65 24           defb 24h    	; 36, '$'
2A66 2A           defb 2Ah    	; 42, '*'
2A67 2E           defb 2Eh    	; 46, '.'
2A68 FA           defb FAh    	; 250,   -6
2A69 23           defb 23h    	; 35, '#'
2A6A 21           defb 21h    	; 33, '!'
2A6B 2C           defb 2Ch    	; 44, ','
2A6C 6C           defb 6Ch    	; 108, 'l'
2A6D 2E           defb 2Eh    	; 46, '.'
2A6E BA           defb BAh    	; 186,  -70
2A6F BA           defb BAh    	; 186,  -70
2A70 2E           defb 2Eh    	; 46, '.'
2A71 A3           defb A3h    	; 163,  -93
2A72 A3           defb A3h    	; 163,  -93
2A73 30           defb 30h    	; 48, '0'
2A74 A5           defb A5h    	; 165,  -91
2A75 30           defb 30h    	; 48, '0'
2A76 AF           defb AFh    	; 175,  -81
2A77 B0           defb B0h    	; 176,  -80
2A78 ED           defb EDh    	; 237,  -19
2A79 23           defb 23h    	; 35, '#'
2A7A 21           defb 21h    	; 33, '!'
2A7B 2C           defb 2Ch    	; 44, ','
2A7C EC           defb ECh    	; 236,  -20
2A7D 2A           defb 2Ah    	; 42, '*'
2A7E 70           defb 70h    	; 112, 'p'
2A7F 2E           defb 2Eh    	; 46, '.'
2A80 BA           defb BAh    	; 186,  -70
2A81 BA           defb BAh    	; 186,  -70
2A82 2E           defb 2Eh    	; 46, '.'
2A83 A3           defb A3h    	; 163,  -93
2A84 A3           defb A3h    	; 163,  -93
2A85 30           defb 30h    	; 48, '0'
2A86 A5           defb A5h    	; 165,  -91
2A87 30           defb 30h    	; 48, '0'
2A88 AF           defb AFh    	; 175,  -81
2A89 B0           defb B0h    	; 176,  -80
2A8A ED           defb EDh    	; 237,  -19
2A8B 2A           defb 2Ah    	; 42, '*'
2A8C F0           defb F0h    	; 240,  -16
2A8D 2D           defb 2Dh    	; 45, '-'
2A8E 36           defb 36h    	; 54, '6'
2A8F 40           defb 40h    	; 64, '@'
2A90 29           defb 29h    	; 41, ')'
2A91 38           defb 38h    	; 56, '8'
2A92 8C           defb 8Ch    	; 140, -116
2A93 29           defb 29h    	; 41, ')'
2A94 39           defb 39h    	; 57, '9'
2A95 8C           defb 8Ch    	; 140, -116
2A96 22           defb 22h    	; 34, '"'
2A97 23           defb 23h    	; 35, '#'
2A98 8C           defb 8Ch    	; 140, -116
2A99 24           defb 24h    	; 36, '$'
2A9A 25           defb 25h    	; 37, '%'
2A9B 8C           defb 8Ch    	; 140, -116
2A9C 28           defb 28h    	; 40, '('
2A9D 2C           defb 2Ch    	; 44, ','
2A9E 8C           defb 8Ch    	; 140, -116
2A9F 33           defb 33h    	; 51, '3'
2AA0 30           defb 30h    	; 48, '0'
2AA1 8C           defb 8Ch    	; 140, -116
2AA2 21           defb 21h    	; 33, '!'
2AA3 0C           defb 0Ch    	; 12
2AA4 C8           defb C8h    	; 200,  -56
2AA5 2D           defb 2Dh    	; 45, '-'
2AA6 36           defb 36h    	; 54, '6'
2AA7 00           defb 00h    	; 0
2AA8 C8           defb C8h    	; 200,  -56
2AA9 29           defb 29h    	; 41, ')'
2AAA 2E           defb 2Eh    	; 46, '.'
2AAB C0           defb C0h    	; 192,  -64
2AAC 2F           defb 2Fh    	; 47, '/'
2AAD 35           defb 35h    	; 53, '5'
2AAE 34           defb 34h    	; 52, '4'
2AAF C0           defb C0h    	; 192,  -64
2AB0 29           defb 29h    	; 41, ')'
2AB1 2E           defb 2Eh    	; 46, '.'
2AB2 E3           defb E3h    	; 227,  -29
2AB3 24           defb 24h    	; 36, '$'
2AB4 25           defb 25h    	; 37, '%'
2AB5 E3           defb E3h    	; 227,  -29
2AB6 2C           defb 2Ch    	; 44, ','
2AB7 E4           defb E4h    	; 228,  -28
2AB8 21           defb 21h    	; 33, '!'
2AB9 24           defb 24h    	; 36, '$'
2ABA E4           defb E4h    	; 228,  -28
2ABB 21           defb 21h    	; 33, '!'
2ABC 24           defb 24h    	; 36, '$'
2ABD E3           defb E3h    	; 227,  -29
2ABE 33           defb 33h    	; 51, '3'
2ABF 35           defb 35h    	; 53, '5'
2AC0 E2           defb E2h    	; 226,  -30
2AC1 33           defb 33h    	; 51, '3'
2AC2 22           defb 22h    	; 34, '"'
2AC3 E3           defb E3h    	; 227,  -29
2AC4 21           defb 21h    	; 33, '!'
2AC5 2E           defb 2Eh    	; 46, '.'
2AC6 E4           defb E4h    	; 228,  -28
2AC7 38           defb 38h    	; 56, '8'
2AC8 2F           defb 2Fh    	; 47, '/'
2AC9 F2           defb F2h    	; 242,  -14
2ACA 2F           defb 2Fh    	; 47, '/'
2ACB F2           defb F2h    	; 242,  -14
2ACC 23           defb 23h    	; 35, '#'
2ACD F0           defb F0h    	; 240,  -16
2ACE 32           defb 32h    	; 50, '2'
2ACF 2C           defb 2Ch    	; 44, ','
2AD0 E3           defb E3h    	; 227,  -29
2AD1 32           defb 32h    	; 50, '2'
2AD2 32           defb 32h    	; 50, '2'
2AD3 E3           defb E3h    	; 227,  -29
2AD4 32           defb 32h    	; 50, '2'
2AD5 EC           defb ECh    	; 236,  -20
2AD6 32           defb 32h    	; 50, '2'
2AD7 F2           defb F2h    	; 242,  -14
2AD8 33           defb 33h    	; 51, '3'
2AD9 2C           defb 2Ch    	; 44, ','
2ADA E1           defb E1h    	; 225,  -31
2ADB 33           defb 33h    	; 51, '3'
2ADC 32           defb 32h    	; 50, '2'
2ADD E1           defb E1h    	; 225,  -31
2ADE 33           defb 33h    	; 51, '3'
2ADF 2C           defb 2Ch    	; 44, ','
2AE0 29           defb 29h    	; 41, ')'
2AE1 E1           defb E1h    	; 225,  -31
2AE2 33           defb 33h    	; 51, '3'
2AE3 32           defb 32h    	; 50, '2'
2AE4 EC           defb ECh    	; 236,  -20
2AE5 22           defb 22h    	; 34, '"'
2AE6 29           defb 29h    	; 41, ')'
2AE7 74           defb 74h    	; 116, 't'
2AE8 90           defb 90h    	; 144, -112
2AE9 91           defb 91h    	; 145, -111
2AEA 92           defb 92h    	; 146, -110
2AEB 93           defb 93h    	; 147, -109
2AEC 94           defb 94h    	; 148, -108
2AED 95           defb 95h    	; 149, -107
2AEE 96           defb 96h    	; 150, -106
2AEF D7           defb D7h    	; 215,  -41
2AF0 32           defb 32h    	; 50, '2'
2AF1 25           defb 25h    	; 37, '%'
2AF2 73           defb 73h    	; 115, 's'
2AF3 90           defb 90h    	; 144, -112
2AF4 91           defb 91h    	; 145, -111
2AF5 92           defb 92h    	; 146, -110
2AF6 93           defb 93h    	; 147, -109
2AF7 94           defb 94h    	; 148, -108
2AF8 95           defb 95h    	; 149, -107
2AF9 96           defb 96h    	; 150, -106
2AFA D7           defb D7h    	; 215,  -41
2AFB 33           defb 33h    	; 51, '3'
2AFC 25           defb 25h    	; 37, '%'
2AFD 74           defb 74h    	; 116, 't'
2AFE 90           defb 90h    	; 144, -112
2AFF 91           defb 91h    	; 145, -111
2B00 92           defb 92h    	; 146, -110
2B01 93           defb 93h    	; 147, -109
2B02 94           defb 94h    	; 148, -108
2B03 95           defb 95h    	; 149, -107
2B04 96           defb 96h    	; 150, -106
2B05 D7           defb D7h    	; 215,  -41
2B06 4C           defb 4Ch    	; 76, 'L'
2B07 22           defb 22h    	; 34, '"'
2B08 A3           defb A3h    	; 163,  -93
2B09 24           defb 24h    	; 36, '$'
2B0A A5           defb A5h    	; 165,  -91
2B0B 28           defb 28h    	; 40, '('
2B0C AC           defb ACh    	; 172,  -84
2B0D 33           defb 33h    	; 51, '3'
2B0E B0           defb B0h    	; 176,  -80
2B0F 29           defb 29h    	; 41, ')'
2B10 B8           defb B8h    	; 184,  -72
2B11 29           defb 29h    	; 41, ')'
2B12 F9           defb F9h    	; 249,   -7
2B13 E2           defb E2h    	; 226,  -30
2B14 E3           defb E3h    	; 227,  -29
2B15 E4           defb E4h    	; 228,  -28
2B16 E5           defb E5h    	; 229,  -27
2B17 E8           defb E8h    	; 232,  -24
2B18 EC           defb ECh    	; 236,  -20
2B19 08           defb 08h    	; 8
2B1A 28           defb 28h    	; 40, '('
2B1B 2C           defb 2Ch    	; 44, ','
2B1C C9           defb C9h    	; 201,  -55
2B1D E1           defb E1h    	; 225,  -31
2B1E 38           defb 38h    	; 56, '8'
2B1F E8           defb E8h    	; 232,  -24
2B20 38           defb 38h    	; 56, '8'
2B21 EC           defb ECh    	; 236,  -20
2B22 08           defb 08h    	; 8
2B23 29           defb 29h    	; 41, ')'
2B24 38           defb 38h    	; 56, '8'
2B25 CB           defb CBh    	; 203,  -53
2B26 39           defb 39h    	; 57, '9'
2B27 E8           defb E8h    	; 232,  -24
2B28 39           defb 39h    	; 57, '9'
2B29 EC           defb ECh    	; 236,  -20
2B2A 08           defb 08h    	; 8
2B2B 29           defb 29h    	; 41, ')'
2B2C 39           defb 39h    	; 57, '9'
2B2D CB           defb CBh    	; 203,  -53
2B2E 0C           defb 0Ch    	; 12
2B2F E1           defb E1h    	; 225,  -31
2B30 FF           defb FFh    	; 255,   -1
2B31 B9           defb B9h    	; 185,  -71
2B32 B1           defb B1h    	; 177,  -79
2B33 A9           defb A9h    	; 169,  -87
2B34 A1           defb A1h    	; 161,  -95
2B35 44           defb 44h    	; 68, 'D'
2B36 6F           defb 6Fh    	; 111, 'o'
2B37 67           defb 67h    	; 103, 'g'
2B38 45           defb 45h    	; 69, 'E'
2B39 4D           defb 4Dh    	; 77, 'M'
2B3A BB           defb BBh    	; 187,  -69
2B3B B3           defb B3h    	; 179,  -77
2B3C AB           defb ABh    	; 171,  -85
2B3D A3           defb A3h    	; 163,  -93
2B3E 79           defb 79h    	; 121, 'y'
2B3F 41           defb 41h    	; 65, 'A'
2B40 49           defb 49h    	; 73, 'I'
2B41 51           defb 51h    	; 81, 'Q'
2B42 59           defb 59h    	; 89, 'Y'
2B43 61           defb 61h    	; 97, 'a'
2B44 69           defb 69h    	; 105, 'i'
2B45 BA           defb BAh    	; 186,  -70
2B46 B2           defb B2h    	; 178,  -78
2B47 AA           defb AAh    	; 170,  -86
2B48 A2           defb A2h    	; 162,  -94
2B49 78           defb 78h    	; 120, 'x'
2B4A 40           defb 40h    	; 64, '@'
2B4B 48           defb 48h    	; 72, 'H'
2B4C 50           defb 50h    	; 80, 'P'
2B4D 58           defb 58h    	; 88, 'X'
2B4E 60           defb 60h    	; 96, '`'
2B4F 68           defb 68h    	; 104, 'h'
2B50 46           defb 46h    	; 70, 'F'
2B51 56           defb 56h    	; 86, 'V'
2B52 5E           defb 5Eh    	; 94, '^'
2B53 B8           defb B8h    	; 184,  -72
2B54 B0           defb B0h    	; 176,  -80
2B55 A8           defb A8h    	; 168,  -88
2B56 A0           defb A0h    	; 160,  -96
2B57 5F           defb 5Fh    	; 95, '_'
2B58 57           defb 57h    	; 87, 'W'
2B59 4F           defb 4Fh    	; 79, 'O'
2B5A 47           defb 47h    	; 71, 'G'
2B5B 6A           defb 6Ah    	; 106, 'j'
2B5C 4A           defb 4Ah    	; 74, 'J'
2B5D 5A           defb 5Ah    	; 90, 'Z'
2B5E 7A           defb 7Ah    	; 122, 'z'
2B5F 62           defb 62h    	; 98, 'b'
2B60 42           defb 42h    	; 66, 'B'
2B61 52           defb 52h    	; 82, 'R'
2B62 72           defb 72h    	; 114, 'r'
2B63 09           defb 09h    	; 9
2B64 19           defb 19h    	; 25
2B65 29           defb 29h    	; 41, ')'
2B66 39           defb 39h    	; 57, '9'
2B67 FB           defb FBh    	; 251,   -5
2B68 49           defb 49h    	; 73, 'I'
2B69 49           defb 49h    	; 73, 'I'
2B6A 59           defb 59h    	; 89, 'Y'
2B6B 59           defb 59h    	; 89, 'Y'
2B6C 69           defb 69h    	; 105, 'i'
2B6D 69           defb 69h    	; 105, 'i'
2B6E 79           defb 79h    	; 121, 'y'
2B6F 79           defb 79h    	; 121, 'y'
2B70 00           defb 00h    	; 0
2B71 C5           defb C5h    	; 197,  -59
2B72 D5           defb D5h    	; 213,  -43
2B73 E5           defb E5h    	; 229,  -27
2B74 A5           defb A5h    	; 165,  -91
2B75 A5           defb A5h    	; 165,  -91
2B76 F5           defb F5h    	; 245,  -11
2B77 C1           defb C1h    	; 193,  -63
2B78 D1           defb D1h    	; 209,  -47
2B79 E1           defb E1h    	; 225,  -31
2B7A A1           defb A1h    	; 161,  -95
2B7B A1           defb A1h    	; 161,  -95
2B7C F1           defb F1h    	; 241,  -15
2B7D 0B           defb 0Bh    	; 11
2B7E 1B           defb 1Bh    	; 27
2B7F 2B           defb 2Bh    	; 43, '+'
2B80 6B           defb 6Bh    	; 107, 'k'
2B81 6B           defb 6Bh    	; 107, 'k'
2B82 3B           defb 3Bh    	; 59, ';'
2B83 03           defb 03h    	; 3
2B84 13           defb 13h    	; 19
2B85 23           defb 23h    	; 35, '#'
2B86 63           defb 63h    	; 99, 'c'
2B87 63           defb 63h    	; 99, 'c'
2B88 33           defb 33h    	; 51, '3'
2B89 C7           defb C7h    	; 199,  -57
2B8A CF           defb CFh    	; 207,  -49
2B8B D7           defb D7h    	; 215,  -41
2B8C DF           defb DFh    	; 223,  -33
2B8D E7           defb E7h    	; 231,  -25
2B8E EF           defb EFh    	; 239,  -17
2B8F F7           defb F7h    	; 247,   -9
2B90 FF           defb FFh    	; 255,   -1
2B91 08           defb 08h    	; 8
2B92 EB           defb EBh    	; 235,  -21
2B93 E3           defb E3h    	; 227,  -29
2B94 A3           defb A3h    	; 163,  -93
2B95 A3           defb A3h    	; 163,  -93
2B96 D9           defb D9h    	; 217,  -39
2B97 E9           defb E9h    	; 233,  -23
2B98 A9           defb A9h    	; 169,  -87
2B99 A9           defb A9h    	; 169,  -87
2B9A 76           defb 76h    	; 118, 'v'
2B9B F9           defb F9h    	; 249,   -7
2B9C B9           defb B9h    	; 185,  -71
2B9D B9           defb B9h    	; 185,  -71
2B9E 0A           defb 0Ah    	; 10
2B9F 1A           defb 1Ah    	; 26
2BA0 02           defb 02h    	; 2
2BA1 12           defb 12h    	; 18
2BA2 F3           defb F3h    	; 243,  -13
2BA3 07           defb 07h    	; 7
2BA4 0F           defb 0Fh    	; 15
2BA5 17           defb 17h    	; 23
2BA6 1F           defb 1Fh    	; 31
2BA7 27           defb 27h    	; 39, '''
2BA8 2F           defb 2Fh    	; 47, '/'
2BA9 37           defb 37h    	; 55, '7'
2BAA 3F           defb 3Fh    	; 63, '?'
2BAB C0           defb C0h    	; 192,  -64
2BAC C8           defb C8h    	; 200,  -56
2BAD D0           defb D0h    	; 208,  -48
2BAE D8           defb D8h    	; 216,  -40
2BAF E8           defb E8h    	; 232,  -24
2BB0 E0           defb E0h    	; 224,  -32
2BB1 F0           defb F0h    	; 240,  -16
2BB2 F8           defb F8h    	; 248,   -8
2BB3 C9           defb C9h    	; 201,  -55
2BB4 20           defb 20h    	; 32, ' '
2BB5 28           defb 28h    	; 40, '('
2BB6 30           defb 30h    	; 48, '0'
2BB7 38           defb 38h    	; 56, '8'
2BB8 18           defb 18h    	; 24
2BB9 10           defb 10h    	; 16
2BBA C4           defb C4h    	; 196,  -60
2BBB CC           defb CCh    	; 204,  -52
2BBC D4           defb D4h    	; 212,  -44
2BBD DC           defb DCh    	; 220,  -36
2BBE EC           defb ECh    	; 236,  -20
2BBF E4           defb E4h    	; 228,  -28
2BC0 F4           defb F4h    	; 244,  -12
2BC1 FC           defb FCh    	; 252,   -4
2BC2 CD           defb CDh    	; 205,  -51
2BC3 C2           defb C2h    	; 194,  -62
2BC4 CA           defb CAh    	; 202,  -54
2BC5 D2           defb D2h    	; 210,  -46
2BC6 DA           defb DAh    	; 218,  -38
2BC7 EA           defb EAh    	; 234,  -22
2BC8 E2           defb E2h    	; 226,  -30
2BC9 F2           defb F2h    	; 242,  -14
2BCA FA           defb FAh    	; 250,   -6
2BCB C3           defb C3h    	; 195,  -61
2BCC 61           defb 61h    	; 97, 'a'
2BCD 61           defb 61h    	; 97, 'a'
2BCE 01           defb 01h    	; 1
2BCF 11           defb 11h    	; 17
2BD0 21           defb 21h    	; 33, '!'
2BD1 31           defb 31h    	; 49, '1'
2BD2 3A           defb 3Ah    	; 58, ':'
2BD3 6A           defb 6Ah    	; 106, 'j'
2BD4 6A           defb 6Ah    	; 106, 'j'
2BD5 4B           defb 4Bh    	; 75, 'K'
2BD6 5B           defb 5Bh    	; 91, '['
2BD7 2A           defb 2Ah    	; 42, '*'
2BD8 7B           defb 7Bh    	; 123, '{'
2BD9 0E           defb 0Eh    	; 14
2BDA 00           defb 00h    	; 0
2BDB E7           defb E7h    	; 231,  -25
2BDC FE           defb FEh    	; 254,   -2
2BDD ED           defb EDh    	; 237,  -19
2BDE 20           defb 20h    	; 32, ' '
2BDF 20           defb 20h    	; 32, ' '
2BE0 E7           defb E7h    	; 231,  -25
2BE1 47           defb 47h    	; 71, 'G'
2BE2 E6           defb E6h    	; 230,  -26
2BE3 C7           defb C7h    	; 199,  -57
2BE4 FE           defb FEh    	; 254,   -2
2BE5 43           defb 43h    	; 67, 'C'
2BE6 78           defb 78h    	; 120, 'x'
2BE7 06           defb 06h    	; 6
2BE8 32           defb 32h    	; 50, '2'
2BE9 21           defb 21h    	; 33, '!'
2BEA 62           defb 62h    	; 98, 'b'
2BEB 2B           defb 2Bh    	; 43, '+'
2BEC C2           defb C2h    	; 194,  -62
2BED DA           defb DAh    	; 218,  -38
2BEE 2C           defb 2Ch    	; 44, ','
2BEF 00           defb 00h    	; 0
2BF0 00           defb 00h    	; 0
2BF1 FE           defb FEh    	; 254,   -2
2BF2 6B           defb 6Bh    	; 107, 'k'
2BF3 20           defb 20h    	; 32, ' '
2BF4 02           defb 02h    	; 2
2BF5 E6           defb E6h    	; 230,  -26
2BF6 2A           defb 2Ah    	; 42, '*'
2BF7 CB           defb CBh    	; 203,  -53
2BF8 5F           defb 5Fh    	; 95, '_'
2BF9 C2           defb C2h    	; 194,  -62
2BFA D5           defb D5h    	; 213,  -43
2BFB 2C           defb 2Ch    	; 44, ','
2BFC 06           defb 06h    	; 6
2BFD A3           defb A3h    	; 163,  -93
2BFE 18           defb 18h    	; 24
2BFF 58           defb 58h    	; 88, 'X'
2C00 FE           defb FEh    	; 254,   -2
2C01 FD           defb FDh    	; 253,   -3
2C02 28           defb 28h    	; 40, '('
2C03 04           defb 04h    	; 4
2C04 FE           defb FEh    	; 254,   -2
2C05 DD           defb DDh    	; 221,  -35
2C06 20           defb 20h    	; 32, ' '
2C07 02           defb 02h    	; 2
2C08 4F           defb 4Fh    	; 79, 'O'
2C09 E7           defb E7h    	; 231,  -25
2C0A FE           defb FEh    	; 254,   -2
2C0B CB           defb CBh    	; 203,  -53
2C0C 20           defb 20h    	; 32, ' '
2C0D 31           defb 31h    	; 49, '1'
2C0E CB           defb CBh    	; 203,  -53
2C0F 41           defb 41h    	; 65, 'A'
2C10 28           defb 28h    	; 40, '('
2C11 04           defb 04h    	; 4
2C12 E7           defb E7h    	; 231,  -25
2C13 32           defb 32h    	; 50, '2'
2C14 5C           defb 5Ch    	; 92, '\'
2C15 40           defb 40h    	; 64, '@'
2C16 E7           defb E7h    	; 231,  -25
2C17 F5           defb F5h    	; 245,  -11
2C18 0F           defb 0Fh    	; 15
2C19 0F           defb 0Fh    	; 15
2C1A 0F           defb 0Fh    	; 15
2C1B E6           defb E6h    	; 230,  -26
2C1C 1F           defb 1Fh    	; 31
2C1D C6           defb C6h    	; 198,  -58
2C1E B1           defb B1h    	; 177,  -79
2C1F CD           defb CDh    	; 205,  -51
2C20 69           defb 69h    	; 105, 'i'
2C21 2C           defb 2Ch    	; 44, ','
2C22 3E           defb 3Eh    	; 62, '>'
2C23 0E           defb 0Eh    	; 14
2C24 EF           defb EFh    	; 239,  -17
2C25 F1           defb F1h    	; 241,  -15
2C26 E6           defb E6h    	; 230,  -26
2C27 07           defb 07h    	; 7
2C28 FE           defb FEh    	; 254,   -2
2C29 06           defb 06h    	; 6
2C2A 28           defb 28h    	; 40, '('
2C2B 10           defb 10h    	; 16
2C2C CB           defb CBh    	; 203,  -53
2C2D 41           defb 41h    	; 65, 'A'
2C2E 28           defb 28h    	; 40, '('
2C2F 0C           defb 0Ch    	; 12
2C30 C5           defb C5h    	; 197,  -59
2C31 0E           defb 0Eh    	; 14
2C32 00           defb 00h    	; 0
2C33 CD           defb CDh    	; 205,  -51
2C34 74           defb 74h    	; 116, 't'
2C35 2D           defb 2Dh    	; 45, '-'
2C36 C1           defb C1h    	; 193,  -63
2C37 3E           defb 3Eh    	; 62, '>'
2C38 2C           defb 2Ch    	; 44, ','
2C39 EF           defb EFh    	; 239,  -17
2C3A 3E           defb 3Eh    	; 62, '>'
2C3B 06           defb 06h    	; 6
2C3C C3           defb C3h    	; 195,  -61
2C3D 74           defb 74h    	; 116, 't'
2C3E 2D           defb 2Dh    	; 45, '-'
2C3F 06           defb 06h    	; 6
2C40 A3           defb A3h    	; 163,  -93
2C41 FE           defb FEh    	; 254,   -2
2C42 32           defb 32h    	; 50, '2'
2C43 28           defb 28h    	; 40, '('
2C44 0F           defb 0Fh    	; 15
2C45 FE           defb FEh    	; 254,   -2
2C46 22           defb 22h    	; 34, '"'
2C47 20           defb 20h    	; 32, ' '
2C48 53           defb 53h    	; 83, 'S'
2C49 3D           defb 3Dh    	; 61, '='
2C4A CB           defb CBh    	; 203,  -53
2C4B 41           defb 41h    	; 65, 'A'
2C4C 28           defb 28h    	; 40, '('
2C4D 08           defb 08h    	; 8
2C4E C6           defb C6h    	; 198,  -58
2C4F 20           defb 20h    	; 32, ' '
2C50 CB           defb CBh    	; 203,  -53
2C51 69           defb 69h    	; 105, 'i'
2C52 28           defb 28h    	; 40, '('
2C53 02           defb 02h    	; 2
2C54 C6           defb C6h    	; 198,  -58
2C55 10           defb 10h    	; 16
2C56 C6           defb C6h    	; 198,  -58
2C57 42           defb 42h    	; 66, 'B'
2C58 F5           defb F5h    	; 245,  -11
2C59 CD           defb CDh    	; 205,  -51
2C5A 6A           defb 6Ah    	; 106, 'j'
2C5B 2C           defb 2Ch    	; 44, ','
2C5C 3E           defb 3Eh    	; 62, '>'
2C5D FF           defb FFh    	; 255,   -1
2C5E CD           defb CDh    	; 205,  -51
2C5F 25           defb 25h    	; 37, '%'
2C60 2D           defb 2Dh    	; 45, '-'
2C61 00           defb 00h    	; 0
2C62 F1           defb F1h    	; 241,  -15
2C63 0F           defb 0Fh    	; 15
2C64 0F           defb 0Fh    	; 15
2C65 0F           defb 0Fh    	; 15
2C66 0F           defb 0Fh    	; 15
2C67 C6           defb C6h    	; 198,  -58
2C68 9D           defb 9Dh    	; 157,  -99
2C69 47           defb 47h    	; 71, 'G'
2C6A 21           defb 21h    	; 33, '!'
2C6B E1           defb E1h    	; 225,  -31
2C6C 28           defb 28h    	; 40, '('
2C6D D5           defb D5h    	; 213,  -43
2C6E F5           defb F5h    	; 245,  -11
2C6F 3E           defb 3Eh    	; 62, '>'
2C70 C0           defb C0h    	; 192,  -64
2C71 FE           defb FEh    	; 254,   -2
2C72 C0           defb C0h    	; 192,  -64
2C73 38           defb 38h    	; 56, '8'
2C74 02           defb 02h    	; 2
2C75 54           defb 54h    	; 84, 'T'
2C76 5D           defb 5Dh    	; 93, ']'
2C77 F1           defb F1h    	; 241,  -15
2C78 E5           defb E5h    	; 229,  -27
2C79 23           defb 23h    	; 35, '#'
2C7A 7E           defb 7Eh    	; 126, '~'
2C7B E6           defb E6h    	; 230,  -26
2C7C C0           defb C0h    	; 192,  -64
2C7D 28           defb 28h    	; 40, '('
2C7E FA           defb FAh    	; 250,   -6
2C7F F2           defb F2h    	; 242,  -14
2C80 77           defb 77h    	; 119, 'w'
2C81 2C           defb 2Ch    	; 44, ','
2C82 10           defb 10h    	; 16
2C83 ED           defb EDh    	; 237,  -19
2C84 E1           defb E1h    	; 225,  -31
2C85 13           defb 13h    	; 19
2C86 E7           defb E7h    	; 231,  -25
2C87 F5           defb F5h    	; 245,  -11
2C88 E6           defb E6h    	; 230,  -26
2C89 3F           defb 3Fh    	; 63, '?'
2C8A 20           defb 20h    	; 32, ' '
2C8B 02           defb 02h    	; 2
2C8C 3E           defb 3Eh    	; 62, '>'
2C8D EE           defb EEh    	; 238,  -18
2C8E C6           defb C6h    	; 198,  -58
2C8F 20           defb 20h    	; 32, ' '
2C90 EF           defb EFh    	; 239,  -17
2C91 F1           defb F1h    	; 241,  -15
2C92 E6           defb E6h    	; 230,  -26
2C93 C0           defb C0h    	; 192,  -64
2C94 28           defb 28h    	; 40, '('
2C95 F0           defb F0h    	; 240,  -16
2C96 EB           defb EBh    	; 235,  -21
2C97 F2           defb F2h    	; 242,  -14
2C98 85           defb 85h    	; 133, -123
2C99 2C           defb 2Ch    	; 44, ','
2C9A D1           defb D1h    	; 209,  -47
2C9B C9           defb C9h    	; 201,  -55
2C9C 04           defb 04h    	; 4
2C9D FE           defb FEh    	; 254,   -2
2C9E DB           defb DBh    	; 219,  -37
2C9F 28           defb 28h    	; 40, '('
2CA0 05           defb 05h    	; 5
2CA1 04           defb 04h    	; 4
2CA2 FE           defb FEh    	; 254,   -2
2CA3 D3           defb D3h    	; 211,  -45
2CA4 20           defb 20h    	; 32, ' '
2CA5 09           defb 09h    	; 9
2CA6 CD           defb CDh    	; 205,  -51
2CA7 6A           defb 6Ah    	; 106, 'j'
2CA8 2C           defb 2Ch    	; 44, ','
2CA9 3E           defb 3Eh    	; 62, '>'
2CAA 28           defb 28h    	; 40, '('
2CAB EF           defb EFh    	; 239,  -17
2CAC C3           defb C3h    	; 195,  -61
2CAD BE           defb BEh    	; 190,  -66
2CAE 2D           defb 2Dh    	; 45, '-'
2CAF FE           defb FEh    	; 254,   -2
2CB0 76           defb 76h    	; 118, 'v'
2CB1 28           defb 28h    	; 40, '('
2CB2 22           defb 22h    	; 34, '"'
2CB3 F5           defb F5h    	; 245,  -11
2CB4 04           defb 04h    	; 4
2CB5 E6           defb E6h    	; 230,  -26
2CB6 C7           defb C7h    	; 199,  -57
2CB7 FE           defb FEh    	; 254,   -2
2CB8 04           defb 04h    	; 4
2CB9 28           defb 28h    	; 40, '('
2CBA 79           defb 79h    	; 121, 'y'
2CBB 04           defb 04h    	; 4
2CBC FE           defb FEh    	; 254,   -2
2CBD 05           defb 05h    	; 5
2CBE 28           defb 28h    	; 40, '('
2CBF 74           defb 74h    	; 116, 't'
2CC0 04           defb 04h    	; 4
2CC1 FE           defb FEh    	; 254,   -2
2CC2 06           defb 06h    	; 6
2CC3 28           defb 28h    	; 40, '('
2CC4 6F           defb 6Fh    	; 111, 'o'
2CC5 FE           defb FEh    	; 254,   -2
2CC6 C6           defb C6h    	; 198,  -58
2CC7 28           defb 28h    	; 40, '('
2CC8 62           defb 62h    	; 98, 'b'
2CC9 E6           defb E6h    	; 230,  -26
2CCA C0           defb C0h    	; 192,  -64
2CCB FE           defb FEh    	; 254,   -2
2CCC 40           defb 40h    	; 64, '@'
2CCD 28           defb 28h    	; 40, '('
2CCE 65           defb 65h    	; 101, 'e'
2CCF 04           defb 04h    	; 4
2CD0 FE           defb FEh    	; 254,   -2
2CD1 80           defb 80h    	; 128, -128
2CD2 28           defb 28h    	; 40, '('
2CD3 57           defb 57h    	; 87, 'W'
2CD4 F1           defb F1h    	; 241,  -15
2CD5 06           defb 06h    	; 6
2CD6 A8           defb A8h    	; 168,  -88
2CD7 21           defb 21h    	; 33, '!'
2CD8 D8           defb D8h    	; 216,  -40
2CD9 2B           defb 2Bh    	; 43, '+'
2CDA CB           defb CBh    	; 203,  -53
2CDB 41           defb 41h    	; 65, 'A'
2CDC 28           defb 28h    	; 40, '('
2CDD 02           defb 02h    	; 2
2CDE EE           defb EEh    	; 238,  -18
2CDF 40           defb 40h    	; 64, '@'
2CE0 BE           defb BEh    	; 190,  -66
2CE1 2B           defb 2Bh    	; 43, '+'
2CE2 28           defb 28h    	; 40, '('
2CE3 11           defb 11h    	; 17
2CE4 10           defb 10h    	; 16
2CE5 FA           defb FAh    	; 250,   -6
2CE6 00           defb 00h    	; 0
2CE7 1B           defb 1Bh    	; 27
2CE8 1B           defb 1Bh    	; 27
2CE9 CD           defb CDh    	; 205,  -51
2CEA EE           defb EEh    	; 238,  -18
2CEB 2C           defb 2Ch    	; 44, ','
2CEC 18           defb 18h    	; 24
2CED 03           defb 03h    	; 3
2CEE 3E           defb 3Eh    	; 62, '>'
2CEF 24           defb 24h    	; 36, '$'
2CF0 EF           defb EFh    	; 239,  -17
2CF1 E7           defb E7h    	; 231,  -25
2CF2 C3           defb C3h    	; 195,  -61
2CF3 A5           defb A5h    	; 165,  -91
2CF4 01           defb 01h    	; 1
2CF5 78           defb 78h    	; 120, 'x'
2CF6 CB           defb CBh    	; 203,  -53
2CF7 41           defb 41h    	; 65, 'A'
2CF8 28           defb 28h    	; 40, '('
2CF9 09           defb 09h    	; 9
2CFA FE           defb FEh    	; 254,   -2
2CFB 33           defb 33h    	; 51, '3'
2CFC 38           defb 38h    	; 56, '8'
2CFD E9           defb E9h    	; 233,  -23
2CFE CB           defb CBh    	; 203,  -53
2CFF 69           defb 69h    	; 105, 'i'
2D00 20           defb 20h    	; 32, ' '
2D01 01           defb 01h    	; 1
2D02 3D           defb 3Dh    	; 61, '='
2D03 F5           defb F5h    	; 245,  -11
2D04 FE           defb FEh    	; 254,   -2
2D05 A3           defb A3h    	; 163,  -93
2D06 38           defb 38h    	; 56, '8'
2D07 02           defb 02h    	; 2
2D08 D6           defb D6h    	; 214,  -42
2D09 07           defb 07h    	; 7
2D0A CD           defb CDh    	; 205,  -51
2D0B 69           defb 69h    	; 105, 'i'
2D0C 2C           defb 2Ch    	; 44, ','
2D0D F1           defb F1h    	; 241,  -15
2D0E FE           defb FEh    	; 254,   -2
2D0F 84           defb 84h    	; 132, -124
2D10 D8           defb D8h    	; 216,  -40
2D11 FE           defb FEh    	; 254,   -2
2D12 9C           defb 9Ch    	; 156, -100
2D13 30           defb 30h    	; 48, '0'
2D14 05           defb 05h    	; 5
2D15 F5           defb F5h    	; 245,  -11
2D16 3E           defb 3Eh    	; 62, '>'
2D17 0E           defb 0Eh    	; 14
2D18 EF           defb EFh    	; 239,  -17
2D19 F1           defb F1h    	; 241,  -15
2D1A FE           defb FEh    	; 254,   -2
2D1B A2           defb A2h    	; 162,  -94
2D1C 28           defb 28h    	; 40, '('
2D1D 07           defb 07h    	; 7
2D1E 38           defb 38h    	; 56, '8'
2D1F 09           defb 09h    	; 9
2D20 F5           defb F5h    	; 245,  -11
2D21 3E           defb 3Eh    	; 62, '>'
2D22 28           defb 28h    	; 40, '('
2D23 EF           defb EFh    	; 239,  -17
2D24 F1           defb F1h    	; 241,  -15
2D25 21           defb 21h    	; 33, '!'
2D26 9E           defb 9Eh    	; 158,  -98
2D27 2D           defb 2Dh    	; 45, '-'
2D28 E5           defb E5h    	; 229,  -27
2D29 DD           defb DDh    	; 221,  -35
2D2A E9           defb E9h    	; 233,  -23
2D2B F1           defb F1h    	; 241,  -15
2D2C F5           defb F5h    	; 245,  -11
2D2D 0F           defb 0Fh    	; 15
2D2E 0F           defb 0Fh    	; 15
2D2F 0F           defb 0Fh    	; 15
2D30 CD           defb CDh    	; 205,  -51
2D31 C2           defb C2h    	; 194,  -62
2D32 2D           defb 2Dh    	; 45, '-'
2D33 47           defb 47h    	; 71, 'G'
2D34 CD           defb CDh    	; 205,  -51
2D35 B7           defb B7h    	; 183,  -73
2D36 2D           defb 2Dh    	; 45, '-'
2D37 F1           defb F1h    	; 241,  -15
2D38 F5           defb F5h    	; 245,  -11
2D39 FE           defb FEh    	; 254,   -2
2D3A 80           defb 80h    	; 128, -128
2D3B 30           defb 30h    	; 48, '0'
2D3C 11           defb 11h    	; 17
2D3D C5           defb C5h    	; 197,  -59
2D3E F5           defb F5h    	; 245,  -11
2D3F E6           defb E6h    	; 230,  -26
2D40 47           defb 47h    	; 71, 'G'
2D41 D6           defb D6h    	; 214,  -42
2D42 46           defb 46h    	; 70, 'F'
2D43 20           defb 20h    	; 32, ' '
2D44 01           defb 01h    	; 1
2D45 4F           defb 4Fh    	; 79, 'O'
2D46 F1           defb F1h    	; 241,  -15
2D47 0F           defb 0Fh    	; 15
2D48 0F           defb 0Fh    	; 15
2D49 0F           defb 0Fh    	; 15
2D4A CD           defb CDh    	; 205,  -51
2D4B 64           defb 64h    	; 100, 'd'
2D4C 2D           defb 2Dh    	; 45, '-'
2D4D C1           defb C1h    	; 193,  -63
2D4E C3           defb C3h    	; 195,  -61
2D4F C7           defb C7h    	; 199,  -57
2D50 2D           defb 2Dh    	; 45, '-'
2D51 FE           defb FEh    	; 254,   -2
2D52 06           defb 06h    	; 6
2D53 D8           defb D8h    	; 216,  -40
2D54 FE           defb FEh    	; 254,   -2
2D55 80           defb 80h    	; 128, -128
2D56 30           defb 30h    	; 48, '0'
2D57 07           defb 07h    	; 7
2D58 EE           defb EEh    	; 238,  -18
2D59 C0           defb C0h    	; 192,  -64
2D5A F5           defb F5h    	; 245,  -11
2D5B 3E           defb 3Eh    	; 62, '>'
2D5C 2C           defb 2Ch    	; 44, ','
2D5D EF           defb EFh    	; 239,  -17
2D5E F1           defb F1h    	; 241,  -15
2D5F FE           defb FEh    	; 254,   -2
2D60 C6           defb C6h    	; 198,  -58
2D61 D2           defb D2h    	; 210,  -46
2D62 EE           defb EEh    	; 238,  -18
2D63 2C           defb 2Ch    	; 44, ','
2D64 E6           defb E6h    	; 230,  -26
2D65 07           defb 07h    	; 7
2D66 CB           defb CBh    	; 203,  -53
2D67 41           defb 41h    	; 65, 'A'
2D68 28           defb 28h    	; 40, '('
2D69 0A           defb 0Ah    	; 10
2D6A FE           defb FEh    	; 254,   -2
2D6B 06           defb 06h    	; 6
2D6C 20           defb 20h    	; 32, ' '
2D6D 06           defb 06h    	; 6
2D6E 08           defb 08h    	; 8
2D6F E7           defb E7h    	; 231,  -25
2D70 32           defb 32h    	; 50, '2'
2D71 5C           defb 5Ch    	; 92, '\'
2D72 40           defb 40h    	; 64, '@'
2D73 08           defb 08h    	; 8
2D74 E6           defb E6h    	; 230,  -26
2D75 07           defb 07h    	; 7
2D76 CB           defb CBh    	; 203,  -53
2D77 41           defb 41h    	; 65, 'A'
2D78 F5           defb F5h    	; 245,  -11
2D79 28           defb 28h    	; 40, '('
2D7A 10           defb 10h    	; 16
2D7B FE           defb FEh    	; 254,   -2
2D7C 04           defb 04h    	; 4
2D7D 38           defb 38h    	; 56, '8'
2D7E 0C           defb 0Ch    	; 12
2D7F FE           defb FEh    	; 254,   -2
2D80 07           defb 07h    	; 7
2D81 28           defb 28h    	; 40, '('
2D82 08           defb 08h    	; 8
2D83 C6           defb C6h    	; 198,  -58
2D84 04           defb 04h    	; 4
2D85 CB           defb CBh    	; 203,  -53
2D86 69           defb 69h    	; 105, 'i'
2D87 28           defb 28h    	; 40, '('
2D88 02           defb 02h    	; 2
2D89 C6           defb C6h    	; 198,  -58
2D8A 03           defb 03h    	; 3
2D8B C6           defb C6h    	; 198,  -58
2D8C D7           defb D7h    	; 215,  -41
2D8D CD           defb CDh    	; 205,  -51
2D8E 69           defb 69h    	; 105, 'i'
2D8F 2C           defb 2Ch    	; 44, ','
2D90 F1           defb F1h    	; 241,  -15
2D91 C8           defb C8h    	; 200,  -56
2D92 FE           defb FEh    	; 254,   -2
2D93 06           defb 06h    	; 6
2D94 C0           defb C0h    	; 192,  -64
2D95 3E           defb 3Eh    	; 62, '>'
2D96 24           defb 24h    	; 36, '$'
2D97 EF           defb EFh    	; 239,  -17
2D98 3A           defb 3Ah    	; 58, ':'
2D99 5C           defb 5Ch    	; 92, '\'
2D9A 40           defb 40h    	; 64, '@'
2D9B CD           defb CDh    	; 205,  -51
2D9C A5           defb A5h    	; 165,  -91
2D9D 01           defb 01h    	; 1
2D9E 3E           defb 3Eh    	; 62, '>'
2D9F 29           defb 29h    	; 41, ')'
2DA0 EF           defb EFh    	; 239,  -17
2DA1 C9           defb C9h    	; 201,  -55
2DA2 FE           defb FEh    	; 254,   -2
2DA3 8A           defb 8Ah    	; 138, -118
2DA4 D2           defb D2h    	; 210,  -46
2DA5 E4           defb E4h    	; 228,  -28
2DA6 2D           defb 2Dh    	; 45, '-'
2DA7 E7           defb E7h    	; 231,  -25
2DA8 17           defb 17h    	; 23
2DA9 ED           defb EDh    	; 237,  -19
2DAA 62           defb 62h    	; 98, 'b'
2DAB 1F           defb 1Fh    	; 31
2DAC 6F           defb 6Fh    	; 111, 'o'
2DAD 19           defb 19h    	; 25
2DAE 3E           defb 3Eh    	; 62, '>'
2DAF 24           defb 24h    	; 36, '$'
2DB0 EF           defb EFh    	; 239,  -17
2DB1 EB           defb EBh    	; 235,  -21
2DB2 CD           defb CDh    	; 205,  -51
2DB3 A0           defb A0h    	; 160,  -96
2DB4 01           defb 01h    	; 1
2DB5 EB           defb EBh    	; 235,  -21
2DB6 C9           defb C9h    	; 201,  -55
2DB7 CD           defb CDh    	; 205,  -51
2DB8 6A           defb 6Ah    	; 106, 'j'
2DB9 2C           defb 2Ch    	; 44, ','
2DBA 3E           defb 3Eh    	; 62, '>'
2DBB 0E           defb 0Eh    	; 14
2DBC EF           defb EFh    	; 239,  -17
2DBD C9           defb C9h    	; 201,  -55
2DBE E7           defb E7h    	; 231,  -25
2DBF C3           defb C3h    	; 195,  -61
2DC0 9B           defb 9Bh    	; 155, -101
2DC1 2D           defb 2Dh    	; 45, '-'
2DC2 E6           defb E6h    	; 230,  -26
2DC3 07           defb 07h    	; 7
2DC4 C6           defb C6h    	; 198,  -58
2DC5 A9           defb A9h    	; 169,  -87
2DC6 C9           defb C9h    	; 201,  -55
2DC7 F1           defb F1h    	; 241,  -15
2DC8 FE           defb FEh    	; 254,   -2
2DC9 74           defb 74h    	; 116, 't'
2DCA 28           defb 28h    	; 40, '('
2DCB 04           defb 04h    	; 4
2DCC FE           defb FEh    	; 254,   -2
2DCD 75           defb 75h    	; 117, 'u'
2DCE 20           defb 20h    	; 32, ' '
2DCF 02           defb 02h    	; 2
2DD0 0E           defb 0Eh    	; 14
2DD1 00           defb 00h    	; 0
2DD2 E6           defb E6h    	; 230,  -26
2DD3 C7           defb C7h    	; 199,  -57
2DD4 C3           defb C3h    	; 195,  -61
2DD5 51           defb 51h    	; 81, 'Q'
2DD6 2D           defb 2Dh    	; 45, '-'
2DD7 DD           defb DDh    	; 221,  -35
2DD8 21           defb 21h    	; 33, '!'
2DD9 A2           defb A2h    	; 162,  -94
2DDA 2D           defb 2Dh    	; 45, '-'
2DDB CD           defb CDh    	; 205,  -51
2DDC 9E           defb 9Eh    	; 158,  -98
2DDD 03           defb 03h    	; 3
2DDE 3E           defb 3Eh    	; 62, '>'
2DDF 20           defb 20h    	; 32, ' '
2DE0 EF           defb EFh    	; 239,  -17
2DE1 C3           defb C3h    	; 195,  -61
2DE2 D9           defb D9h    	; 217,  -39
2DE3 2B           defb 2Bh    	; 43, '+'
2DE4 E7           defb E7h    	; 231,  -25
2DE5 6F           defb 6Fh    	; 111, 'o'
2DE6 E7           defb E7h    	; 231,  -25
2DE7 67           defb 67h    	; 103, 'g'
2DE8 C3           defb C3h    	; 195,  -61
2DE9 AE           defb AEh    	; 174,  -82
2DEA 2D           defb 2Dh    	; 45, '-'
2DEB E7           defb E7h    	; 231,  -25
2DEC FE           defb FEh    	; 254,   -2
2DED 20           defb 20h    	; 32, ' '
2DEE 20           defb 20h    	; 32, ' '
2DEF 08           defb 08h    	; 8
2DF0 E7           defb E7h    	; 231,  -25
2DF1 FE           defb FEh    	; 254,   -2
2DF2 20           defb 20h    	; 32, ' '
2DF3 28           defb 28h    	; 40, '('
2DF4 FB           defb FBh    	; 251,   -5
2DF5 1B           defb 1Bh    	; 27
2DF6 3E           defb 3Eh    	; 62, '>'
2DF7 20           defb 20h    	; 32, ' '
2DF8 23           defb 23h    	; 35, '#'
2DF9 D6           defb D6h    	; 214,  -42
2DFA 20           defb 20h    	; 32, ' '
2DFB 96           defb 96h    	; 150, -106
2DFC 28           defb 28h    	; 40, '('
2DFD ED           defb EDh    	; 237,  -19
2DFE E6           defb E6h    	; 230,  -26
2DFF 3F           defb 3Fh    	; 63, '?'
2E00 C8           defb C8h    	; 200,  -56
2E01 CB           defb CBh    	; 203,  -53
2E02 7E           defb 7Eh    	; 126, '~'
2E03 23           defb 23h    	; 35, '#'
2E04 28           defb 28h    	; 40, '('
2E05 FB           defb FBh    	; 251,   -5
2E06 2B           defb 2Bh    	; 43, '+'
2E07 04           defb 04h    	; 4
2E08 C9           defb C9h    	; 201,  -55
2E09 E5           defb E5h    	; 229,  -27
2E0A C5           defb C5h    	; 197,  -59
2E0B 06           defb 06h    	; 6
2E0C 01           defb 01h    	; 1
2E0D 21           defb 21h    	; 33, '!'
2E0E E1           defb E1h    	; 225,  -31
2E0F 28           defb 28h    	; 40, '('
2E10 18           defb 18h    	; 24
2E11 0B           defb 0Bh    	; 11
2E12 23           defb 23h    	; 35, '#'
2E13 7E           defb 7Eh    	; 126, '~'
2E14 2B           defb 2Bh    	; 43, '+'
2E15 3C           defb 3Ch    	; 60, '<'
2E16 20           defb 20h    	; 32, ' '
2E17 04           defb 04h    	; 4
2E18 2A           defb 2Ah    	; 42, '*'
2E19 3B           defb 3Bh    	; 59, ';'
2E1A 40           defb 40h    	; 64, '@'
2E1B E9           defb E9h    	; 233,  -23
2E1C D1           defb D1h    	; 209,  -47
2E1D D5           defb D5h    	; 213,  -43
2E1E CD           defb CDh    	; 205,  -51
2E1F EB           defb EBh    	; 235,  -21
2E20 2D           defb 2Dh    	; 45, '-'
2E21 28           defb 28h    	; 40, '('
2E22 0B           defb 0Bh    	; 11
2E23 7E           defb 7Eh    	; 126, '~'
2E24 FE           defb FEh    	; 254,   -2
2E25 C0           defb C0h    	; 192,  -64
2E26 30           defb 30h    	; 48, '0'
2E27 EA           defb EAh    	; 234,  -22
2E28 23           defb 23h    	; 35, '#'
2E29 CD           defb CDh    	; 205,  -51
2E2A 01           defb 01h    	; 1
2E2B 2E           defb 2Eh    	; 46, '.'
2E2C 18           defb 18h    	; 24
2E2D F5           defb F5h    	; 245,  -11
2E2E CB           defb CBh    	; 203,  -53
2E2F 7E           defb 7Eh    	; 126, '~'
2E30 20           defb 20h    	; 32, ' '
2E31 0E           defb 0Eh    	; 14
2E32 D5           defb D5h    	; 213,  -43
2E33 CD           defb CDh    	; 205,  -51
2E34 EB           defb EBh    	; 235,  -21
2E35 2D           defb 2Dh    	; 45, '-'
2E36 28           defb 28h    	; 40, '('
2E37 07           defb 07h    	; 7
2E38 D1           defb D1h    	; 209,  -47
2E39 CB           defb CBh    	; 203,  -53
2E3A 76           defb 76h    	; 118, 'v'
2E3B 28           defb 28h    	; 40, '('
2E3C F5           defb F5h    	; 245,  -11
2E3D 18           defb 18h    	; 24
2E3E D3           defb D3h    	; 211,  -45
2E3F E1           defb E1h    	; 225,  -31
2E40 E1           defb E1h    	; 225,  -31
2E41 78           defb 78h    	; 120, 'x'
2E42 C1           defb C1h    	; 193,  -63
2E43 E1           defb E1h    	; 225,  -31
2E44 C9           defb C9h    	; 201,  -55
2E45 CD           defb CDh    	; 205,  -51
2E46 FA           defb FAh    	; 250,   -6
2E47 2F           defb 2Fh    	; 47, '/'
2E48 F5           defb F5h    	; 245,  -11
2E49 C6           defb C6h    	; 198,  -58
2E4A 30           defb 30h    	; 48, '0'
2E4B 4F           defb 4Fh    	; 79, 'O'
2E4C 06           defb 06h    	; 6
2E4D 2B           defb 2Bh    	; 43, '+'
2E4E 0A           defb 0Ah    	; 10
2E4F FE           defb FEh    	; 254,   -2
2E50 40           defb 40h    	; 64, '@'
2E51 06           defb 06h    	; 6
2E52 00           defb 00h    	; 0
2E53 38           defb 38h    	; 56, '8'
2E54 0E           defb 0Eh    	; 14
2E55 FE           defb FEh    	; 254,   -2
2E56 C0           defb C0h    	; 192,  -64
2E57 30           defb 30h    	; 48, '0'
2E58 0A           defb 0Ah    	; 10
2E59 EE           defb EEh    	; 238,  -18
2E5A 40           defb 40h    	; 64, '@'
2E5B 06           defb 06h    	; 6
2E5C DD           defb DDh    	; 221,  -35
2E5D CB           defb CBh    	; 203,  -53
2E5E 41           defb 41h    	; 65, 'A'
2E5F 28           defb 28h    	; 40, '('
2E60 02           defb 02h    	; 2
2E61 06           defb 06h    	; 6
2E62 FD           defb FDh    	; 253,   -3
2E63 4F           defb 4Fh    	; 79, 'O'
2E64 F1           defb F1h    	; 241,  -15
2E65 FE           defb FEh    	; 254,   -2
2E66 33           defb 33h    	; 51, '3'
2E67 30           defb 30h    	; 48, '0'
2E68 0F           defb 0Fh    	; 15
2E69 06           defb 06h    	; 6
2E6A ED           defb EDh    	; 237,  -19
2E6B 79           defb 79h    	; 121, 'y'
2E6C EE           defb EEh    	; 238,  -18
2E6D 40           defb 40h    	; 64, '@'
2E6E 4F           defb 4Fh    	; 79, 'O'
2E6F CB           defb CBh    	; 203,  -53
2E70 40           defb 40h    	; 64, '@'
2E71 28           defb 28h    	; 40, '('
2E72 02           defb 02h    	; 2
2E73 70           defb 70h    	; 112, 'p'
2E74 23           defb 23h    	; 35, '#'
2E75 71           defb 71h    	; 113, 'q'
2E76 23           defb 23h    	; 35, '#'
2E77 C9           defb C9h    	; 201,  -55
2E78 FE           defb FEh    	; 254,   -2
2E79 6A           defb 6Ah    	; 106, 'j'
2E7A 20           defb 20h    	; 32, ' '
2E7B 03           defb 03h    	; 3
2E7C 0E           defb 0Eh    	; 14
2E7D 76           defb 76h    	; 118, 'v'
2E7E 41           defb 41h    	; 65, 'A'
2E7F FE           defb FEh    	; 254,   -2
2E80 84           defb 84h    	; 132, -124
2E81 38           defb 38h    	; 56, '8'
2E82 EC           defb ECh    	; 236,  -20
2E83 FE           defb FEh    	; 254,   -2
2E84 8A           defb 8Ah    	; 138, -118
2E85 30           defb 30h    	; 48, '0'
2E86 18           defb 18h    	; 24
2E87 41           defb 41h    	; 65, 'A'
2E88 CD           defb CDh    	; 205,  -51
2E89 A5           defb A5h    	; 165,  -91
2E8A 2F           defb 2Fh    	; 47, '/'
2E8B 7A           defb 7Ah    	; 122, 'z'
2E8C A7           defb A7h    	; 167,  -89
2E8D 28           defb 28h    	; 40, '('
2E8E 0D           defb 0Dh    	; 13
2E8F 1B           defb 1Bh    	; 27
2E90 37           defb 37h    	; 55, '7'
2E91 EB           defb EBh    	; 235,  -21
2E92 ED           defb EDh    	; 237,  -19
2E93 52           defb 52h    	; 82, 'R'
2E94 EB           defb EBh    	; 235,  -21
2E95 30           defb 30h    	; 48, '0'
2E96 01           defb 01h    	; 1
2E97 14           defb 14h    	; 20
2E98 7A           defb 7Ah    	; 122, 'z'
2E99 A7           defb A7h    	; 167,  -89
2E9A 20           defb 20h    	; 32, ' '
2E9B 49           defb 49h    	; 73, 'I'
2E9C 4B           defb 4Bh    	; 75, 'K'
2E9D 18           defb 18h    	; 24
2E9E D4           defb D4h    	; 212,  -44
2E9F FE           defb FEh    	; 254,   -2
2EA0 A3           defb A3h    	; 163,  -93
2EA1 30           defb 30h    	; 48, '0'
2EA2 20           defb 20h    	; 32, ' '
2EA3 FE           defb FEh    	; 254,   -2
2EA4 9C           defb 9Ch    	; 156, -100
2EA5 38           defb 38h    	; 56, '8'
2EA6 12           defb 12h    	; 18
2EA7 E7           defb E7h    	; 231,  -25
2EA8 1B           defb 1Bh    	; 27
2EA9 FE           defb FEh    	; 254,   -2
2EAA 28           defb 28h    	; 40, '('
2EAB 20           defb 20h    	; 32, ' '
2EAC 0C           defb 0Ch    	; 12
2EAD 79           defb 79h    	; 121, 'y'
2EAE C6           defb C6h    	; 198,  -58
2EAF 09           defb 09h    	; 9
2EB0 FE           defb FEh    	; 254,   -2
2EB1 2A           defb 2Ah    	; 42, '*'
2EB2 28           defb 28h    	; 40, '('
2EB3 04           defb 04h    	; 4
2EB4 C6           defb C6h    	; 198,  -58
2EB5 41           defb 41h    	; 65, 'A'
2EB6 06           defb 06h    	; 6
2EB7 ED           defb EDh    	; 237,  -19
2EB8 4F           defb 4Fh    	; 79, 'O'
2EB9 CD           defb CDh    	; 205,  -51
2EBA A5           defb A5h    	; 165,  -91
2EBB 2F           defb 2Fh    	; 47, '/'
2EBC CD           defb CDh    	; 205,  -51
2EBD 6F           defb 6Fh    	; 111, 'o'
2EBE 2E           defb 2Eh    	; 46, '.'
2EBF 43           defb 43h    	; 67, 'C'
2EC0 4A           defb 4Ah    	; 74, 'J'
2EC1 18           defb 18h    	; 24
2EC2 DA           defb DAh    	; 218,  -38
2EC3 20           defb 20h    	; 32, ' '
2EC4 3A           defb 3Ah    	; 58, ':'
2EC5 CD           defb CDh    	; 205,  -51
2EC6 96           defb 96h    	; 150, -106
2EC7 2F           defb 2Fh    	; 47, '/'
2EC8 C5           defb C5h    	; 197,  -59
2EC9 00           defb 00h    	; 0
2ECA CD           defb CDh    	; 205,  -51
2ECB FA           defb FAh    	; 250,   -6
2ECC 2F           defb 2Fh    	; 47, '/'
2ECD D1           defb D1h    	; 209,  -47
2ECE 06           defb 06h    	; 6
2ECF 00           defb 00h    	; 0
2ED0 0E           defb 0Eh    	; 14
2ED1 22           defb 22h    	; 34, '"'
2ED2 FE           defb FEh    	; 254,   -2
2ED3 D3           defb D3h    	; 211,  -45
2ED4 28           defb 28h    	; 40, '('
2ED5 E6           defb E6h    	; 230,  -26
2ED6 FE           defb FEh    	; 254,   -2
2ED7 E5           defb E5h    	; 229,  -27
2ED8 20           defb 20h    	; 32, ' '
2ED9 04           defb 04h    	; 4
2EDA 0E           defb 0Eh    	; 14
2EDB 32           defb 32h    	; 50, '2'
2EDC 18           defb 18h    	; 24
2EDD DE           defb DEh    	; 222,  -34
2EDE FE           defb FEh    	; 254,   -2
2EDF D1           defb D1h    	; 209,  -47
2EE0 DA           defb DAh    	; 218,  -38
2EE1 18           defb 18h    	; 24
2EE2 2E           defb 2Eh    	; 46, '.'
2EE3 FE           defb FEh    	; 254,   -2
2EE4 D7           defb D7h    	; 215,  -41
2EE5 D2           defb D2h    	; 210,  -46
2EE6 18           defb 18h    	; 24
2EE7 2E           defb 2Eh    	; 46, '.'
2EE8 FE           defb FEh    	; 254,   -2
2EE9 D5           defb D5h    	; 213,  -43
2EEA 38           defb 38h    	; 56, '8'
2EEB 08           defb 08h    	; 8
2EEC 06           defb 06h    	; 6
2EED DD           defb DDh    	; 221,  -35
2EEE 28           defb 28h    	; 40, '('
2EEF 02           defb 02h    	; 2
2EF0 06           defb 06h    	; 6
2EF1 FD           defb FDh    	; 253,   -3
2EF2 18           defb 18h    	; 24
2EF3 C8           defb C8h    	; 200,  -56
2EF4 C6           defb C6h    	; 198,  -58
2EF5 63           defb 63h    	; 99, 'c'
2EF6 0F           defb 0Fh    	; 15
2EF7 0F           defb 0Fh    	; 15
2EF8 0F           defb 0Fh    	; 15
2EF9 0F           defb 0Fh    	; 15
2EFA 06           defb 06h    	; 6
2EFB ED           defb EDh    	; 237,  -19
2EFC 4F           defb 4Fh    	; 79, 'O'
2EFD 18           defb 18h    	; 24
2EFE F3           defb F3h    	; 243,  -13
2EFF 06           defb 06h    	; 6
2F00 00           defb 00h    	; 0
2F01 48           defb 48h    	; 72, 'H'
2F02 FE           defb FEh    	; 254,   -2
2F03 D1           defb D1h    	; 209,  -47
2F04 D2           defb D2h    	; 210,  -46
2F05 18           defb 18h    	; 24
2F06 2E           defb 2Eh    	; 46, '.'
2F07 D6           defb D6h    	; 214,  -42
2F08 B1           defb B1h    	; 177,  -79
2F09 38           defb 38h    	; 56, '8'
2F0A 2A           defb 2Ah    	; 42, '*'
2F0B 07           defb 07h    	; 7
2F0C 07           defb 07h    	; 7
2F0D 07           defb 07h    	; 7
2F0E 4F           defb 4Fh    	; 79, 'O'
2F0F CD           defb CDh    	; 205,  -51
2F10 B9           defb B9h    	; 185,  -71
2F11 2F           defb 2Fh    	; 47, '/'
2F12 FE           defb FEh    	; 254,   -2
2F13 06           defb 06h    	; 6
2F14 28           defb 28h    	; 40, '('
2F15 0A           defb 0Ah    	; 10
2F16 B1           defb B1h    	; 177,  -79
2F17 4F           defb 4Fh    	; 79, 'O'
2F18 13           defb 13h    	; 19
2F19 1A           defb 1Ah    	; 26
2F1A FE           defb FEh    	; 254,   -2
2F1B 28           defb 28h    	; 40, '('
2F1C CC           defb CCh    	; 204,  -52
2F1D B9           defb B9h    	; 185,  -71
2F1E 2F           defb 2Fh    	; 47, '/'
2F1F 97           defb 97h    	; 151, -105
2F20 B1           defb B1h    	; 177,  -79
2F21 4F           defb 4Fh    	; 79, 'O'
2F22 3E           defb 3Eh    	; 62, '>'
2F23 CB           defb CBh    	; 203,  -53
2F24 CB           defb CBh    	; 203,  -53
2F25 40           defb 40h    	; 64, '@'
2F26 28           defb 28h    	; 40, '('
2F27 09           defb 09h    	; 9
2F28 C5           defb C5h    	; 197,  -59
2F29 4F           defb 4Fh    	; 79, 'O'
2F2A CD           defb CDh    	; 205,  -51
2F2B 73           defb 73h    	; 115, 's'
2F2C 2E           defb 2Eh    	; 46, '.'
2F2D C1           defb C1h    	; 193,  -63
2F2E 3A           defb 3Ah    	; 58, ':'
2F2F 5C           defb 5Ch    	; 92, '\'
2F30 40           defb 40h    	; 64, '@'
2F31 47           defb 47h    	; 71, 'G'
2F32 C3           defb C3h    	; 195,  -61
2F33 73           defb 73h    	; 115, 's'
2F34 2E           defb 2Eh    	; 46, '.'
2F35 FE           defb FEh    	; 254,   -2
2F36 F7           defb F7h    	; 247,   -9
2F37 38           defb 38h    	; 56, '8'
2F38 0A           defb 0Ah    	; 10
2F39 20           defb 20h    	; 32, ' '
2F3A 04           defb 04h    	; 4
2F3B 3E           defb 3Eh    	; 62, '>'
2F3C 40           defb 40h    	; 64, '@'
2F3D 18           defb 18h    	; 24
2F3E 13           defb 13h    	; 19
2F3F C6           defb C6h    	; 198,  -58
2F40 18           defb 18h    	; 24
2F41 18           defb 18h    	; 24
2F42 14           defb 14h    	; 20
2F43 FE           defb FEh    	; 254,   -2
2F44 F4           defb F4h    	; 244,  -12
2F45 28           defb 28h    	; 40, '('
2F46 04           defb 04h    	; 4
2F47 30           defb 30h    	; 48, '0'
2F48 07           defb 07h    	; 7
2F49 C6           defb C6h    	; 198,  -58
2F4A 09           defb 09h    	; 9
2F4B C6           defb C6h    	; 198,  -58
2F4C DF           defb DFh    	; 223,  -33
2F4D C3           defb C3h    	; 195,  -61
2F4E 6A           defb 6Ah    	; 106, 'j'
2F4F 2F           defb 2Fh    	; 47, '/'
2F50 D6           defb D6h    	; 214,  -42
2F51 F1           defb F1h    	; 241,  -15
2F52 4F           defb 4Fh    	; 79, 'O'
2F53 CD           defb CDh    	; 205,  -51
2F54 B9           defb B9h    	; 185,  -71
2F55 2F           defb 2Fh    	; 47, '/'
2F56 13           defb 13h    	; 19
2F57 07           defb 07h    	; 7
2F58 07           defb 07h    	; 7
2F59 07           defb 07h    	; 7
2F5A B1           defb B1h    	; 177,  -79
2F5B 4F           defb 4Fh    	; 79, 'O'
2F5C FE           defb FEh    	; 254,   -2
2F5D 40           defb 40h    	; 64, '@'
2F5E 38           defb 38h    	; 56, '8'
2F5F 19           defb 19h    	; 25
2F60 CD           defb CDh    	; 205,  -51
2F61 E9           defb E9h    	; 233,  -23
2F62 03           defb 03h    	; 3
2F63 FE           defb FEh    	; 254,   -2
2F64 24           defb 24h    	; 36, '$'
2F65 20           defb 20h    	; 32, ' '
2F66 0D           defb 0Dh    	; 13
2F67 79           defb 79h    	; 121, 'y'
2F68 EE           defb EEh    	; 238,  -18
2F69 46           defb 46h    	; 70, 'F'
2F6A 4F           defb 4Fh    	; 79, 'O'
2F6B 08           defb 08h    	; 8
2F6C F5           defb F5h    	; 245,  -11
2F6D CD           defb CDh    	; 205,  -51
2F6E A5           defb A5h    	; 165,  -91
2F6F 2F           defb 2Fh    	; 47, '/'
2F70 F1           defb F1h    	; 241,  -15
2F71 3C           defb 3Ch    	; 60, '<'
2F72 18           defb 18h    	; 24
2F73 06           defb 06h    	; 6
2F74 CD           defb CDh    	; 205,  -51
2F75 B9           defb B9h    	; 185,  -71
2F76 2F           defb 2Fh    	; 47, '/'
2F77 B1           defb B1h    	; 177,  -79
2F78 4F           defb 4Fh    	; 79, 'O'
2F79 08           defb 08h    	; 8
2F7A CD           defb CDh    	; 205,  -51
2F7B 6F           defb 6Fh    	; 111, 'o'
2F7C 2E           defb 2Eh    	; 46, '.'
2F7D A7           defb A7h    	; 167,  -89
2F7E C8           defb C8h    	; 200,  -56
2F7F 3D           defb 3Dh    	; 61, '='
2F80 28           defb 28h    	; 40, '('
2F81 07           defb 07h    	; 7
2F82 3D           defb 3Dh    	; 61, '='
2F83 3A           defb 3Ah    	; 58, ':'
2F84 5C           defb 5Ch    	; 92, '\'
2F85 40           defb 40h    	; 64, '@'
2F86 77           defb 77h    	; 119, 'w'
2F87 23           defb 23h    	; 35, '#'
2F88 C8           defb C8h    	; 200,  -56
2F89 73           defb 73h    	; 115, 's'
2F8A 23           defb 23h    	; 35, '#'
2F8B C9           defb C9h    	; 201,  -55
2F8C 1B           defb 1Bh    	; 27
2F8D ED           defb EDh    	; 237,  -19
2F8E 73           defb 73h    	; 115, 's'
2F8F 5A           defb 5Ah    	; 90, 'Z'
2F90 40           defb 40h    	; 64, '@'
2F91 97           defb 97h    	; 151, -105
2F92 08           defb 08h    	; 8
2F93 C3           defb C3h    	; 195,  -61
2F94 45           defb 45h    	; 69, 'E'
2F95 2E           defb 2Eh    	; 46, '.'
2F96 E7           defb E7h    	; 231,  -25
2F97 FE           defb FEh    	; 254,   -2
2F98 30           defb 30h    	; 48, '0'
2F99 38           defb 38h    	; 56, '8'
2F9A FB           defb FBh    	; 251,   -5
2F9B 1B           defb 1Bh    	; 27
2F9C E5           defb E5h    	; 229,  -27
2F9D 47           defb 47h    	; 71, 'G'
2F9E CD           defb CDh    	; 205,  -51
2F9F F8           defb F8h    	; 248,   -8
2FA0 2F           defb 2Fh    	; 47, '/'
2FA1 44           defb 44h    	; 68, 'D'
2FA2 4D           defb 4Dh    	; 77, 'M'
2FA3 E1           defb E1h    	; 225,  -31
2FA4 C9           defb C9h    	; 201,  -55
2FA5 C5           defb C5h    	; 197,  -59
2FA6 CD           defb CDh    	; 205,  -51
2FA7 96           defb 96h    	; 150, -106
2FA8 2F           defb 2Fh    	; 47, '/'
2FA9 50           defb 50h    	; 80, 'P'
2FAA 59           defb 59h    	; 89, 'Y'
2FAB C1           defb C1h    	; 193,  -63
2FAC C9           defb C9h    	; 201,  -55
2FAD C5           defb C5h    	; 197,  -59
2FAE CD           defb CDh    	; 205,  -51
2FAF 96           defb 96h    	; 150, -106
2FB0 2F           defb 2Fh    	; 47, '/'
2FB1 79           defb 79h    	; 121, 'y'
2FB2 C1           defb C1h    	; 193,  -63
2FB3 C9           defb C9h    	; 201,  -55
2FB4 CD           defb CDh    	; 205,  -51
2FB5 F0           defb F0h    	; 240,  -16
2FB6 03           defb 03h    	; 3
2FB7 C1           defb C1h    	; 193,  -63
2FB8 C9           defb C9h    	; 201,  -55
2FB9 CD           defb CDh    	; 205,  -51
2FBA FA           defb FAh    	; 250,   -6
2FBB 2F           defb 2Fh    	; 47, '/'
2FBC D6           defb D6h    	; 214,  -42
2FBD D7           defb D7h    	; 215,  -41
2FBE DA           defb DAh    	; 218,  -38
2FBF 18           defb 18h    	; 24
2FC0 2E           defb 2Eh    	; 46, '.'
2FC1 FE           defb FEh    	; 254,   -2
2FC2 0E           defb 0Eh    	; 14
2FC3 CA           defb CAh    	; 202,  -54
2FC4 18           defb 18h    	; 24
2FC5 2E           defb 2Eh    	; 46, '.'
2FC6 FE           defb FEh    	; 254,   -2
2FC7 08           defb 08h    	; 8
2FC8 D8           defb D8h    	; 216,  -40
2FC9 D6           defb D6h    	; 214,  -42
2FCA 04           defb 04h    	; 4
2FCB 06           defb 06h    	; 6
2FCC DD           defb DDh    	; 221,  -35
2FCD FE           defb FEh    	; 254,   -2
2FCE 07           defb 07h    	; 7
2FCF 38           defb 38h    	; 56, '8'
2FD0 04           defb 04h    	; 4
2FD1 D6           defb D6h    	; 214,  -42
2FD2 03           defb 03h    	; 3
2FD3 06           defb 06h    	; 6
2FD4 FD           defb FDh    	; 253,   -3
2FD5 FE           defb FEh    	; 254,   -2
2FD6 06           defb 06h    	; 6
2FD7 C0           defb C0h    	; 192,  -64
2FD8 CD           defb CDh    	; 205,  -51
2FD9 AD           defb ADh    	; 173,  -83
2FDA 2F           defb 2Fh    	; 47, '/'
2FDB 32           defb 32h    	; 50, '2'
2FDC 5C           defb 5Ch    	; 92, '\'
2FDD 40           defb 40h    	; 64, '@'
2FDE 3E           defb 3Eh    	; 62, '>'
2FDF 02           defb 02h    	; 2
2FE0 08           defb 08h    	; 8
2FE1 3E           defb 3Eh    	; 62, '>'
2FE2 06           defb 06h    	; 6
2FE3 C9           defb C9h    	; 201,  -55
2FE4 00           defb 00h    	; 0
2FE5 00           defb 00h    	; 0
2FE6 00           defb 00h    	; 0
2FE7 40           defb 40h    	; 64, '@'
2FE8 F1           defb F1h    	; 241,  -15
2FE9 F1           defb F1h    	; 241,  -15
2FEA F1           defb F1h    	; 241,  -15
2FEB F1           defb F1h    	; 241,  -15
2FEC 00           defb 00h    	; 0
2FED 00           defb 00h    	; 0
2FEE 00           defb 00h    	; 0
2FEF 3E           defb 3Eh    	; 62, '>'
2FF0 20           defb 20h    	; 32, ' '
2FF1 C9           defb C9h    	; 201,  -55
2FF2 CD           defb CDh    	; 205,  -51
2FF3 77           defb 77h    	; 119, 'w'
2FF4 02           defb 02h    	; 2
2FF5 3E           defb 3Eh    	; 62, '>'
2FF6 0E           defb 0Eh    	; 14
2FF7 C9           defb C9h    	; 201,  -55
2FF8 DD           defb DDh    	; 221,  -35
2FF9 E9           defb E9h    	; 233,  -23
2FFA CD           defb CDh    	; 205,  -51
2FFB E9           defb E9h    	; 233,  -23
2FFC 03           defb 03h    	; 3
2FFD C3           defb C3h    	; 195,  -61
2FFE 09           defb 09h    	; 9
2FFF 2E           defb 2Eh    	; 46, '.'
3000 B7           defb B7h    	; 183,  -73
3001 E5           defb E5h    	; 229,  -27
3002 E1           defb E1h    	; 225,  -31
3003 32           defb 32h    	; 50, '2'
3004 C8           defb C8h    	; 200,  -56
3005 40           defb 40h    	; 64, '@'
3006 3E           defb 3Eh    	; 62, '>'
3007 00           defb 00h    	; 0
3008 32           defb 32h    	; 50, '2'
3009 CC           defb CCh    	; 204,  -52
300A 40           defb 40h    	; 64, '@'
300B 32           defb 32h    	; 50, '2'
300C CD           defb CDh    	; 205,  -51
300D 40           defb 40h    	; 64, '@'
300E 3C           defb 3Ch    	; 60, '<'
300F 32           defb 32h    	; 50, '2'
3010 C0           defb C0h    	; 192,  -64
3011 40           defb 40h    	; 64, '@'
3012 3A           defb 3Ah    	; 58, ':'
3013 C8           defb C8h    	; 200,  -56
3014 40           defb 40h    	; 64, '@'
3015 ED           defb EDh    	; 237,  -19
3016 73           defb 73h    	; 115, 's'
3017 C8           defb C8h    	; 200,  -56
3018 40           defb 40h    	; 64, '@'
3019 31           defb 31h    	; 49, '1'
301A 4C           defb 4Ch    	; 76, 'L'
301B 30           defb 30h    	; 48, '0'
301C ED           defb EDh    	; 237,  -19
301D 73           defb 73h    	; 115, 's'
301E CA           defb CAh    	; 202,  -54
301F 40           defb 40h    	; 64, '@'
3020 ED           defb EDh    	; 237,  -19
3021 7B           defb 7Bh    	; 123, '{'
3022 C8           defb C8h    	; 200,  -56
3023 40           defb 40h    	; 64, '@'
3024 ED           defb EDh    	; 237,  -19
3025 73           defb 73h    	; 115, 's'
3026 BA           defb BAh    	; 186,  -70
3027 40           defb 40h    	; 64, '@'
3028 31           defb 31h    	; 49, '1'
3029 A8           defb A8h    	; 168,  -88
302A 40           defb 40h    	; 64, '@'
302B C5           defb C5h    	; 197,  -59
302C F5           defb F5h    	; 245,  -11
302D 31           defb 31h    	; 49, '1'
302E BA           defb BAh    	; 186,  -70
302F 40           defb 40h    	; 64, '@'
3030 FD           defb FDh    	; 253,   -3
3031 E5           defb E5h    	; 229,  -27
3032 DD           defb DDh    	; 221,  -35
3033 E5           defb E5h    	; 229,  -27
3034 ED           defb EDh    	; 237,  -19
3035 57           defb 57h    	; 87, 'W'
3036 47           defb 47h    	; 71, 'G'
3037 ED           defb EDh    	; 237,  -19
3038 5F           defb 5Fh    	; 95, '_'
3039 4F           defb 4Fh    	; 79, 'O'
303A C5           defb C5h    	; 197,  -59
303B D9           defb D9h    	; 217,  -39
303C E5           defb E5h    	; 229,  -27
303D D5           defb D5h    	; 213,  -43
303E C5           defb C5h    	; 197,  -59
303F 08           defb 08h    	; 8
3040 F5           defb F5h    	; 245,  -11
3041 08           defb 08h    	; 8
3042 D9           defb D9h    	; 217,  -39
3043 E5           defb E5h    	; 229,  -27
3044 D5           defb D5h    	; 213,  -43
3045 31           defb 31h    	; 49, '1'
3046 FE           defb FEh    	; 254,   -2
3047 40           defb 40h    	; 64, '@'
3048 2A           defb 2Ah    	; 42, '*'
3049 CA           defb CAh    	; 202,  -54
304A 40           defb 40h    	; 64, '@'
304B E9           defb E9h    	; 233,  -23
304C 31           defb 31h    	; 49, '1'
304D FE           defb FEh    	; 254,   -2
304E 40           defb 40h    	; 64, '@'
304F 3E           defb 3Eh    	; 62, '>'
3050 0C           defb 0Ch    	; 12
3051 EF           defb EFh    	; 239,  -17
3052 21           defb 21h    	; 33, '!'
3053 02           defb 02h    	; 2
3054 30           defb 30h    	; 48, '0'
3055 22           defb 22h    	; 34, '"'
3056 3F           defb 3Fh    	; 63, '?'
3057 40           defb 40h    	; 64, '@'
3058 11           defb 11h    	; 17
3059 75           defb 75h    	; 117, 'u'
305A 37           defb 37h    	; 55, '7'
305B E7           defb E7h    	; 231,  -25
305C F5           defb F5h    	; 245,  -11
305D E7           defb E7h    	; 231,  -25
305E 47           defb 47h    	; 71, 'G'
305F E7           defb E7h    	; 231,  -25
3060 4F           defb 4Fh    	; 79, 'O'
3061 D3           defb D3h    	; 211,  -45
3062 FF           defb FFh    	; 255,   -1
3063 F1           defb F1h    	; 241,  -15
3064 21           defb 21h    	; 33, '!'
3065 00           defb 00h    	; 0
3066 F8           defb F8h    	; 248,   -8
3067 77           defb 77h    	; 119, 'w'
3068 23           defb 23h    	; 35, '#'
3069 0B           defb 0Bh    	; 11
306A F5           defb F5h    	; 245,  -11
306B 78           defb 78h    	; 120, 'x'
306C B1           defb B1h    	; 177,  -79
306D 28           defb 28h    	; 40, '('
306E 03           defb 03h    	; 3
306F F1           defb F1h    	; 241,  -15
3070 18           defb 18h    	; 24
3071 F5           defb F5h    	; 245,  -11
3072 D3           defb D3h    	; 211,  -45
3073 7F           defb 7Fh    	; 127
3074 F1           defb F1h    	; 241,  -15
3075 E5           defb E5h    	; 229,  -27
3076 CD           defb CDh    	; 205,  -51
3077 E9           defb E9h    	; 233,  -23
3078 31           defb 31h    	; 49, '1'
3079 E7           defb E7h    	; 231,  -25
307A B7           defb B7h    	; 183,  -73
307B 28           defb 28h    	; 40, '('
307C 03           defb 03h    	; 3
307D EF           defb EFh    	; 239,  -17
307E 18           defb 18h    	; 24
307F F9           defb F9h    	; 249,   -7
3080 11           defb 11h    	; 17
3081 A4           defb A4h    	; 164,  -92
3082 40           defb 40h    	; 64, '@'
3083 06           defb 06h    	; 6
3084 04           defb 04h    	; 4
3085 CD           defb CDh    	; 205,  -51
3086 C4           defb C4h    	; 196,  -60
3087 31           defb 31h    	; 49, '1'
3088 10           defb 10h    	; 16
3089 FB           defb FBh    	; 251,   -5
308A 1E           defb 1Eh    	; 30
308B B4           defb B4h    	; 180,  -76
308C 06           defb 06h    	; 6
308D 06           defb 06h    	; 6
308E CD           defb CDh    	; 205,  -51
308F C4           defb C4h    	; 196,  -60
3090 31           defb 31h    	; 49, '1'
3091 10           defb 10h    	; 16
3092 FB           defb FBh    	; 251,   -5
3093 11           defb 11h    	; 17
3094 CC           defb CCh    	; 204,  -52
3095 40           defb 40h    	; 64, '@'
3096 CD           defb CDh    	; 205,  -51
3097 C4           defb C4h    	; 196,  -60
3098 31           defb 31h    	; 49, '1'
3099 3E           defb 3Eh    	; 62, '>'
309A 0D           defb 0Dh    	; 13
309B EF           defb EFh    	; 239,  -17
309C EF           defb EFh    	; 239,  -17
309D EF           defb EFh    	; 239,  -17
309E 11           defb 11h    	; 17
309F AC           defb ACh    	; 172,  -84
30A0 40           defb 40h    	; 64, '@'
30A1 06           defb 06h    	; 6
30A2 04           defb 04h    	; 4
30A3 CD           defb CDh    	; 205,  -51
30A4 C4           defb C4h    	; 196,  -60
30A5 31           defb 31h    	; 49, '1'
30A6 10           defb 10h    	; 16
30A7 FB           defb FBh    	; 251,   -5
30A8 2A           defb 2Ah    	; 42, '*'
30A9 A4           defb A4h    	; 164,  -92
30AA 40           defb 40h    	; 64, '@'
30AB CD           defb CDh    	; 205,  -51
30AC D5           defb D5h    	; 213,  -43
30AD 31           defb 31h    	; 49, '1'
30AE 2A           defb 2Ah    	; 42, '*'
30AF BA           defb BAh    	; 186,  -70
30B0 40           defb 40h    	; 64, '@'
30B1 06           defb 06h    	; 6
30B2 06           defb 06h    	; 6
30B3 7E           defb 7Eh    	; 126, '~'
30B4 CD           defb CDh    	; 205,  -51
30B5 A5           defb A5h    	; 165,  -91
30B6 01           defb 01h    	; 1
30B7 23           defb 23h    	; 35, '#'
30B8 3E           defb 3Eh    	; 62, '>'
30B9 20           defb 20h    	; 32, ' '
30BA EF           defb EFh    	; 239,  -17
30BB 10           defb 10h    	; 16
30BC F6           defb F6h    	; 246,  -10
30BD 3E           defb 3Eh    	; 62, '>'
30BE 20           defb 20h    	; 32, ' '
30BF EF           defb EFh    	; 239,  -17
30C0 21           defb 21h    	; 33, '!'
30C1 C0           defb C0h    	; 192,  -64
30C2 40           defb 40h    	; 64, '@'
30C3 7E           defb 7Eh    	; 126, '~'
30C4 CD           defb CDh    	; 205,  -51
30C5 A5           defb A5h    	; 165,  -91
30C6 01           defb 01h    	; 1
30C7 3E           defb 3Eh    	; 62, '>'
30C8 0D           defb 0Dh    	; 13
30C9 EF           defb EFh    	; 239,  -17
30CA CD           defb CDh    	; 205,  -51
30CB 1F           defb 1Fh    	; 31
30CC 31           defb 31h    	; 49, '1'
30CD CD           defb CDh    	; 205,  -51
30CE F8           defb F8h    	; 248,   -8
30CF 31           defb 31h    	; 49, '1'
30D0 97           defb 97h    	; 151, -105
30D1 EF           defb EFh    	; 239,  -17
30D2 21           defb 21h    	; 33, '!'
30D3 40           defb 40h    	; 64, '@'
30D4 FF           defb FFh    	; 255,   -1
30D5 CD           defb CDh    	; 205,  -51
30D6 E9           defb E9h    	; 233,  -23
30D7 31           defb 31h    	; 49, '1'
30D8 CD           defb CDh    	; 205,  -51
30D9 10           defb 10h    	; 16
30DA 31           defb 31h    	; 49, '1'
30DB 97           defb 97h    	; 151, -105
30DC EF           defb EFh    	; 239,  -17
30DD CD           defb CDh    	; 205,  -51
30DE 23           defb 23h    	; 35, '#'
30DF 04           defb 04h    	; 4
30E0 CD           defb CDh    	; 205,  -51
30E1 43           defb 43h    	; 67, 'C'
30E2 05           defb 05h    	; 5
30E3 CD           defb CDh    	; 205,  -51
30E4 E9           defb E9h    	; 233,  -23
30E5 03           defb 03h    	; 3
30E6 E7           defb E7h    	; 231,  -25
30E7 A7           defb A7h    	; 167,  -89
30E8 20           defb 20h    	; 32, ' '
30E9 04           defb 04h    	; 4
30EA 3E           defb 3Eh    	; 62, '>'
30EB 20           defb 20h    	; 32, ' '
30EC 18           defb 18h    	; 24
30ED EF           defb EFh    	; 239,  -17
30EE 3A           defb 3Ah    	; 58, ':'
30EF 60           defb 60h    	; 96, '`'
30F0 40           defb 40h    	; 64, '@'
30F1 21           defb 21h    	; 33, '!'
30F2 D2           defb D2h    	; 210,  -46
30F3 30           defb 30h    	; 48, '0'
30F4 E5           defb E5h    	; 229,  -27
30F5 D5           defb D5h    	; 213,  -43
30F6 00           defb 00h    	; 0
30F7 21           defb 21h    	; 33, '!'
30F8 29           defb 29h    	; 41, ')'
30F9 37           defb 37h    	; 55, '7'
30FA BE           defb BEh    	; 190,  -66
30FB 28           defb 28h    	; 40, '('
30FC 09           defb 09h    	; 9
30FD CB           defb CBh    	; 203,  -53
30FE 7E           defb 7Eh    	; 126, '~'
30FF 20           defb 20h    	; 32, ' '
3100 0C           defb 0Ch    	; 12
3101 23           defb 23h    	; 35, '#'
3102 23           defb 23h    	; 35, '#'
3103 23           defb 23h    	; 35, '#'
3104 18           defb 18h    	; 24
3105 F4           defb F4h    	; 244,  -12
3106 23           defb 23h    	; 35, '#'
3107 5E           defb 5Eh    	; 94, '^'
3108 23           defb 23h    	; 35, '#'
3109 56           defb 56h    	; 86, 'V'
310A EB           defb EBh    	; 235,  -21
310B D1           defb D1h    	; 209,  -47
310C E9           defb E9h    	; 233,  -23
310D D1           defb D1h    	; 209,  -47
310E E1           defb E1h    	; 225,  -31
310F E9           defb E9h    	; 233,  -23
3110 21           defb 21h    	; 33, '!'
3111 C1           defb C1h    	; 193,  -63
3112 FF           defb FFh    	; 255,   -1
3113 D3           defb D3h    	; 211,  -45
3114 FF           defb FFh    	; 255,   -1
3115 97           defb 97h    	; 151, -105
3116 06           defb 06h    	; 6
3117 3C           defb 3Ch    	; 60, '<'
3118 77           defb 77h    	; 119, 'w'
3119 23           defb 23h    	; 35, '#'
311A 10           defb 10h    	; 16
311B FC           defb FCh    	; 252,   -4
311C D3           defb D3h    	; 211,  -45
311D 7F           defb 7Fh    	; 127
311E C9           defb C9h    	; 201,  -55
311F 21           defb 21h    	; 33, '!'
3120 00           defb 00h    	; 0
3121 FA           defb FAh    	; 250,   -6
3122 97           defb 97h    	; 151, -105
3123 06           defb 06h    	; 6
3124 3C           defb 3Ch    	; 60, '<'
3125 D3           defb D3h    	; 211,  -45
3126 FF           defb FFh    	; 255,   -1
3127 18           defb 18h    	; 24
3128 EF           defb EFh    	; 239,  -17
3129 3A           defb 3Ah    	; 58, ':'
312A 62           defb 62h    	; 98, 'b'
312B 40           defb 40h    	; 64, '@'
312C FE           defb FEh    	; 254,   -2
312D 20           defb 20h    	; 32, ' '
312E CA           defb CAh    	; 202,  -54
312F F9           defb F9h    	; 249,   -7
3130 33           defb 33h    	; 51, '3'
3131 3A           defb 3Ah    	; 58, ':'
3132 61           defb 61h    	; 97, 'a'
3133 40           defb 40h    	; 64, '@'
3134 FE           defb FEh    	; 254,   -2
3135 20           defb 20h    	; 32, ' '
3136 CA           defb CAh    	; 202,  -54
3137 A0           defb A0h    	; 160,  -96
3138 36           defb 36h    	; 54, '6'
3139 21           defb 21h    	; 33, '!'
313A C0           defb C0h    	; 192,  -64
313B FA           defb FAh    	; 250,   -6
313C CD           defb CDh    	; 205,  -51
313D 77           defb 77h    	; 119, 'w'
313E 02           defb 02h    	; 2
313F CD           defb CDh    	; 205,  -51
3140 D4           defb D4h    	; 212,  -44
3141 01           defb 01h    	; 1
3142 E5           defb E5h    	; 229,  -27
3143 D5           defb D5h    	; 213,  -43
3144 CD           defb CDh    	; 205,  -51
3145 AD           defb ADh    	; 173,  -83
3146 31           defb 31h    	; 49, '1'
3147 D1           defb D1h    	; 209,  -47
3148 E1           defb E1h    	; 225,  -31
3149 EB           defb EBh    	; 235,  -21
314A 0E           defb 0Eh    	; 14
314B 3A           defb 3Ah    	; 58, ':'
314C 21           defb 21h    	; 33, '!'
314D 00           defb 00h    	; 0
314E 00           defb 00h    	; 0
314F 06           defb 06h    	; 6
3150 11           defb 11h    	; 17
3151 CD           defb CDh    	; 205,  -51
3152 B6           defb B6h    	; 182,  -74
3153 03           defb 03h    	; 3
3154 7B           defb 7Bh    	; 123, '{'
3155 D6           defb D6h    	; 214,  -42
3156 10           defb 10h    	; 16
3157 5F           defb 5Fh    	; 95, '_'
3158 ED           defb EDh    	; 237,  -19
3159 53           defb 53h    	; 83, 'S'
315A 12           defb 12h    	; 18
315B 40           defb 40h    	; 64, '@'
315C CD           defb CDh    	; 205,  -51
315D 10           defb 10h    	; 16
315E 31           defb 31h    	; 49, '1'
315F C9           defb C9h    	; 201,  -55
3160 3A           defb 3Ah    	; 58, ':'
3161 61           defb 61h    	; 97, 'a'
3162 40           defb 40h    	; 64, '@'
3163 FE           defb FEh    	; 254,   -2
3164 20           defb 20h    	; 32, ' '
3165 CA           defb CAh    	; 202,  -54
3166 0D           defb 0Dh    	; 13
3167 34           defb 34h    	; 52, '4'
3168 21           defb 21h    	; 33, '!'
3169 C0           defb C0h    	; 192,  -64
316A FA           defb FAh    	; 250,   -6
316B CD           defb CDh    	; 205,  -51
316C 77           defb 77h    	; 119, 'w'
316D 02           defb 02h    	; 2
316E CD           defb CDh    	; 205,  -51
316F D4           defb D4h    	; 212,  -44
3170 01           defb 01h    	; 1
3171 EB           defb EBh    	; 235,  -21
3172 21           defb 21h    	; 33, '!'
3173 00           defb 00h    	; 0
3174 01           defb 01h    	; 1
3175 19           defb 19h    	; 25
3176 E5           defb E5h    	; 229,  -27
3177 D5           defb D5h    	; 213,  -43
3178 3E           defb 3Eh    	; 62, '>'
3179 0D           defb 0Dh    	; 13
317A EF           defb EFh    	; 239,  -17
317B 3E           defb 3Eh    	; 62, '>'
317C 20           defb 20h    	; 32, ' '
317D EF           defb EFh    	; 239,  -17
317E CD           defb CDh    	; 205,  -51
317F A0           defb A0h    	; 160,  -96
3180 01           defb 01h    	; 1
3181 E1           defb E1h    	; 225,  -31
3182 E5           defb E5h    	; 229,  -27
3183 06           defb 06h    	; 6
3184 08           defb 08h    	; 8
3185 3E           defb 3Eh    	; 62, '>'
3186 20           defb 20h    	; 32, ' '
3187 EF           defb EFh    	; 239,  -17
3188 56           defb 56h    	; 86, 'V'
3189 23           defb 23h    	; 35, '#'
318A 5E           defb 5Eh    	; 94, '^'
318B 23           defb 23h    	; 35, '#'
318C CD           defb CDh    	; 205,  -51
318D A0           defb A0h    	; 160,  -96
318E 01           defb 01h    	; 1
318F 10           defb 10h    	; 16
3190 F4           defb F4h    	; 244,  -12
3191 3E           defb 3Eh    	; 62, '>'
3192 93           defb 93h    	; 147, -109
3193 06           defb 06h    	; 6
3194 11           defb 11h    	; 17
3195 E1           defb E1h    	; 225,  -31
3196 EF           defb EFh    	; 239,  -17
3197 EF           defb EFh    	; 239,  -17
3198 7E           defb 7Eh    	; 126, '~'
3199 FE           defb FEh    	; 254,   -2
319A 10           defb 10h    	; 16
319B 30           defb 30h    	; 48, '0'
319C 02           defb 02h    	; 2
319D 3E           defb 3Eh    	; 62, '>'
319E 20           defb 20h    	; 32, ' '
319F 23           defb 23h    	; 35, '#'
31A0 10           defb 10h    	; 16
31A1 F5           defb F5h    	; 245,  -11
31A2 2B           defb 2Bh    	; 43, '+'
31A3 D1           defb D1h    	; 209,  -47
31A4 EB           defb EBh    	; 235,  -21
31A5 A7           defb A7h    	; 167,  -89
31A6 ED           defb EDh    	; 237,  -19
31A7 52           defb 52h    	; 82, 'R'
31A8 19           defb 19h    	; 25
31A9 30           defb 30h    	; 48, '0'
31AA CB           defb CBh    	; 203,  -53
31AB 18           defb 18h    	; 24
31AC A7           defb A7h    	; 167,  -89
31AD E5           defb E5h    	; 229,  -27
31AE D5           defb D5h    	; 213,  -43
31AF 21           defb 21h    	; 33, '!'
31B0 C0           defb C0h    	; 192,  -64
31B1 FA           defb FAh    	; 250,   -6
31B2 11           defb 11h    	; 17
31B3 C1           defb C1h    	; 193,  -63
31B4 FA           defb FAh    	; 250,   -6
31B5 01           defb 01h    	; 1
31B6 80           defb 80h    	; 128, -128
31B7 04           defb 04h    	; 4
31B8 97           defb 97h    	; 151, -105
31B9 D3           defb D3h    	; 211,  -45
31BA FF           defb FFh    	; 255,   -1
31BB 77           defb 77h    	; 119, 'w'
31BC ED           defb EDh    	; 237,  -19
31BD B0           defb B0h    	; 176,  -80
31BE D3           defb D3h    	; 211,  -45
31BF 7F           defb 7Fh    	; 127
31C0 D1           defb D1h    	; 209,  -47
31C1 E1           defb E1h    	; 225,  -31
31C2 18           defb 18h    	; 24
31C3 98           defb 98h    	; 152, -104
31C4 13           defb 13h    	; 19
31C5 1A           defb 1Ah    	; 26
31C6 CD           defb CDh    	; 205,  -51
31C7 A5           defb A5h    	; 165,  -91
31C8 01           defb 01h    	; 1
31C9 1B           defb 1Bh    	; 27
31CA 1A           defb 1Ah    	; 26
31CB CD           defb CDh    	; 205,  -51
31CC A5           defb A5h    	; 165,  -91
31CD 01           defb 01h    	; 1
31CE 13           defb 13h    	; 19
31CF 13           defb 13h    	; 19
31D0 3E           defb 3Eh    	; 62, '>'
31D1 20           defb 20h    	; 32, ' '
31D2 EF           defb EFh    	; 239,  -17
31D3 EF           defb EFh    	; 239,  -17
31D4 C9           defb C9h    	; 201,  -55
31D5 26           defb 26h    	; 38, '&'
31D6 00           defb 00h    	; 0
31D7 06           defb 06h    	; 6
31D8 08           defb 08h    	; 8
31D9 3E           defb 3Eh    	; 62, '>'
31DA 30           defb 30h    	; 48, '0'
31DB CB           defb CBh    	; 203,  -53
31DC 15           defb 15h    	; 21
31DD 8C           defb 8Ch    	; 140, -116
31DE EF           defb EFh    	; 239,  -17
31DF 3E           defb 3Eh    	; 62, '>'
31E0 20           defb 20h    	; 32, ' '
31E1 EF           defb EFh    	; 239,  -17
31E2 10           defb 10h    	; 16
31E3 F5           defb F5h    	; 245,  -11
31E4 3E           defb 3Eh    	; 62, '>'
31E5 20           defb 20h    	; 32, ' '
31E6 EF           defb EFh    	; 239,  -17
31E7 EF           defb EFh    	; 239,  -17
31E8 C9           defb C9h    	; 201,  -55
31E9 CD           defb CDh    	; 205,  -51
31EA 77           defb 77h    	; 119, 'w'
31EB 02           defb 02h    	; 2
31EC F5           defb F5h    	; 245,  -11
31ED C5           defb C5h    	; 197,  -59
31EE 3E           defb 3Eh    	; 62, '>'
31EF 92           defb 92h    	; 146, -110
31F0 06           defb 06h    	; 6
31F1 40           defb 40h    	; 64, '@'
31F2 EF           defb EFh    	; 239,  -17
31F3 10           defb 10h    	; 16
31F4 FD           defb FDh    	; 253,   -3
31F5 C1           defb C1h    	; 193,  -63
31F6 F1           defb F1h    	; 241,  -15
31F7 C9           defb C9h    	; 201,  -55
31F8 ED           defb EDh    	; 237,  -19
31F9 5B           defb 5Bh    	; 91, '['
31FA BC           defb BCh    	; 188,  -68
31FB 40           defb 40h    	; 64, '@'
31FC CD           defb CDh    	; 205,  -51
31FD 03           defb 03h    	; 3
31FE 32           defb 32h    	; 50, '2'
31FF CD           defb CDh    	; 205,  -51
3200 1F           defb 1Fh    	; 31
3201 32           defb 32h    	; 50, '2'
3202 C9           defb C9h    	; 201,  -55
3203 DD           defb DDh    	; 221,  -35
3204 21           defb 21h    	; 33, '!'
3205 A2           defb A2h    	; 162,  -94
3206 2D           defb 2Dh    	; 45, '-'
3207 2A           defb 2Ah    	; 42, '*'
3208 04           defb 04h    	; 4
3209 40           defb 40h    	; 64, '@'
320A D5           defb D5h    	; 213,  -43
320B E5           defb E5h    	; 229,  -27
320C 21           defb 21h    	; 33, '!'
320D A6           defb A6h    	; 166,  -90
320E 18           defb 18h    	; 24
320F 22           defb 22h    	; 34, '"'
3210 04           defb 04h    	; 4
3211 40           defb 40h    	; 64, '@'
3212 CD           defb CDh    	; 205,  -51
3213 D9           defb D9h    	; 217,  -39
3214 2B           defb 2Bh    	; 43, '+'
3215 E1           defb E1h    	; 225,  -31
3216 22           defb 22h    	; 34, '"'
3217 04           defb 04h    	; 4
3218 40           defb 40h    	; 64, '@'
3219 E1           defb E1h    	; 225,  -31
321A EB           defb EBh    	; 235,  -21
321B A7           defb A7h    	; 167,  -89
321C ED           defb EDh    	; 237,  -19
321D 52           defb 52h    	; 82, 'R'
321E C9           defb C9h    	; 201,  -55
321F 3E           defb 3Eh    	; 62, '>'
3220 0D           defb 0Dh    	; 13
3221 EF           defb EFh    	; 239,  -17
3222 EE           defb EEh    	; 238,  -18
3223 C9           defb C9h    	; 201,  -55
3224 EF           defb EFh    	; 239,  -17
3225 3E           defb 3Eh    	; 62, '>'
3226 20           defb 20h    	; 32, ' '
3227 EF           defb EFh    	; 239,  -17
3228 D5           defb D5h    	; 213,  -43
3229 E5           defb E5h    	; 229,  -27
322A CD           defb CDh    	; 205,  -51
322B A0           defb A0h    	; 160,  -96
322C 01           defb 01h    	; 1
322D 3E           defb 3Eh    	; 62, '>'
322E 20           defb 20h    	; 32, ' '
322F EF           defb EFh    	; 239,  -17
3230 EF           defb EFh    	; 239,  -17
3231 C1           defb C1h    	; 193,  -63
3232 C5           defb C5h    	; 197,  -59
3233 41           defb 41h    	; 65, 'A'
3234 00           defb 00h    	; 0
3235 1A           defb 1Ah    	; 26
3236 13           defb 13h    	; 19
3237 CD           defb CDh    	; 205,  -51
3238 A5           defb A5h    	; 165,  -91
3239 01           defb 01h    	; 1
323A 10           defb 10h    	; 16
323B F8           defb F8h    	; 248,   -8
323C 97           defb 97h    	; 151, -105
323D EF           defb EFh    	; 239,  -17
323E D1           defb D1h    	; 209,  -47
323F 2A           defb 2Ah    	; 42, '*'
3240 14           defb 14h    	; 20
3241 40           defb 40h    	; 64, '@'
3242 7D           defb 7Dh    	; 125, '}'
3243 E6           defb E6h    	; 230,  -26
3244 C0           defb C0h    	; 192,  -64
3245 C6           defb C6h    	; 198,  -58
3246 14           defb 14h    	; 20
3247 6F           defb 6Fh    	; 111, 'o'
3248 CD           defb CDh    	; 205,  -51
3249 77           defb 77h    	; 119, 'w'
324A 02           defb 02h    	; 2
324B D1           defb D1h    	; 209,  -47
324C C3           defb C3h    	; 195,  -61
324D D9           defb D9h    	; 217,  -39
324E 2B           defb 2Bh    	; 43, '+'
324F 21           defb 21h    	; 33, '!'
3250 80           defb 80h    	; 128, -128
3251 F8           defb F8h    	; 248,   -8
3252 CD           defb CDh    	; 205,  -51
3253 77           defb 77h    	; 119, 'w'
3254 02           defb 02h    	; 2
3255 C3           defb C3h    	; 195,  -61
3256 80           defb 80h    	; 128, -128
3257 30           defb 30h    	; 48, '0'
3258 21           defb 21h    	; 33, '!'
3259 A4           defb A4h    	; 164,  -92
325A 40           defb 40h    	; 64, '@'
325B 97           defb 97h    	; 151, -105
325C 06           defb 06h    	; 6
325D 0C           defb 0Ch    	; 12
325E 77           defb 77h    	; 119, 'w'
325F 23           defb 23h    	; 35, '#'
3260 10           defb 10h    	; 16
3261 FC           defb FCh    	; 252,   -4
3262 2E           defb 2Eh    	; 46, '.'
3263 B0           defb B0h    	; 176,  -80
3264 06           defb 06h    	; 6
3265 0A           defb 0Ah    	; 10
3266 77           defb 77h    	; 119, 'w'
3267 23           defb 23h    	; 35, '#'
3268 10           defb 10h    	; 16
3269 FC           defb FCh    	; 252,   -4
326A 18           defb 18h    	; 24
326B E3           defb E3h    	; 227,  -29
326C CD           defb CDh    	; 205,  -51
326D DC           defb DCh    	; 220,  -36
326E 01           defb 01h    	; 1
326F 1A           defb 1Ah    	; 26
3270 FE           defb FEh    	; 254,   -2
3271 22           defb 22h    	; 34, '"'
3272 CA           defb CAh    	; 202,  -54
3273 9D           defb 9Dh    	; 157,  -99
3274 36           defb 36h    	; 54, '6'
3275 0E           defb 0Eh    	; 14
3276 3A           defb 3Ah    	; 58, ':'
3277 E5           defb E5h    	; 229,  -27
3278 CD           defb CDh    	; 205,  -51
3279 92           defb 92h    	; 146, -110
327A 03           defb 03h    	; 3
327B E1           defb E1h    	; 225,  -31
327C 22           defb 22h    	; 34, '"'
327D 12           defb 12h    	; 18
327E 40           defb 40h    	; 64, '@'
327F C3           defb C3h    	; 195,  -61
3280 29           defb 29h    	; 41, ')'
3281 31           defb 31h    	; 49, '1'
3282 CD           defb CDh    	; 205,  -51
3283 DC           defb DCh    	; 220,  -36
3284 01           defb 01h    	; 1
3285 7D           defb 7Dh    	; 125, '}'
3286 B4           defb B4h    	; 180,  -76
3287 EB           defb EBh    	; 235,  -21
3288 20           defb 20h    	; 32, ' '
3289 04           defb 04h    	; 4
328A ED           defb EDh    	; 237,  -19
328B 5B           defb 5Bh    	; 91, '['
328C BC           defb BCh    	; 188,  -68
328D 40           defb 40h    	; 64, '@'
328E 21           defb 21h    	; 33, '!'
328F C1           defb C1h    	; 193,  -63
3290 40           defb 40h    	; 64, '@'
3291 3E           defb 3Eh    	; 62, '>'
3292 C3           defb C3h    	; 195,  -61
3293 77           defb 77h    	; 119, 'w'
3294 23           defb 23h    	; 35, '#'
3295 73           defb 73h    	; 115, 's'
3296 23           defb 23h    	; 35, '#'
3297 72           defb 72h    	; 114, 'r'
3298 31           defb 31h    	; 49, '1'
3299 AC           defb ACh    	; 172,  -84
329A 40           defb 40h    	; 64, '@'
329B 08           defb 08h    	; 8
329C F1           defb F1h    	; 241,  -15
329D 08           defb 08h    	; 8
329E C1           defb C1h    	; 193,  -63
329F D1           defb D1h    	; 209,  -47
32A0 E1           defb E1h    	; 225,  -31
32A1 D9           defb D9h    	; 217,  -39
32A2 C1           defb C1h    	; 193,  -63
32A3 78           defb 78h    	; 120, 'x'
32A4 ED           defb EDh    	; 237,  -19
32A5 47           defb 47h    	; 71, 'G'
32A6 DD           defb DDh    	; 221,  -35
32A7 E1           defb E1h    	; 225,  -31
32A8 FD           defb FDh    	; 253,   -3
32A9 E1           defb E1h    	; 225,  -31
32AA 31           defb 31h    	; 49, '1'
32AB A4           defb A4h    	; 164,  -92
32AC 40           defb 40h    	; 64, '@'
32AD F1           defb F1h    	; 241,  -15
32AE C1           defb C1h    	; 193,  -63
32AF D1           defb D1h    	; 209,  -47
32B0 E1           defb E1h    	; 225,  -31
32B1 ED           defb EDh    	; 237,  -19
32B2 7B           defb 7Bh    	; 123, '{'
32B3 BA           defb BAh    	; 186,  -70
32B4 40           defb 40h    	; 64, '@'
32B5 C3           defb C3h    	; 195,  -61
32B6 C1           defb C1h    	; 193,  -63
32B7 40           defb 40h    	; 64, '@'
32B8 3A           defb 3Ah    	; 58, ':'
32B9 62           defb 62h    	; 98, 'b'
32BA 40           defb 40h    	; 64, '@'
32BB FE           defb FEh    	; 254,   -2
32BC 20           defb 20h    	; 32, ' '
32BD CA           defb CAh    	; 202,  -54
32BE 03           defb 03h    	; 3
32BF 34           defb 34h    	; 52, '4'
32C0 CD           defb CDh    	; 205,  -51
32C1 19           defb 19h    	; 25
32C2 34           defb 34h    	; 52, '4'
32C3 D5           defb D5h    	; 213,  -43
32C4 21           defb 21h    	; 33, '!'
32C5 BC           defb BCh    	; 188,  -68
32C6 40           defb 40h    	; 64, '@'
32C7 73           defb 73h    	; 115, 's'
32C8 23           defb 23h    	; 35, '#'
32C9 72           defb 72h    	; 114, 'r'
32CA EB           defb EBh    	; 235,  -21
32CB 11           defb 11h    	; 17
32CC C4           defb C4h    	; 196,  -60
32CD 40           defb 40h    	; 64, '@'
32CE 01           defb 01h    	; 1
32CF 03           defb 03h    	; 3
32D0 00           defb 00h    	; 0
32D1 ED           defb EDh    	; 237,  -19
32D2 B0           defb B0h    	; 176,  -80
32D3 E1           defb E1h    	; 225,  -31
32D4 11           defb 11h    	; 17
32D5 E7           defb E7h    	; 231,  -25
32D6 32           defb 32h    	; 50, '2'
32D7 3E           defb 3Eh    	; 62, '>'
32D8 C3           defb C3h    	; 195,  -61
32D9 77           defb 77h    	; 119, 'w'
32DA 23           defb 23h    	; 35, '#'
32DB 73           defb 73h    	; 115, 's'
32DC 23           defb 23h    	; 35, '#'
32DD 72           defb 72h    	; 114, 'r'
32DE CD           defb CDh    	; 205,  -51
32DF AD           defb ADh    	; 173,  -83
32E0 31           defb 31h    	; 49, '1'
32E1 CD           defb CDh    	; 205,  -51
32E2 27           defb 27h    	; 39, '''
32E3 33           defb 33h    	; 51, '3'
32E4 C3           defb C3h    	; 195,  -61
32E5 4F           defb 4Fh    	; 79, 'O'
32E6 32           defb 32h    	; 50, '2'
32E7 32           defb 32h    	; 50, '2'
32E8 BA           defb BAh    	; 186,  -70
32E9 40           defb 40h    	; 64, '@'
32EA 7D           defb 7Dh    	; 125, '}'
32EB 32           defb 32h    	; 50, '2'
32EC C8           defb C8h    	; 200,  -56
32ED 40           defb 40h    	; 64, '@'
32EE 7C           defb 7Ch    	; 124, '|'
32EF 32           defb 32h    	; 50, '2'
32F0 C9           defb C9h    	; 201,  -55
32F1 40           defb 40h    	; 64, '@'
32F2 3A           defb 3Ah    	; 58, ':'
32F3 C4           defb C4h    	; 196,  -60
32F4 40           defb 40h    	; 64, '@'
32F5 2A           defb 2Ah    	; 42, '*'
32F6 BC           defb BCh    	; 188,  -68
32F7 40           defb 40h    	; 64, '@'
32F8 77           defb 77h    	; 119, 'w'
32F9 3A           defb 3Ah    	; 58, ':'
32FA C5           defb C5h    	; 197,  -59
32FB 40           defb 40h    	; 64, '@'
32FC 23           defb 23h    	; 35, '#'
32FD 77           defb 77h    	; 119, 'w'
32FE 3A           defb 3Ah    	; 58, ':'
32FF C6           defb C6h    	; 198,  -58
3300 40           defb 40h    	; 64, '@'
3301 23           defb 23h    	; 35, '#'
3302 77           defb 77h    	; 119, 'w'
3303 2A           defb 2Ah    	; 42, '*'
3304 C8           defb C8h    	; 200,  -56
3305 40           defb 40h    	; 64, '@'
3306 3A           defb 3Ah    	; 58, ':'
3307 BA           defb BAh    	; 186,  -70
3308 40           defb 40h    	; 64, '@'
3309 C3           defb C3h    	; 195,  -61
330A 15           defb 15h    	; 21
330B 30           defb 30h    	; 48, '0'
330C ED           defb EDh    	; 237,  -19
330D 7B           defb 7Bh    	; 123, '{'
330E C8           defb C8h    	; 200,  -56
330F 40           defb 40h    	; 64, '@'
3310 3E           defb 3Eh    	; 62, '>'
3311 0C           defb 0Ch    	; 12
3312 EF           defb EFh    	; 239,  -17
3313 C9           defb C9h    	; 201,  -55
3314 2A           defb 2Ah    	; 42, '*'
3315 C8           defb C8h    	; 200,  -56
3316 40           defb 40h    	; 64, '@'
3317 22           defb 22h    	; 34, '"'
3318 BA           defb BAh    	; 186,  -70
3319 40           defb 40h    	; 64, '@'
331A C3           defb C3h    	; 195,  -61
331B 4F           defb 4Fh    	; 79, 'O'
331C 32           defb 32h    	; 50, '2'
331D D5           defb D5h    	; 213,  -43
331E CD           defb CDh    	; 205,  -51
331F AD           defb ADh    	; 173,  -83
3320 31           defb 31h    	; 49, '1'
3321 D1           defb D1h    	; 209,  -47
3322 1A           defb 1Ah    	; 26
3323 FE           defb FEh    	; 254,   -2
3324 50           defb 50h    	; 80, 'P'
3325 20           defb 20h    	; 32, ' '
3326 0D           defb 0Dh    	; 13
3327 2A           defb 2Ah    	; 42, '*'
3328 BC           defb BCh    	; 188,  -68
3329 40           defb 40h    	; 64, '@'
332A E5           defb E5h    	; 229,  -27
332B 21           defb 21h    	; 33, '!'
332C C0           defb C0h    	; 192,  -64
332D FA           defb FAh    	; 250,   -6
332E CD           defb CDh    	; 205,  -51
332F 77           defb 77h    	; 119, 'w'
3330 02           defb 02h    	; 2
3331 E1           defb E1h    	; 225,  -31
3332 18           defb 18h    	; 24
3333 09           defb 09h    	; 9
3334 21           defb 21h    	; 33, '!'
3335 C0           defb C0h    	; 192,  -64
3336 FA           defb FAh    	; 250,   -6
3337 CD           defb CDh    	; 205,  -51
3338 77           defb 77h    	; 119, 'w'
3339 02           defb 02h    	; 2
333A CD           defb CDh    	; 205,  -51
333B D4           defb D4h    	; 212,  -44
333C 01           defb 01h    	; 1
333D EB           defb EBh    	; 235,  -21
333E 06           defb 06h    	; 6
333F 10           defb 10h    	; 16
3340 C5           defb C5h    	; 197,  -59
3341 CD           defb CDh    	; 205,  -51
3342 FC           defb FCh    	; 252,   -4
3343 31           defb 31h    	; 49, '1'
3344 C1           defb C1h    	; 193,  -63
3345 10           defb 10h    	; 16
3346 F9           defb F9h    	; 249,   -7
3347 97           defb 97h    	; 151, -105
3348 EF           defb EFh    	; 239,  -17
3349 C3           defb C3h    	; 195,  -61
334A 58           defb 58h    	; 88, 'X'
334B 31           defb 31h    	; 49, '1'
334C CD           defb CDh    	; 205,  -51
334D DC           defb DCh    	; 220,  -36
334E 01           defb 01h    	; 1
334F E5           defb E5h    	; 229,  -27
3350 21           defb 21h    	; 33, '!'
3351 C1           defb C1h    	; 193,  -63
3352 40           defb 40h    	; 64, '@'
3353 97           defb 97h    	; 151, -105
3354 E5           defb E5h    	; 229,  -27
3355 4F           defb 4Fh    	; 79, 'O'
3356 E5           defb E5h    	; 229,  -27
3357 CD           defb CDh    	; 205,  -51
3358 F0           defb F0h    	; 240,  -16
3359 03           defb 03h    	; 3
335A E1           defb E1h    	; 225,  -31
335B 20           defb 20h    	; 32, ' '
335C 05           defb 05h    	; 5
335D 77           defb 77h    	; 119, 'w'
335E 23           defb 23h    	; 35, '#'
335F 0C           defb 0Ch    	; 12
3360 18           defb 18h    	; 24
3361 F4           defb F4h    	; 244,  -12
3362 D1           defb D1h    	; 209,  -47
3363 E1           defb E1h    	; 225,  -31
3364 41           defb 41h    	; 65, 'A'
3365 C5           defb C5h    	; 197,  -59
3366 E5           defb E5h    	; 229,  -27
3367 E1           defb E1h    	; 225,  -31
3368 7E           defb 7Eh    	; 126, '~'
3369 23           defb 23h    	; 35, '#'
336A 41           defb 41h    	; 65, 'A'
336B 11           defb 11h    	; 17
336C C1           defb C1h    	; 193,  -63
336D 40           defb 40h    	; 64, '@'
336E E5           defb E5h    	; 229,  -27
336F 1A           defb 1Ah    	; 26
3370 BE           defb BEh    	; 190,  -66
3371 20           defb 20h    	; 32, ' '
3372 F4           defb F4h    	; 244,  -12
3373 13           defb 13h    	; 19
3374 23           defb 23h    	; 35, '#'
3375 10           defb 10h    	; 16
3376 F8           defb F8h    	; 248,   -8
3377 E1           defb E1h    	; 225,  -31
3378 C1           defb C1h    	; 193,  -63
3379 EB           defb EBh    	; 235,  -21
337A 21           defb 21h    	; 33, '!'
337B C0           defb C0h    	; 192,  -64
337C FA           defb FAh    	; 250,   -6
337D CD           defb CDh    	; 205,  -51
337E 77           defb 77h    	; 119, 'w'
337F 02           defb 02h    	; 2
3380 C3           defb C3h    	; 195,  -61
3381 4A           defb 4Ah    	; 74, 'J'
3382 31           defb 31h    	; 49, '1'
3383 CD           defb CDh    	; 205,  -51
3384 DC           defb DCh    	; 220,  -36
3385 01           defb 01h    	; 1
3386 7D           defb 7Dh    	; 125, '}'
3387 21           defb 21h    	; 33, '!'
3388 A4           defb A4h    	; 164,  -92
3389 40           defb 40h    	; 64, '@'
338A 77           defb 77h    	; 119, 'w'
338B C3           defb C3h    	; 195,  -61
338C 4F           defb 4Fh    	; 79, 'O'
338D 32           defb 32h    	; 50, '2'
338E CD           defb CDh    	; 205,  -51
338F DC           defb DCh    	; 220,  -36
3390 01           defb 01h    	; 1
3391 7D           defb 7Dh    	; 125, '}'
3392 21           defb 21h    	; 33, '!'
3393 C0           defb C0h    	; 192,  -64
3394 40           defb 40h    	; 64, '@'
3395 18           defb 18h    	; 24
3396 F3           defb F3h    	; 243,  -13
3397 CD           defb CDh    	; 205,  -51
3398 19           defb 19h    	; 25
3399 34           defb 34h    	; 52, '4'
339A 21           defb 21h    	; 33, '!'
339B CC           defb CCh    	; 204,  -52
339C 40           defb 40h    	; 64, '@'
339D 73           defb 73h    	; 115, 's'
339E 23           defb 23h    	; 35, '#'
339F 72           defb 72h    	; 114, 'r'
33A0 18           defb 18h    	; 24
33A1 E9           defb E9h    	; 233,  -23
33A2 13           defb 13h    	; 19
33A3 13           defb 13h    	; 19
33A4 CD           defb CDh    	; 205,  -51
33A5 DC           defb DCh    	; 220,  -36
33A6 01           defb 01h    	; 1
33A7 3A           defb 3Ah    	; 58, ':'
33A8 61           defb 61h    	; 97, 'a'
33A9 40           defb 40h    	; 64, '@'
33AA FE           defb FEh    	; 254,   -2
33AB 49           defb 49h    	; 73, 'I'
33AC 28           defb 28h    	; 40, '('
33AD 06           defb 06h    	; 6
33AE EB           defb EBh    	; 235,  -21
33AF 21           defb 21h    	; 33, '!'
33B0 BC           defb BCh    	; 188,  -68
33B1 40           defb 40h    	; 64, '@'
33B2 18           defb 18h    	; 24
33B3 E9           defb E9h    	; 233,  -23
33B4 ED           defb EDh    	; 237,  -19
33B5 5B           defb 5Bh    	; 91, '['
33B6 BC           defb BCh    	; 188,  -68
33B7 40           defb 40h    	; 64, '@'
33B8 D5           defb D5h    	; 213,  -43
33B9 CD           defb CDh    	; 205,  -51
33BA 03           defb 03h    	; 3
33BB 32           defb 32h    	; 50, '2'
33BC D1           defb D1h    	; 209,  -47
33BD 19           defb 19h    	; 25
33BE 18           defb 18h    	; 24
33BF EE           defb EEh    	; 238,  -18
33C0 13           defb 13h    	; 19
33C1 13           defb 13h    	; 19
33C2 CD           defb CDh    	; 205,  -51
33C3 19           defb 19h    	; 25
33C4 34           defb 34h    	; 52, '4'
33C5 21           defb 21h    	; 33, '!'
33C6 BE           defb BEh    	; 190,  -66
33C7 40           defb 40h    	; 64, '@'
33C8 18           defb 18h    	; 24
33C9 D3           defb D3h    	; 211,  -45
33CA 3A           defb 3Ah    	; 58, ':'
33CB 61           defb 61h    	; 97, 'a'
33CC 40           defb 40h    	; 64, '@'
33CD FE           defb FEh    	; 254,   -2
33CE 42           defb 42h    	; 66, 'B'
33CF CA           defb CAh    	; 202,  -54
33D0 3C           defb 3Ch    	; 60, '<'
33D1 34           defb 34h    	; 52, '4'
33D2 FE           defb FEh    	; 254,   -2
33D3 20           defb 20h    	; 32, ' '
33D4 CA           defb CAh    	; 202,  -54
33D5 C6           defb C6h    	; 198,  -58
33D6 36           defb 36h    	; 54, '6'
33D7 13           defb 13h    	; 19
33D8 13           defb 13h    	; 19
33D9 CD           defb CDh    	; 205,  -51
33DA 19           defb 19h    	; 25
33DB 34           defb 34h    	; 52, '4'
33DC 21           defb 21h    	; 33, '!'
33DD AA           defb AAh    	; 170,  -86
33DE 40           defb 40h    	; 64, '@'
33DF 18           defb 18h    	; 24
33E0 E7           defb E7h    	; 231,  -25
33E1 3A           defb 3Ah    	; 58, ':'
33E2 61           defb 61h    	; 97, 'a'
33E3 40           defb 40h    	; 64, '@'
33E4 F5           defb F5h    	; 245,  -11
33E5 13           defb 13h    	; 19
33E6 13           defb 13h    	; 19
33E7 CD           defb CDh    	; 205,  -51
33E8 19           defb 19h    	; 25
33E9 34           defb 34h    	; 52, '4'
33EA F1           defb F1h    	; 241,  -15
33EB 26           defb 26h    	; 38, '&'
33EC 40           defb 40h    	; 64, '@'
33ED FE           defb FEh    	; 254,   -2
33EE 58           defb 58h    	; 88, 'X'
33EF 28           defb 28h    	; 40, '('
33F0 04           defb 04h    	; 4
33F1 2E           defb 2Eh    	; 46, '.'
33F2 B8           defb B8h    	; 184,  -72
33F3 18           defb 18h    	; 24
33F4 EA           defb EAh    	; 234,  -22
33F5 2E           defb 2Eh    	; 46, '.'
33F6 B6           defb B6h    	; 182,  -74
33F7 18           defb 18h    	; 24
33F8 E6           defb E6h    	; 230,  -26
33F9 13           defb 13h    	; 19
33FA 13           defb 13h    	; 19
33FB CD           defb CDh    	; 205,  -51
33FC 19           defb 19h    	; 25
33FD 34           defb 34h    	; 52, '4'
33FE 21           defb 21h    	; 33, '!'
33FF A8           defb A8h    	; 168,  -88
3400 40           defb 40h    	; 64, '@'
3401 18           defb 18h    	; 24
3402 DC           defb DCh    	; 220,  -36
3403 13           defb 13h    	; 19
3404 13           defb 13h    	; 19
3405 CD           defb CDh    	; 205,  -51
3406 19           defb 19h    	; 25
3407 34           defb 34h    	; 52, '4'
3408 21           defb 21h    	; 33, '!'
3409 A6           defb A6h    	; 166,  -90
340A 40           defb 40h    	; 64, '@'
340B 18           defb 18h    	; 24
340C F4           defb F4h    	; 244,  -12
340D 13           defb 13h    	; 19
340E CD           defb CDh    	; 205,  -51
340F 19           defb 19h    	; 25
3410 34           defb 34h    	; 52, '4'
3411 21           defb 21h    	; 33, '!'
3412 A5           defb A5h    	; 165,  -91
3413 40           defb 40h    	; 64, '@'
3414 7B           defb 7Bh    	; 123, '{'
3415 77           defb 77h    	; 119, 'w'
3416 C3           defb C3h    	; 195,  -61
3417 4F           defb 4Fh    	; 79, 'O'
3418 32           defb 32h    	; 50, '2'
3419 CD           defb CDh    	; 205,  -51
341A DC           defb DCh    	; 220,  -36
341B 01           defb 01h    	; 1
341C EB           defb EBh    	; 235,  -21
341D C9           defb C9h    	; 201,  -55
341E 21           defb 21h    	; 33, '!'
341F 4C           defb 4Ch    	; 76, 'L'
3420 30           defb 30h    	; 48, '0'
3421 ED           defb EDh    	; 237,  -19
3422 7B           defb 7Bh    	; 123, '{'
3423 C8           defb C8h    	; 200,  -56
3424 40           defb 40h    	; 64, '@'
3425 3E           defb 3Eh    	; 62, '>'
3426 0C           defb 0Ch    	; 12
3427 EF           defb EFh    	; 239,  -17
3428 CD           defb CDh    	; 205,  -51
3429 06           defb 06h    	; 6
342A 28           defb 28h    	; 40, '('
342B C3           defb C3h    	; 195,  -61
342C 4C           defb 4Ch    	; 76, 'L'
342D 30           defb 30h    	; 48, '0'
342E CD           defb CDh    	; 205,  -51
342F 19           defb 19h    	; 25
3430 34           defb 34h    	; 52, '4'
3431 21           defb 21h    	; 33, '!'
3432 BC           defb BCh    	; 188,  -68
3433 40           defb 40h    	; 64, '@'
3434 73           defb 73h    	; 115, 's'
3435 23           defb 23h    	; 35, '#'
3436 72           defb 72h    	; 114, 'r'
3437 3E           defb 3Eh    	; 62, '>'
3438 53           defb 53h    	; 83, 'S'
3439 C3           defb C3h    	; 195,  -61
343A F1           defb F1h    	; 241,  -15
343B 30           defb 30h    	; 48, '0'
343C 13           defb 13h    	; 19
343D 13           defb 13h    	; 19
343E CD           defb CDh    	; 205,  -51
343F DC           defb DCh    	; 220,  -36
3440 01           defb 01h    	; 1
3441 E5           defb E5h    	; 229,  -27
3442 21           defb 21h    	; 33, '!'
3443 00           defb 00h    	; 0
3444 FF           defb FFh    	; 255,   -1
3445 CD           defb CDh    	; 205,  -51
3446 77           defb 77h    	; 119, 'w'
3447 02           defb 02h    	; 2
3448 E1           defb E1h    	; 225,  -31
3449 4D           defb 4Dh    	; 77, 'M'
344A 6C           defb 6Ch    	; 108, 'l'
344B 06           defb 06h    	; 6
344C 02           defb 02h    	; 2
344D C5           defb C5h    	; 197,  -59
344E CD           defb CDh    	; 205,  -51
344F D5           defb D5h    	; 213,  -43
3450 31           defb 31h    	; 49, '1'
3451 C1           defb C1h    	; 193,  -63
3452 69           defb 69h    	; 105, 'i'
3453 97           defb 97h    	; 151, -105
3454 EF           defb EFh    	; 239,  -17
3455 10           defb 10h    	; 16
3456 F6           defb F6h    	; 246,  -10
3457 C9           defb C9h    	; 201,  -55
3458 3A           defb 3Ah    	; 58, ':'
3459 61           defb 61h    	; 97, 'a'
345A 40           defb 40h    	; 64, '@'
345B FE           defb FEh    	; 254,   -2
345C 50           defb 50h    	; 80, 'P'
345D 20           defb 20h    	; 32, ' '
345E 0C           defb 0Ch    	; 12
345F 13           defb 13h    	; 19
3460 13           defb 13h    	; 19
3461 CD           defb CDh    	; 205,  -51
3462 DC           defb DCh    	; 220,  -36
3463 01           defb 01h    	; 1
3464 EB           defb EBh    	; 235,  -21
3465 21           defb 21h    	; 33, '!'
3466 BA           defb BAh    	; 186,  -70
3467 40           defb 40h    	; 64, '@'
3468 C3           defb C3h    	; 195,  -61
3469 9D           defb 9Dh    	; 157,  -99
346A 33           defb 33h    	; 51, '3'
346B CD           defb CDh    	; 205,  -51
346C AD           defb ADh    	; 173,  -83
346D 31           defb 31h    	; 49, '1'
346E ED           defb EDh    	; 237,  -19
346F 5B           defb 5Bh    	; 91, '['
3470 BC           defb BCh    	; 188,  -68
3471 40           defb 40h    	; 64, '@'
3472 CD           defb CDh    	; 205,  -51
3473 03           defb 03h    	; 3
3474 32           defb 32h    	; 50, '2'
3475 E5           defb E5h    	; 229,  -27
3476 D5           defb D5h    	; 213,  -43
3477 3A           defb 3Ah    	; 58, ':'
3478 C0           defb C0h    	; 192,  -64
3479 40           defb 40h    	; 64, '@'
347A E6           defb E6h    	; 230,  -26
347B 01           defb 01h    	; 1
347C 20           defb 20h    	; 32, ' '
347D 09           defb 09h    	; 9
347E E5           defb E5h    	; 229,  -27
347F D5           defb D5h    	; 213,  -43
3480 C5           defb C5h    	; 197,  -59
3481 CD           defb CDh    	; 205,  -51
3482 27           defb 27h    	; 39, '''
3483 33           defb 33h    	; 51, '3'
3484 C1           defb C1h    	; 193,  -63
3485 D1           defb D1h    	; 209,  -47
3486 E1           defb E1h    	; 225,  -31
3487 E1           defb E1h    	; 225,  -31
3488 C1           defb C1h    	; 193,  -63
3489 C5           defb C5h    	; 197,  -59
348A 11           defb 11h    	; 17
348B C1           defb C1h    	; 193,  -63
348C 40           defb 40h    	; 64, '@'
348D ED           defb EDh    	; 237,  -19
348E B0           defb B0h    	; 176,  -80
348F 3E           defb 3Eh    	; 62, '>'
3490 C3           defb C3h    	; 195,  -61
3491 12           defb 12h    	; 18
3492 13           defb 13h    	; 19
3493 E5           defb E5h    	; 229,  -27
3494 21           defb 21h    	; 33, '!'
3495 24           defb 24h    	; 36, '$'
3496 30           defb 30h    	; 48, '0'
3497 7D           defb 7Dh    	; 125, '}'
3498 12           defb 12h    	; 18
3499 13           defb 13h    	; 19
349A 7C           defb 7Ch    	; 124, '|'
349B 12           defb 12h    	; 18
349C E1           defb E1h    	; 225,  -31
349D 3A           defb 3Ah    	; 58, ':'
349E C0           defb C0h    	; 192,  -64
349F 40           defb 40h    	; 64, '@'
34A0 CB           defb CBh    	; 203,  -53
34A1 4F           defb 4Fh    	; 79, 'O'
34A2 21           defb 21h    	; 33, '!'
34A3 EA           defb EAh    	; 234,  -22
34A4 35           defb 35h    	; 53, '5'
34A5 28           defb 28h    	; 40, '('
34A6 0E           defb 0Eh    	; 14
34A7 CB           defb CBh    	; 203,  -53
34A8 57           defb 57h    	; 87, 'W'
34A9 20           defb 20h    	; 32, ' '
34AA 0C           defb 0Ch    	; 12
34AB 21           defb 21h    	; 33, '!'
34AC 6E           defb 6Eh    	; 110, 'n'
34AD 36           defb 36h    	; 54, '6'
34AE CB           defb CBh    	; 203,  -53
34AF 5F           defb 5Fh    	; 95, '_'
34B0 28           defb 28h    	; 40, '('
34B1 03           defb 03h    	; 3
34B2 21           defb 21h    	; 33, '!'
34B3 77           defb 77h    	; 119, 'w'
34B4 36           defb 36h    	; 54, '6'
34B5 18           defb 18h    	; 24
34B6 28           defb 28h    	; 40, '('
34B7 21           defb 21h    	; 33, '!'
34B8 7F           defb 7Fh    	; 127
34B9 36           defb 36h    	; 54, '6'
34BA CB           defb CBh    	; 203,  -53
34BB 5F           defb 5Fh    	; 95, '_'
34BC 28           defb 28h    	; 40, '('
34BD F7           defb F7h    	; 247,   -9
34BE 21           defb 21h    	; 33, '!'
34BF 87           defb 87h    	; 135, -121
34C0 36           defb 36h    	; 54, '6'
34C1 18           defb 18h    	; 24
34C2 F2           defb F2h    	; 242,  -14
34C3 2A           defb 2Ah    	; 42, '*'
34C4 BE           defb BEh    	; 190,  -66
34C5 40           defb 40h    	; 64, '@'
34C6 ED           defb EDh    	; 237,  -19
34C7 5B           defb 5Bh    	; 91, '['
34C8 BC           defb BCh    	; 188,  -68
34C9 40           defb 40h    	; 64, '@'
34CA A7           defb A7h    	; 167,  -89
34CB ED           defb EDh    	; 237,  -19
34CC 52           defb 52h    	; 82, 'R'
34CD 28           defb 28h    	; 40, '('
34CE 02           defb 02h    	; 2
34CF 18           defb 18h    	; 24
34D0 9A           defb 9Ah    	; 154, -102
34D1 2A           defb 2Ah    	; 42, '*'
34D2 CC           defb CCh    	; 204,  -52
34D3 40           defb 40h    	; 64, '@'
34D4 7C           defb 7Ch    	; 124, '|'
34D5 B5           defb B5h    	; 181,  -75
34D6 CA           defb CAh    	; 202,  -54
34D7 4C           defb 4Ch    	; 76, 'L'
34D8 30           defb 30h    	; 48, '0'
34D9 2B           defb 2Bh    	; 43, '+'
34DA 22           defb 22h    	; 34, '"'
34DB CC           defb CCh    	; 204,  -52
34DC 40           defb 40h    	; 64, '@'
34DD 18           defb 18h    	; 24
34DE F0           defb F0h    	; 240,  -16
34DF 22           defb 22h    	; 34, '"'
34E0 CA           defb CAh    	; 202,  -54
34E1 40           defb 40h    	; 64, '@'
34E2 ED           defb EDh    	; 237,  -19
34E3 5B           defb 5Bh    	; 91, '['
34E4 BC           defb BCh    	; 188,  -68
34E5 40           defb 40h    	; 64, '@'
34E6 E1           defb E1h    	; 225,  -31
34E7 19           defb 19h    	; 25
34E8 22           defb 22h    	; 34, '"'
34E9 BC           defb BCh    	; 188,  -68
34EA 40           defb 40h    	; 64, '@'
34EB 21           defb 21h    	; 33, '!'
34EC C0           defb C0h    	; 192,  -64
34ED 40           defb 40h    	; 64, '@'
34EE 1A           defb 1Ah    	; 26
34EF E6           defb E6h    	; 230,  -26
34F0 E7           defb E7h    	; 231,  -25
34F1 FE           defb FEh    	; 254,   -2
34F2 E7           defb E7h    	; 231,  -25
34F3 20           defb 20h    	; 32, ' '
34F4 08           defb 08h    	; 8
34F5 CB           defb CBh    	; 203,  -53
34F6 6E           defb 6Eh    	; 110, 'n'
34F7 C2           defb C2h    	; 194,  -62
34F8 2C           defb 2Ch    	; 44, ','
34F9 36           defb 36h    	; 54, '6'
34FA C3           defb C3h    	; 195,  -61
34FB 9A           defb 9Ah    	; 154, -102
34FC 36           defb 36h    	; 54, '6'
34FD 1A           defb 1Ah    	; 26
34FE E6           defb E6h    	; 230,  -26
34FF C7           defb C7h    	; 199,  -57
3500 FE           defb FEh    	; 254,   -2
3501 C4           defb C4h    	; 196,  -60
3502 20           defb 20h    	; 32, ' '
3503 0D           defb 0Dh    	; 13
3504 CB           defb CBh    	; 203,  -53
3505 66           defb 66h    	; 102, 'f'
3506 28           defb 28h    	; 40, '('
3507 F2           defb F2h    	; 242,  -14
3508 CD           defb CDh    	; 205,  -51
3509 17           defb 17h    	; 23
350A 36           defb 36h    	; 54, '6'
350B CA           defb CAh    	; 202,  -54
350C 61           defb 61h    	; 97, 'a'
350D 36           defb 36h    	; 54, '6'
350E C3           defb C3h    	; 195,  -61
350F 68           defb 68h    	; 104, 'h'
3510 36           defb 36h    	; 54, '6'
3511 FE           defb FEh    	; 254,   -2
3512 C2           defb C2h    	; 194,  -62
3513 20           defb 20h    	; 32, ' '
3514 09           defb 09h    	; 9
3515 CD           defb CDh    	; 205,  -51
3516 17           defb 17h    	; 23
3517 36           defb 36h    	; 54, '6'
3518 CA           defb CAh    	; 202,  -54
3519 3A           defb 3Ah    	; 58, ':'
351A 36           defb 36h    	; 54, '6'
351B C3           defb C3h    	; 195,  -61
351C 49           defb 49h    	; 73, 'I'
351D 36           defb 36h    	; 54, '6'
351E FE           defb FEh    	; 254,   -2
351F C0           defb C0h    	; 192,  -64
3520 20           defb 20h    	; 32, ' '
3521 09           defb 09h    	; 9
3522 CD           defb CDh    	; 205,  -51
3523 17           defb 17h    	; 23
3524 36           defb 36h    	; 54, '6'
3525 CA           defb CAh    	; 202,  -54
3526 4F           defb 4Fh    	; 79, 'O'
3527 36           defb 36h    	; 54, '6'
3528 C3           defb C3h    	; 195,  -61
3529 5B           defb 5Bh    	; 91, '['
352A 36           defb 36h    	; 54, '6'
352B 1A           defb 1Ah    	; 26
352C FE           defb FEh    	; 254,   -2
352D CD           defb CDh    	; 205,  -51
352E CA           defb CAh    	; 202,  -54
352F F0           defb F0h    	; 240,  -16
3530 35           defb 35h    	; 53, '5'
3531 01           defb 01h    	; 1
3532 0D           defb 0Dh    	; 13
3533 00           defb 00h    	; 0
3534 21           defb 21h    	; 33, '!'
3535 05           defb 05h    	; 5
3536 37           defb 37h    	; 55, '7'
3537 ED           defb EDh    	; 237,  -19
3538 B1           defb B1h    	; 177,  -79
3539 C2           defb C2h    	; 194,  -62
353A 9A           defb 9Ah    	; 154, -102
353B 36           defb 36h    	; 54, '6'
353C 11           defb 11h    	; 17
353D 00           defb 00h    	; 0
353E 00           defb 00h    	; 0
353F 41           defb 41h    	; 65, 'A'
3540 13           defb 13h    	; 19
3541 13           defb 13h    	; 19
3542 10           defb 10h    	; 16
3543 FC           defb FCh    	; 252,   -4
3544 21           defb 21h    	; 33, '!'
3545 0F           defb 0Fh    	; 15
3546 37           defb 37h    	; 55, '7'
3547 19           defb 19h    	; 25
3548 7E           defb 7Eh    	; 126, '~'
3549 23           defb 23h    	; 35, '#'
354A 66           defb 66h    	; 102, 'f'
354B 6F           defb 6Fh    	; 111, 'o'
354C E9           defb E9h    	; 233,  -23
354D ED           defb EDh    	; 237,  -19
354E 7B           defb 7Bh    	; 123, '{'
354F BA           defb BAh    	; 186,  -70
3550 40           defb 40h    	; 64, '@'
3551 D1           defb D1h    	; 209,  -47
3552 ED           defb EDh    	; 237,  -19
3553 53           defb 53h    	; 83, 'S'
3554 BC           defb BCh    	; 188,  -68
3555 40           defb 40h    	; 64, '@'
3556 ED           defb EDh    	; 237,  -19
3557 73           defb 73h    	; 115, 's'
3558 BA           defb BAh    	; 186,  -70
3559 40           defb 40h    	; 64, '@'
355A ED           defb EDh    	; 237,  -19
355B 7B           defb 7Bh    	; 123, '{'
355C C8           defb C8h    	; 200,  -56
355D 40           defb 40h    	; 64, '@'
355E C3           defb C3h    	; 195,  -61
355F 45           defb 45h    	; 69, 'E'
3560 30           defb 30h    	; 48, '0'
3561 ED           defb EDh    	; 237,  -19
3562 5B           defb 5Bh    	; 91, '['
3563 C2           defb C2h    	; 194,  -62
3564 40           defb 40h    	; 64, '@'
3565 ED           defb EDh    	; 237,  -19
3566 53           defb 53h    	; 83, 'S'
3567 BC           defb BCh    	; 188,  -68
3568 40           defb 40h    	; 64, '@'
3569 C3           defb C3h    	; 195,  -61
356A 45           defb 45h    	; 69, 'E'
356B 30           defb 30h    	; 48, '0'
356C 2A           defb 2Ah    	; 42, '*'
356D BC           defb BCh    	; 188,  -68
356E 40           defb 40h    	; 64, '@'
356F 3A           defb 3Ah    	; 58, ':'
3570 C2           defb C2h    	; 194,  -62
3571 40           defb 40h    	; 64, '@'
3572 F5           defb F5h    	; 245,  -11
3573 16           defb 16h    	; 22
3574 00           defb 00h    	; 0
3575 E6           defb E6h    	; 230,  -26
3576 80           defb 80h    	; 128, -128
3577 28           defb 28h    	; 40, '('
3578 0D           defb 0Dh    	; 13
3579 F1           defb F1h    	; 241,  -15
357A ED           defb EDh    	; 237,  -19
357B 44           defb 44h    	; 68, 'D'
357C 5F           defb 5Fh    	; 95, '_'
357D A7           defb A7h    	; 167,  -89
357E ED           defb EDh    	; 237,  -19
357F 52           defb 52h    	; 82, 'R'
3580 22           defb 22h    	; 34, '"'
3581 BC           defb BCh    	; 188,  -68
3582 40           defb 40h    	; 64, '@'
3583 C3           defb C3h    	; 195,  -61
3584 45           defb 45h    	; 69, 'E'
3585 30           defb 30h    	; 48, '0'
3586 F1           defb F1h    	; 241,  -15
3587 5F           defb 5Fh    	; 95, '_'
3588 19           defb 19h    	; 25
3589 18           defb 18h    	; 24
358A F5           defb F5h    	; 245,  -11
358B 3E           defb 3Eh    	; 62, '>'
358C 01           defb 01h    	; 1
358D 21           defb 21h    	; 33, '!'
358E A4           defb A4h    	; 164,  -92
358F 40           defb 40h    	; 64, '@'
3590 A6           defb A6h    	; 166,  -90
3591 CA           defb CAh    	; 202,  -54
3592 45           defb 45h    	; 69, 'E'
3593 30           defb 30h    	; 48, '0'
3594 18           defb 18h    	; 24
3595 D6           defb D6h    	; 214,  -42
3596 3E           defb 3Eh    	; 62, '>'
3597 01           defb 01h    	; 1
3598 21           defb 21h    	; 33, '!'
3599 A4           defb A4h    	; 164,  -92
359A 40           defb 40h    	; 64, '@'
359B A6           defb A6h    	; 166,  -90
359C C2           defb C2h    	; 194,  -62
359D 45           defb 45h    	; 69, 'E'
359E 30           defb 30h    	; 48, '0'
359F 18           defb 18h    	; 24
35A0 CB           defb CBh    	; 203,  -53
35A1 3E           defb 3Eh    	; 62, '>'
35A2 40           defb 40h    	; 64, '@'
35A3 18           defb 18h    	; 24
35A4 E8           defb E8h    	; 232,  -24
35A5 3E           defb 3Eh    	; 62, '>'
35A6 40           defb 40h    	; 64, '@'
35A7 18           defb 18h    	; 24
35A8 EF           defb EFh    	; 239,  -17
35A9 ED           defb EDh    	; 237,  -19
35AA 5B           defb 5Bh    	; 91, '['
35AB AA           defb AAh    	; 170,  -86
35AC 40           defb 40h    	; 64, '@'
35AD 18           defb 18h    	; 24
35AE B6           defb B6h    	; 182,  -74
35AF ED           defb EDh    	; 237,  -19
35B0 5B           defb 5Bh    	; 91, '['
35B1 B6           defb B6h    	; 182,  -74
35B2 40           defb 40h    	; 64, '@'
35B3 3A           defb 3Ah    	; 58, ':'
35B4 C2           defb C2h    	; 194,  -62
35B5 40           defb 40h    	; 64, '@'
35B6 FE           defb FEh    	; 254,   -2
35B7 E9           defb E9h    	; 233,  -23
35B8 C2           defb C2h    	; 194,  -62
35B9 98           defb 98h    	; 152, -104
35BA 32           defb 32h    	; 50, '2'
35BB 18           defb 18h    	; 24
35BC A8           defb A8h    	; 168,  -88
35BD ED           defb EDh    	; 237,  -19
35BE 5B           defb 5Bh    	; 91, '['
35BF C8           defb C8h    	; 200,  -56
35C0 40           defb 40h    	; 64, '@'
35C1 18           defb 18h    	; 24
35C2 F0           defb F0h    	; 240,  -16
35C3 21           defb 21h    	; 33, '!'
35C4 A7           defb A7h    	; 167,  -89
35C5 40           defb 40h    	; 64, '@'
35C6 35           defb 35h    	; 53, '5'
35C7 20           defb 20h    	; 32, ' '
35C8 A3           defb A3h    	; 163,  -93
35C9 C3           defb C3h    	; 195,  -61
35CA 45           defb 45h    	; 69, 'E'
35CB 30           defb 30h    	; 48, '0'
35CC 21           defb 21h    	; 33, '!'
35CD C2           defb C2h    	; 194,  -62
35CE 40           defb 40h    	; 64, '@'
35CF 7E           defb 7Eh    	; 126, '~'
35D0 FE           defb FEh    	; 254,   -2
35D1 45           defb 45h    	; 69, 'E'
35D2 28           defb 28h    	; 40, '('
35D3 02           defb 02h    	; 2
35D4 FE           defb FEh    	; 254,   -2
35D5 4D           defb 4Dh    	; 77, 'M'
35D6 C2           defb C2h    	; 194,  -62
35D7 9A           defb 9Ah    	; 154, -102
35D8 36           defb 36h    	; 54, '6'
35D9 2A           defb 2Ah    	; 42, '*'
35DA BA           defb BAh    	; 186,  -70
35DB 40           defb 40h    	; 64, '@'
35DC 56           defb 56h    	; 86, 'V'
35DD 23           defb 23h    	; 35, '#'
35DE 5E           defb 5Eh    	; 94, '^'
35DF 23           defb 23h    	; 35, '#'
35E0 22           defb 22h    	; 34, '"'
35E1 BA           defb BAh    	; 186,  -70
35E2 40           defb 40h    	; 64, '@'
35E3 ED           defb EDh    	; 237,  -19
35E4 53           defb 53h    	; 83, 'S'
35E5 BC           defb BCh    	; 188,  -68
35E6 40           defb 40h    	; 64, '@'
35E7 C3           defb C3h    	; 195,  -61
35E8 43           defb 43h    	; 67, 'C'
35E9 30           defb 30h    	; 48, '0'
35EA 31           defb 31h    	; 49, '1'
35EB FE           defb FEh    	; 254,   -2
35EC 40           defb 40h    	; 64, '@'
35ED C3           defb C3h    	; 195,  -61
35EE 4F           defb 4Fh    	; 79, 'O'
35EF 32           defb 32h    	; 50, '2'
35F0 CB           defb CBh    	; 203,  -53
35F1 66           defb 66h    	; 102, 'f'
35F2 20           defb 20h    	; 32, ' '
35F3 03           defb 03h    	; 3
35F4 C3           defb C3h    	; 195,  -61
35F5 9A           defb 9Ah    	; 154, -102
35F6 36           defb 36h    	; 54, '6'
35F7 ED           defb EDh    	; 237,  -19
35F8 7B           defb 7Bh    	; 123, '{'
35F9 BA           defb BAh    	; 186,  -70
35FA 40           defb 40h    	; 64, '@'
35FB ED           defb EDh    	; 237,  -19
35FC 5B           defb 5Bh    	; 91, '['
35FD BC           defb BCh    	; 188,  -68
35FE 40           defb 40h    	; 64, '@'
35FF D5           defb D5h    	; 213,  -43
3600 ED           defb EDh    	; 237,  -19
3601 73           defb 73h    	; 115, 's'
3602 BA           defb BAh    	; 186,  -70
3603 40           defb 40h    	; 64, '@'
3604 ED           defb EDh    	; 237,  -19
3605 5B           defb 5Bh    	; 91, '['
3606 C2           defb C2h    	; 194,  -62
3607 40           defb 40h    	; 64, '@'
3608 ED           defb EDh    	; 237,  -19
3609 53           defb 53h    	; 83, 'S'
360A BC           defb BCh    	; 188,  -68
360B 40           defb 40h    	; 64, '@'
360C ED           defb EDh    	; 237,  -19
360D 73           defb 73h    	; 115, 's'
360E BA           defb BAh    	; 186,  -70
360F 40           defb 40h    	; 64, '@'
3610 ED           defb EDh    	; 237,  -19
3611 7B           defb 7Bh    	; 123, '{'
3612 C8           defb C8h    	; 200,  -56
3613 40           defb 40h    	; 64, '@'
3614 C3           defb C3h    	; 195,  -61
3615 45           defb 45h    	; 69, 'E'
3616 30           defb 30h    	; 48, '0'
3617 1A           defb 1Ah    	; 26
3618 21           defb 21h    	; 33, '!'
3619 01           defb 01h    	; 1
361A 37           defb 37h    	; 55, '7'
361B E6           defb E6h    	; 230,  -26
361C 30           defb 30h    	; 48, '0'
361D 28           defb 28h    	; 40, '('
361E 05           defb 05h    	; 5
361F 23           defb 23h    	; 35, '#'
3620 D6           defb D6h    	; 214,  -42
3621 10           defb 10h    	; 16
3622 18           defb 18h    	; 24
3623 F9           defb F9h    	; 249,   -7
3624 7E           defb 7Eh    	; 126, '~'
3625 EB           defb EBh    	; 235,  -21
3626 CB           defb CBh    	; 203,  -53
3627 5E           defb 5Eh    	; 94, '^'
3628 21           defb 21h    	; 33, '!'
3629 A4           defb A4h    	; 164,  -92
362A 40           defb 40h    	; 64, '@'
362B C9           defb C9h    	; 201,  -55
362C 3A           defb 3Ah    	; 58, ':'
362D C1           defb C1h    	; 193,  -63
362E 40           defb 40h    	; 64, '@'
362F E6           defb E6h    	; 230,  -26
3630 38           defb 38h    	; 56, '8'
3631 16           defb 16h    	; 22
3632 00           defb 00h    	; 0
3633 5F           defb 5Fh    	; 95, '_'
3634 ED           defb EDh    	; 237,  -19
3635 53           defb 53h    	; 83, 'S'
3636 C2           defb C2h    	; 194,  -62
3637 40           defb 40h    	; 64, '@'
3638 18           defb 18h    	; 24
3639 BD           defb BDh    	; 189,  -67
363A A6           defb A6h    	; 166,  -90
363B C2           defb C2h    	; 194,  -62
363C 45           defb 45h    	; 69, 'E'
363D 30           defb 30h    	; 48, '0'
363E ED           defb EDh    	; 237,  -19
363F 5B           defb 5Bh    	; 91, '['
3640 C2           defb C2h    	; 194,  -62
3641 40           defb 40h    	; 64, '@'
3642 ED           defb EDh    	; 237,  -19
3643 53           defb 53h    	; 83, 'S'
3644 BC           defb BCh    	; 188,  -68
3645 40           defb 40h    	; 64, '@'
3646 C3           defb C3h    	; 195,  -61
3647 45           defb 45h    	; 69, 'E'
3648 30           defb 30h    	; 48, '0'
3649 A6           defb A6h    	; 166,  -90
364A CA           defb CAh    	; 202,  -54
364B 45           defb 45h    	; 69, 'E'
364C 30           defb 30h    	; 48, '0'
364D 18           defb 18h    	; 24
364E EF           defb EFh    	; 239,  -17
364F A6           defb A6h    	; 166,  -90
3650 C2           defb C2h    	; 194,  -62
3651 39           defb 39h    	; 57, '9'
3652 35           defb 35h    	; 53, '5'
3653 ED           defb EDh    	; 237,  -19
3654 7B           defb 7Bh    	; 123, '{'
3655 BA           defb BAh    	; 186,  -70
3656 40           defb 40h    	; 64, '@'
3657 D1           defb D1h    	; 209,  -47
3658 C3           defb C3h    	; 195,  -61
3659 08           defb 08h    	; 8
365A 36           defb 36h    	; 54, '6'
365B A6           defb A6h    	; 166,  -90
365C CA           defb CAh    	; 202,  -54
365D 45           defb 45h    	; 69, 'E'
365E 30           defb 30h    	; 48, '0'
365F 18           defb 18h    	; 24
3660 F2           defb F2h    	; 242,  -14
3661 A6           defb A6h    	; 166,  -90
3662 C2           defb C2h    	; 194,  -62
3663 45           defb 45h    	; 69, 'E'
3664 30           defb 30h    	; 48, '0'
3665 C3           defb C3h    	; 195,  -61
3666 F7           defb F7h    	; 247,   -9
3667 35           defb 35h    	; 53, '5'
3668 A6           defb A6h    	; 166,  -90
3669 CA           defb CAh    	; 202,  -54
366A 45           defb 45h    	; 69, 'E'
366B 30           defb 30h    	; 48, '0'
366C 18           defb 18h    	; 24
366D 89           defb 89h    	; 137, -119
366E CD           defb CDh    	; 205,  -51
366F 8F           defb 8Fh    	; 143, -113
3670 36           defb 36h    	; 54, '6'
3671 CA           defb CAh    	; 202,  -54
3672 4C           defb 4Ch    	; 76, 'L'
3673 30           defb 30h    	; 48, '0'
3674 C3           defb C3h    	; 195,  -61
3675 6B           defb 6Bh    	; 107, 'k'
3676 34           defb 34h    	; 52, '4'
3677 CD           defb CDh    	; 205,  -51
3678 8F           defb 8Fh    	; 143, -113
3679 36           defb 36h    	; 54, '6'
367A FA           defb FAh    	; 250,   -6
367B 4C           defb 4Ch    	; 76, 'L'
367C 30           defb 30h    	; 48, '0'
367D 18           defb 18h    	; 24
367E F5           defb F5h    	; 245,  -11
367F CD           defb CDh    	; 205,  -51
3680 8F           defb 8Fh    	; 143, -113
3681 36           defb 36h    	; 54, '6'
3682 FA           defb FAh    	; 250,   -6
3683 D1           defb D1h    	; 209,  -47
3684 34           defb 34h    	; 52, '4'
3685 18           defb 18h    	; 24
3686 ED           defb EDh    	; 237,  -19
3687 CD           defb CDh    	; 205,  -51
3688 8F           defb 8Fh    	; 143, -113
3689 36           defb 36h    	; 54, '6'
368A CA           defb CAh    	; 202,  -54
368B D1           defb D1h    	; 209,  -47
368C 34           defb 34h    	; 52, '4'
368D 18           defb 18h    	; 24
368E E5           defb E5h    	; 229,  -27
368F 2A           defb 2Ah    	; 42, '*'
3690 BE           defb BEh    	; 190,  -66
3691 40           defb 40h    	; 64, '@'
3692 ED           defb EDh    	; 237,  -19
3693 5B           defb 5Bh    	; 91, '['
3694 BC           defb BCh    	; 188,  -68
3695 40           defb 40h    	; 64, '@'
3696 A7           defb A7h    	; 167,  -89
3697 ED           defb EDh    	; 237,  -19
3698 52           defb 52h    	; 82, 'R'
3699 C9           defb C9h    	; 201,  -55
369A C3           defb C3h    	; 195,  -61
369B 98           defb 98h    	; 152, -104
369C 32           defb 32h    	; 50, '2'
369D C3           defb C3h    	; 195,  -61
369E 01           defb 01h    	; 1
369F 30           defb 30h    	; 48, '0'
36A0 11           defb 11h    	; 17
36A1 62           defb 62h    	; 98, 'b'
36A2 40           defb 40h    	; 64, '@'
36A3 21           defb 21h    	; 33, '!'
36A4 00           defb 00h    	; 0
36A5 00           defb 00h    	; 0
36A6 1A           defb 1Ah    	; 26
36A7 B7           defb B7h    	; 183,  -73
36A8 28           defb 28h    	; 40, '('
36A9 0F           defb 0Fh    	; 15
36AA 29           defb 29h    	; 41, ')'
36AB E5           defb E5h    	; 229,  -27
36AC 29           defb 29h    	; 41, ')'
36AD 29           defb 29h    	; 41, ')'
36AE C1           defb C1h    	; 193,  -63
36AF 09           defb 09h    	; 9
36B0 D6           defb D6h    	; 214,  -42
36B1 30           defb 30h    	; 48, '0'
36B2 4F           defb 4Fh    	; 79, 'O'
36B3 06           defb 06h    	; 6
36B4 00           defb 00h    	; 0
36B5 09           defb 09h    	; 9
36B6 13           defb 13h    	; 19
36B7 18           defb 18h    	; 24
36B8 ED           defb EDh    	; 237,  -19
36B9 EB           defb EBh    	; 235,  -21
36BA 21           defb 21h    	; 33, '!'
36BB 00           defb 00h    	; 0
36BC FF           defb FFh    	; 255,   -1
36BD CD           defb CDh    	; 205,  -51
36BE 77           defb 77h    	; 119, 'w'
36BF 02           defb 02h    	; 2
36C0 CD           defb CDh    	; 205,  -51
36C1 A0           defb A0h    	; 160,  -96
36C2 01           defb 01h    	; 1
36C3 97           defb 97h    	; 151, -105
36C4 EF           defb EFh    	; 239,  -17
36C5 C9           defb C9h    	; 201,  -55
36C6 11           defb 11h    	; 17
36C7 62           defb 62h    	; 98, 'b'
36C8 40           defb 40h    	; 64, '@'
36C9 21           defb 21h    	; 33, '!'
36CA 00           defb 00h    	; 0
36CB FF           defb FFh    	; 255,   -1
36CC CD           defb CDh    	; 205,  -51
36CD 77           defb 77h    	; 119, 'w'
36CE 02           defb 02h    	; 2
36CF CD           defb CDh    	; 205,  -51
36D0 DC           defb DCh    	; 220,  -36
36D1 01           defb 01h    	; 1
36D2 DD           defb DDh    	; 221,  -35
36D3 21           defb 21h    	; 33, '!'
36D4 F7           defb F7h    	; 247,   -9
36D5 36           defb 36h    	; 54, '6'
36D6 AF           defb AFh    	; 175,  -81
36D7 DD           defb DDh    	; 221,  -35
36D8 46           defb 46h    	; 70, 'F'
36D9 01           defb 01h    	; 1
36DA DD           defb DDh    	; 221,  -35
36DB 4E           defb 4Eh    	; 78, 'N'
36DC 00           defb 00h    	; 0
36DD B7           defb B7h    	; 183,  -73
36DE ED           defb EDh    	; 237,  -19
36DF 42           defb 42h    	; 66, 'B'
36E0 38           defb 38h    	; 56, '8'
36E1 03           defb 03h    	; 3
36E2 3C           defb 3Ch    	; 60, '<'
36E3 18           defb 18h    	; 24
36E4 F9           defb F9h    	; 249,   -7
36E5 09           defb 09h    	; 9
36E6 C6           defb C6h    	; 198,  -58
36E7 30           defb 30h    	; 48, '0'
36E8 EF           defb EFh    	; 239,  -17
36E9 79           defb 79h    	; 121, 'y'
36EA FE           defb FEh    	; 254,   -2
36EB 01           defb 01h    	; 1
36EC 28           defb 28h    	; 40, '('
36ED 06           defb 06h    	; 6
36EE DD           defb DDh    	; 221,  -35
36EF 23           defb 23h    	; 35, '#'
36F0 DD           defb DDh    	; 221,  -35
36F1 23           defb 23h    	; 35, '#'
36F2 18           defb 18h    	; 24
36F3 E2           defb E2h    	; 226,  -30
36F4 97           defb 97h    	; 151, -105
36F5 EF           defb EFh    	; 239,  -17
36F6 C9           defb C9h    	; 201,  -55
36F7 10           defb 10h    	; 16
36F8 27           defb 27h    	; 39, '''
36F9 E8           defb E8h    	; 232,  -24
36FA 03           defb 03h    	; 3
36FB 64           defb 64h    	; 100, 'd'
36FC 00           defb 00h    	; 0
36FD 0A           defb 0Ah    	; 10
36FE 00           defb 00h    	; 0
36FF 01           defb 01h    	; 1
3700 00           defb 00h    	; 0
3701 40           defb 40h    	; 64, '@'
3702 01           defb 01h    	; 1
3703 04           defb 04h    	; 4
3704 80           defb 80h    	; 128, -128
3705 ED           defb EDh    	; 237,  -19
3706 10           defb 10h    	; 16
3707 FD           defb FDh    	; 253,   -3
3708 DD           defb DDh    	; 221,  -35
3709 E9           defb E9h    	; 233,  -23
370A 20           defb 20h    	; 32, ' '
370B 28           defb 28h    	; 40, '('
370C 30           defb 30h    	; 48, '0'
370D 38           defb 38h    	; 56, '8'
370E 18           defb 18h    	; 24
370F C3           defb C3h    	; 195,  -61
3710 C9           defb C9h    	; 201,  -55
3711 4D           defb 4Dh    	; 77, 'M'
3712 35           defb 35h    	; 53, '5'
3713 61           defb 61h    	; 97, 'a'
3714 35           defb 35h    	; 53, '5'
3715 6C           defb 6Ch    	; 108, 'l'
3716 35           defb 35h    	; 53, '5'
3717 8B           defb 8Bh    	; 139, -117
3718 35           defb 35h    	; 53, '5'
3719 96           defb 96h    	; 150, -106
371A 35           defb 35h    	; 53, '5'
371B A1           defb A1h    	; 161,  -95
371C 35           defb 35h    	; 53, '5'
371D A5           defb A5h    	; 165,  -91
371E 35           defb 35h    	; 53, '5'
371F A9           defb A9h    	; 169,  -87
3720 35           defb 35h    	; 53, '5'
3721 AF           defb AFh    	; 175,  -81
3722 35           defb 35h    	; 53, '5'
3723 BD           defb BDh    	; 189,  -67
3724 35           defb 35h    	; 53, '5'
3725 C3           defb C3h    	; 195,  -61
3726 35           defb 35h    	; 53, '5'
3727 CC           defb CCh    	; 204,  -52
3728 35           defb 35h    	; 53, '5'
3729 44           defb 44h    	; 68, 'D'
372A 29           defb 29h    	; 41, ')'
372B 31           defb 31h    	; 49, '1'
372C 5B           defb 5Bh    	; 91, '['
372D 60           defb 60h    	; 96, '`'
372E 3A           defb 3Ah    	; 58, ':'
372F 5F           defb 5Fh    	; 95, '_'
3730 10           defb 10h    	; 16
3731 38           defb 38h    	; 56, '8'
3732 51           defb 51h    	; 81, 'Q'
3733 4C           defb 4Ch    	; 76, 'L'
3734 30           defb 30h    	; 48, '0'
3735 53           defb 53h    	; 83, 'S'
3736 58           defb 58h    	; 88, 'X'
3737 34           defb 34h    	; 52, '4'
3738 57           defb 57h    	; 87, 'W'
3739 14           defb 14h    	; 20
373A 33           defb 33h    	; 51, '3'
373B 56           defb 56h    	; 86, 'V'
373C C0           defb C0h    	; 192,  -64
373D 33           defb 33h    	; 51, '3'
373E 45           defb 45h    	; 69, 'E'
373F 00           defb 00h    	; 0
3740 43           defb 43h    	; 67, 'C'
3741 46           defb 46h    	; 70, 'F'
3742 83           defb 83h    	; 131, -125
3743 33           defb 33h    	; 51, '3'
3744 49           defb 49h    	; 73, 'I'
3745 E1           defb E1h    	; 225,  -31
3746 33           defb 33h    	; 51, '3'
3747 4A           defb 4Ah    	; 74, 'J'
3748 8E           defb 8Eh    	; 142, -114
3749 33           defb 33h    	; 51, '3'
374A 48           defb 48h    	; 72, 'H'
374B CA           defb CAh    	; 202,  -54
374C 33           defb 33h    	; 51, '3'
374D 59           defb 59h    	; 89, 'Y'
374E 97           defb 97h    	; 151, -105
374F 33           defb 33h    	; 51, '3'
3750 50           defb 50h    	; 80, 'P'
3751 A2           defb A2h    	; 162,  -94
3752 33           defb 33h    	; 51, '3'
3753 4D           defb 4Dh    	; 77, 'M'
3754 1E           defb 1Eh    	; 30
3755 34           defb 34h    	; 52, '4'
3756 41           defb 41h    	; 65, 'A'
3757 60           defb 60h    	; 96, '`'
3758 31           defb 31h    	; 49, '1'
3759 4B           defb 4Bh    	; 75, 'K'
375A AD           defb ADh    	; 173,  -83
375B 31           defb 31h    	; 49, '1'
375C 4E           defb 4Eh    	; 78, 'N'
375D 58           defb 58h    	; 88, 'X'
375E 32           defb 32h    	; 50, '2'
375F 3A           defb 3Ah    	; 58, ':'
3760 6C           defb 6Ch    	; 108, 'l'
3761 32           defb 32h    	; 50, '2'
3762 47           defb 47h    	; 71, 'G'
3763 82           defb 82h    	; 130, -126
3764 32           defb 32h    	; 50, '2'
3765 42           defb 42h    	; 66, 'B'
3766 B8           defb B8h    	; 184,  -72
3767 32           defb 32h    	; 50, '2'
3768 52           defb 52h    	; 82, 'R'
3769 0C           defb 0Ch    	; 12
376A 33           defb 33h    	; 51, '3'
376B 54           defb 54h    	; 84, 'T'
376C 1D           defb 1Dh    	; 29
376D 33           defb 33h    	; 51, '3'
376E 4C           defb 4Ch    	; 76, 'L'
376F 4C           defb 4Ch    	; 76, 'L'
3770 33           defb 33h    	; 51, '3'
3771 C4           defb C4h    	; 196,  -60
3772 2E           defb 2Eh    	; 46, '.'
3773 34           defb 34h    	; 52, '4'
3774 FF           defb FFh    	; 255,   -1
3775 00           defb 00h    	; 0
3776 02           defb 02h    	; 2
3777 80           defb 80h    	; 128, -128
3778 0F           defb 0Fh    	; 15
3779 2D           defb 2Dh    	; 45, '-'
377A 41           defb 41h    	; 65, 'A'
377B 46           defb 46h    	; 70, 'F'
377C 2D           defb 2Dh    	; 45, '-'
377D 20           defb 20h    	; 32, ' '
377E 20           defb 20h    	; 32, ' '
377F 2D           defb 2Dh    	; 45, '-'
3780 42           defb 42h    	; 66, 'B'
3781 43           defb 43h    	; 67, 'C'
3782 2D           defb 2Dh    	; 45, '-'
3783 20           defb 20h    	; 32, ' '
3784 20           defb 20h    	; 32, ' '
3785 2D           defb 2Dh    	; 45, '-'
3786 44           defb 44h    	; 68, 'D'
3787 45           defb 45h    	; 69, 'E'
3788 2D           defb 2Dh    	; 45, '-'
3789 20           defb 20h    	; 32, ' '
378A 20           defb 20h    	; 32, ' '
378B 2D           defb 2Dh    	; 45, '-'
378C 48           defb 48h    	; 72, 'H'
378D 4C           defb 4Ch    	; 76, 'L'
378E 2D           defb 2Dh    	; 45, '-'
378F 20           defb 20h    	; 32, ' '
3790 20           defb 20h    	; 32, ' '
3791 2D           defb 2Dh    	; 45, '-'
3792 49           defb 49h    	; 73, 'I'
3793 52           defb 52h    	; 82, 'R'
3794 2D           defb 2Dh    	; 45, '-'
3795 20           defb 20h    	; 32, ' '
3796 20           defb 20h    	; 32, ' '
3797 2D           defb 2Dh    	; 45, '-'
3798 49           defb 49h    	; 73, 'I'
3799 58           defb 58h    	; 88, 'X'
379A 2D           defb 2Dh    	; 45, '-'
379B 20           defb 20h    	; 32, ' '
379C 20           defb 20h    	; 32, ' '
379D 2D           defb 2Dh    	; 45, '-'
379E 49           defb 49h    	; 73, 'I'
379F 59           defb 59h    	; 89, 'Y'
37A0 2D           defb 2Dh    	; 45, '-'
37A1 20           defb 20h    	; 32, ' '
37A2 20           defb 20h    	; 32, ' '
37A3 2D           defb 2Dh    	; 45, '-'
37A4 53           defb 53h    	; 83, 'S'
37A5 50           defb 50h    	; 80, 'P'
37A6 2D           defb 2Dh    	; 45, '-'
37A7 20           defb 20h    	; 32, ' '
37A8 20           defb 20h    	; 32, ' '
37A9 2D           defb 2Dh    	; 45, '-'
37AA 50           defb 50h    	; 80, 'P'
37AB 43           defb 43h    	; 67, 'C'
37AC 2D           defb 2Dh    	; 45, '-'
37AD 20           defb 20h    	; 32, ' '
37AE 20           defb 20h    	; 32, ' '
37AF 2D           defb 2Dh    	; 45, '-'
37B0 56           defb 56h    	; 86, 'V'
37B1 43           defb 43h    	; 67, 'C'
37B2 2D           defb 2Dh    	; 45, '-'
37B3 20           defb 20h    	; 32, ' '
37B4 20           defb 20h    	; 32, ' '
37B5 2D           defb 2Dh    	; 45, '-'
37B6 59           defb 59h    	; 89, 'Y'
37B7 50           defb 50h    	; 80, 'P'
37B8 2D           defb 2Dh    	; 45, '-'
37B9 0D           defb 0Dh    	; 13
37BA 0D           defb 0Dh    	; 13
37BB 0D           defb 0Dh    	; 13
37BC 2D           defb 2Dh    	; 45, '-'
37BD 61           defb 61h    	; 97, 'a'
37BE 66           defb 66h    	; 102, 'f'
37BF 2D           defb 2Dh    	; 45, '-'
37C0 20           defb 20h    	; 32, ' '
37C1 20           defb 20h    	; 32, ' '
37C2 2D           defb 2Dh    	; 45, '-'
37C3 62           defb 62h    	; 98, 'b'
37C4 63           defb 63h    	; 99, 'c'
37C5 2D           defb 2Dh    	; 45, '-'
37C6 20           defb 20h    	; 32, ' '
37C7 20           defb 20h    	; 32, ' '
37C8 2D           defb 2Dh    	; 45, '-'
37C9 64           defb 64h    	; 100, 'd'
37CA 65           defb 65h    	; 101, 'e'
37CB 2D           defb 2Dh    	; 45, '-'
37CC 20           defb 20h    	; 32, ' '
37CD 20           defb 20h    	; 32, ' '
37CE 2D           defb 2Dh    	; 45, '-'
37CF 68           defb 68h    	; 104, 'h'
37D0 6C           defb 6Ch    	; 108, 'l'
37D1 2D           defb 2Dh    	; 45, '-'
37D2 20           defb 20h    	; 32, ' '
37D3 20           defb 20h    	; 32, ' '
37D4 53           defb 53h    	; 83, 'S'
37D5 20           defb 20h    	; 32, ' '
37D6 5A           defb 5Ah    	; 90, 'Z'
37D7 20           defb 20h    	; 32, ' '
37D8 3A           defb 3Ah    	; 58, ':'
37D9 20           defb 20h    	; 32, ' '
37DA 48           defb 48h    	; 72, 'H'
37DB 20           defb 20h    	; 32, ' '
37DC 3A           defb 3Ah    	; 58, ':'
37DD 20           defb 20h    	; 32, ' '
37DE 50           defb 50h    	; 80, 'P'
37DF 20           defb 20h    	; 32, ' '
37E0 4E           defb 4Eh    	; 78, 'N'
37E1 20           defb 20h    	; 32, ' '
37E2 43           defb 43h    	; 67, 'C'
37E3 20           defb 20h    	; 32, ' '
37E4 20           defb 20h    	; 32, ' '
37E5 20           defb 20h    	; 32, ' '
37E6 28           defb 28h    	; 40, '('
37E7 53           defb 53h    	; 83, 'S'
37E8 50           defb 50h    	; 80, 'P'
37E9 29           defb 29h    	; 41, ')'
37EA 20           defb 20h    	; 32, ' '
37EB 20           defb 20h    	; 32, ' '
37EC 20           defb 20h    	; 32, ' '
37ED 20           defb 20h    	; 32, ' '
37EE 20           defb 20h    	; 32, ' '
37EF 20           defb 20h    	; 32, ' '
37F0 20           defb 20h    	; 32, ' '
37F1 20           defb 20h    	; 32, ' '
37F2 20           defb 20h    	; 32, ' '
37F3 20           defb 20h    	; 32, ' '
37F4 20           defb 20h    	; 32, ' '
37F5 20           defb 20h    	; 32, ' '
37F6 20           defb 20h    	; 32, ' '
37F7 20           defb 20h    	; 32, ' '
37F8 2D           defb 2Dh    	; 45, '-'
37F9 4A           defb 4Ah    	; 74, 'J'
37FA 50           defb 50h    	; 80, 'P'
37FB 2D           defb 2Dh    	; 45, '-'
37FC 0D           defb 0Dh    	; 13
37FD 0F           defb 0Fh    	; 15
37FE 08           defb 08h    	; 8
37FF 08           defb 08h    	; 8
3800 00           defb 00h    	; 0
3801 00           defb 00h    	; 0
3802 00           defb 00h    	; 0
3803 00           defb 00h    	; 0
3804 00           defb 00h    	; 0
3805 CD           defb CDh    	; 205,  -51
3806 04           defb 04h    	; 4
3807 04           defb 04h    	; 4
3808 CD           defb CDh    	; 205,  -51
3809 23           defb 23h    	; 35, '#'
380A 04           defb 04h    	; 4
380B C9           defb C9h    	; 201,  -55
380C FF           defb FFh    	; 255,   -1
380D FF           defb FFh    	; 255,   -1
380E FF           defb FFh    	; 255,   -1
380F FF           defb FFh    	; 255,   -1
3810 21           defb 21h    	; 33, '!'
3811 00           defb 00h    	; 0
3812 D0           defb D0h    	; 208,  -48
3813 11           defb 11h    	; 17
3814 00           defb 00h    	; 0
3815 43           defb 43h    	; 67, 'C'
3816 01           defb 01h    	; 1
3817 00           defb 00h    	; 0
3818 10           defb 10h    	; 16
3819 D3           defb D3h    	; 211,  -45
381A FF           defb FFh    	; 255,   -1
381B ED           defb EDh    	; 237,  -19
381C B0           defb B0h    	; 176,  -80
381D D3           defb D3h    	; 211,  -45
381E 7F           defb 7Fh    	; 127
381F 21           defb 21h    	; 33, '!'
3820 2D           defb 2Dh    	; 45, '-'
3821 38           defb 38h    	; 56, '8'
3822 11           defb 11h    	; 17
3823 00           defb 00h    	; 0
3824 53           defb 53h    	; 83, 'S'
3825 01           defb 01h    	; 1
3826 30           defb 30h    	; 48, '0'
3827 02           defb 02h    	; 2
3828 ED           defb EDh    	; 237,  -19
3829 B0           defb B0h    	; 176,  -80
382A C3           defb C3h    	; 195,  -61
382B 00           defb 00h    	; 0
382C 43           defb 43h    	; 67, 'C'
382D C0           defb C0h    	; 192,  -64
382E 78           defb 78h    	; 120, 'x'
382F E6           defb E6h    	; 230,  -26
3830 F8           defb F8h    	; 248,   -8
3831 B5           defb B5h    	; 181,  -75
3832 C3           defb C3h    	; 195,  -61
3833 6B           defb 6Bh    	; 107, 'k'
3834 4E           defb 4Eh    	; 78, 'N'
3835 CD           defb CDh    	; 205,  -51
3836 42           defb 42h    	; 66, 'B'
3837 4E           defb 4Eh    	; 78, 'N'
3838 20           defb 20h    	; 32, ' '
3839 04           defb 04h    	; 4
383A 3E           defb 3Eh    	; 62, '>'
383B 07           defb 07h    	; 7
383C 95           defb 95h    	; 149, -107
383D D8           defb D8h    	; 216,  -40
383E 7D           defb 7Dh    	; 125, '}'
383F 07           defb 07h    	; 7
3840 07           defb 07h    	; 7
3841 07           defb 07h    	; 7
3842 B0           defb B0h    	; 176,  -80
3843 47           defb 47h    	; 71, 'G'
3844 CD           defb CDh    	; 205,  -51
3845 C7           defb C7h    	; 199,  -57
3846 4E           defb 4Eh    	; 78, 'N'
3847 FE           defb FEh    	; 254,   -2
3848 0A           defb 0Ah    	; 10
3849 20           defb 20h    	; 32, ' '
384A 0C           defb 0Ch    	; 12
384B E5           defb E5h    	; 229,  -27
384C 6C           defb 6Ch    	; 108, 'l'
384D 26           defb 26h    	; 38, '&'
384E CB           defb CBh    	; 203,  -53
384F CD           defb CDh    	; 205,  -51
3850 63           defb 63h    	; 99, 'c'
3851 4E           defb 4Eh    	; 78, 'N'
3852 E1           defb E1h    	; 225,  -31
3853 60           defb 60h    	; 96, '`'
3854 C3           defb C3h    	; 195,  -61
3855 63           defb 63h    	; 99, 'c'
3856 4E           defb 4Eh    	; 78, 'N'
3857 F5           defb F5h    	; 245,  -11
3858 3E           defb 3Eh    	; 62, '>'
3859 CB           defb CBh    	; 203,  -53
385A CD           defb CDh    	; 205,  -51
385B 6B           defb 6Bh    	; 107, 'k'
385C 4E           defb 4Eh    	; 78, 'N'
385D F1           defb F1h    	; 241,  -15
385E 18           defb 18h    	; 24
385F C7           defb C7h    	; 199,  -57
3860 03           defb 03h    	; 3
3861 07           defb 07h    	; 7
3862 04           defb 04h    	; 4
3863 00           defb 00h    	; 0
3864 8D           defb 8Dh    	; 141, -115
3865 93           defb 93h    	; 147, -109
3866 19           defb 19h    	; 25
3867 DB           defb DBh    	; 219,  -37
3868 40           defb 40h    	; 64, '@'
3869 00           defb 00h    	; 0
386A 03           defb 03h    	; 3
386B 70           defb 70h    	; 112, 'p'
386C 40           defb 40h    	; 64, '@'
386D 00           defb 00h    	; 0
386E 03           defb 03h    	; 3
386F 09           defb 09h    	; 9
3870 0F           defb 0Fh    	; 15
3871 D3           defb D3h    	; 211,  -45
3872 41           defb 41h    	; 65, 'A'
3873 00           defb 00h    	; 0
3874 CB           defb CBh    	; 203,  -53
3875 53           defb 53h    	; 83, 'S'
3876 28           defb 28h    	; 40, '('
3877 0A           defb 0Ah    	; 10
3878 C3           defb C3h    	; 195,  -61
3879 E9           defb E9h    	; 233,  -23
387A 52           defb 52h    	; 82, 'R'
387B CD           defb CDh    	; 205,  -51
387C 5F           defb 5Fh    	; 95, '_'
387D 4E           defb 4Eh    	; 78, 'N'
387E 2D           defb 2Dh    	; 45, '-'
387F CA           defb CAh    	; 202,  -54
3880 54           defb 54h    	; 84, 'T'
3881 4E           defb 4Eh    	; 78, 'N'
3882 C3           defb C3h    	; 195,  -61
3883 4E           defb 4Eh    	; 78, 'N'
3884 4E           defb 4Eh    	; 78, 'N'
3885 04           defb 04h    	; 4
3886 11           defb 11h    	; 17
3887 51           defb 51h    	; 81, 'Q'
3888 52           defb 52h    	; 82, 'R'
3889 00           defb 00h    	; 0
388A 04           defb 04h    	; 4
388B 11           defb 11h    	; 17
388C 93           defb 93h    	; 147, -109
388D 0D           defb 0Dh    	; 13
388E EB           defb EBh    	; 235,  -21
388F E3           defb E3h    	; 227,  -29
3890 E3           defb E3h    	; 227,  -29
3891 00           defb 00h    	; 0
3892 FE           defb FEh    	; 254,   -2
3893 24           defb 24h    	; 36, '$'
3894 CA           defb CAh    	; 202,  -54
3895 6A           defb 6Ah    	; 106, 'j'
3896 4E           defb 4Eh    	; 78, 'N'
3897 06           defb 06h    	; 6
3898 08           defb 08h    	; 8
3899 FE           defb FEh    	; 254,   -2
389A EE           defb EEh    	; 238,  -18
389B CA           defb CAh    	; 202,  -54
389C 6A           defb 6Ah    	; 106, 'j'
389D 4E           defb 4Eh    	; 78, 'N'
389E 18           defb 18h    	; 24
389F E2           defb E2h    	; 226,  -30
38A0 C3           defb C3h    	; 195,  -61
38A1 B6           defb B6h    	; 182,  -74
38A2 51           defb 51h    	; 81, 'Q'
38A3 C3           defb C3h    	; 195,  -61
38A4 DE           defb DEh    	; 222,  -34
38A5 51           defb 51h    	; 81, 'Q'
38A6 C3           defb C3h    	; 195,  -61
38A7 18           defb 18h    	; 24
38A8 09           defb 09h    	; 9
38A9 4E           defb 4Eh    	; 78, 'N'
38AA C3           defb C3h    	; 195,  -61
38AB 10           defb 10h    	; 16
38AC 09           defb 09h    	; 9
38AD DA           defb DAh    	; 218,  -38
38AE 08           defb 08h    	; 8
38AF 09           defb 09h    	; 9
38B0 4E           defb 4Eh    	; 78, 'N'
38B1 DA           defb DAh    	; 218,  -38
38B2 00           defb 00h    	; 0
38B3 09           defb 09h    	; 9
38B4 D0           defb D0h    	; 208,  -48
38B5 30           defb 30h    	; 48, '0'
38B6 09           defb 09h    	; 9
38B7 CD           defb CDh    	; 205,  -51
38B8 38           defb 38h    	; 56, '8'
38B9 09           defb 09h    	; 9
38BA 50           defb 50h    	; 80, 'P'
38BB CF           defb CFh    	; 207,  -49
38BC 20           defb 20h    	; 32, ' '
38BD 09           defb 09h    	; 9
38BE 50           defb 50h    	; 80, 'P'
38BF C5           defb C5h    	; 197,  -59
38C0 28           defb 28h    	; 40, '('
38C1 09           defb 09h    	; 9
38C2 48           defb 48h    	; 72, 'H'
38C3 CC           defb CCh    	; 204,  -52
38C4 04           defb 04h    	; 4
38C5 01           defb 01h    	; 1
38C6 44           defb 44h    	; 68, 'D'
38C7 C5           defb C5h    	; 197,  -59
38C8 02           defb 02h    	; 2
38C9 01           defb 01h    	; 1
38CA 42           defb 42h    	; 66, 'B'
38CB C3           defb C3h    	; 195,  -61
38CC 00           defb 00h    	; 0
38CD 01           defb 01h    	; 1
38CE 41           defb 41h    	; 65, 'A'
38CF C6           defb C6h    	; 198,  -58
38D0 0E           defb 0Eh    	; 14
38D1 01           defb 01h    	; 1
38D2 53           defb 53h    	; 83, 'S'
38D3 D0           defb D0h    	; 208,  -48
38D4 06           defb 06h    	; 6
38D5 01           defb 01h    	; 1
38D6 C1           defb C1h    	; 193,  -63
38D7 07           defb 07h    	; 7
38D8 00           defb 00h    	; 0
38D9 C2           defb C2h    	; 194,  -62
38DA 00           defb 00h    	; 0
38DB 00           defb 00h    	; 0
38DC C3           defb C3h    	; 195,  -61
38DD 01           defb 01h    	; 1
38DE 00           defb 00h    	; 0
38DF C4           defb C4h    	; 196,  -60
38E0 02           defb 02h    	; 2
38E1 00           defb 00h    	; 0
38E2 C5           defb C5h    	; 197,  -59
38E3 03           defb 03h    	; 3
38E4 00           defb 00h    	; 0
38E5 C8           defb C8h    	; 200,  -56
38E6 04           defb 04h    	; 4
38E7 00           defb 00h    	; 0
38E8 CC           defb CCh    	; 204,  -52
38E9 05           defb 05h    	; 5
38EA 00           defb 00h    	; 0
38EB C9           defb C9h    	; 201,  -55
38EC 00           defb 00h    	; 0
38ED 08           defb 08h    	; 8
38EE D2           defb D2h    	; 210,  -46
38EF 08           defb 08h    	; 8
38F0 08           defb 08h    	; 8
38F1 49           defb 49h    	; 73, 'I'
38F2 D9           defb D9h    	; 217,  -39
38F3 FD           defb FDh    	; 253,   -3
38F4 02           defb 02h    	; 2
38F5 49           defb 49h    	; 73, 'I'
38F6 D8           defb D8h    	; 216,  -40
38F7 DD           defb DDh    	; 221,  -35
38F8 02           defb 02h    	; 2
38F9 FF           defb FFh    	; 255,   -1
38FA CC           defb CCh    	; 204,  -52
38FB 22           defb 22h    	; 34, '"'
38FC 54           defb 54h    	; 84, 'T'
38FD C3           defb C3h    	; 195,  -61
38FE 3D           defb 3Dh    	; 61, '='
38FF 54           defb 54h    	; 84, 'T'
3900 C4           defb C4h    	; 196,  -60
3901 60           defb 60h    	; 96, '`'
3902 54           defb 54h    	; 84, 'T'
3903 C9           defb C9h    	; 201,  -55
3904 7A           defb 7Ah    	; 122, 'z'
3905 54           defb 54h    	; 84, 'T'
3906 D3           defb D3h    	; 211,  -45
3907 97           defb 97h    	; 151, -105
3908 54           defb 54h    	; 84, 'T'
3909 CF           defb CFh    	; 207,  -49
390A B4           defb B4h    	; 180,  -76
390B 54           defb 54h    	; 84, 'T'
390C C5           defb C5h    	; 197,  -59
390D D4           defb D4h    	; 212,  -44
390E 54           defb 54h    	; 84, 'T'
390F D2           defb D2h    	; 210,  -46
3910 E7           defb E7h    	; 231,  -25
3911 54           defb 54h    	; 84, 'T'
3912 FF           defb FFh    	; 255,   -1
3913 4A           defb 4Ah    	; 74, 'J'
3914 D0           defb D0h    	; 208,  -48
3915 AC           defb ACh    	; 172,  -84
3916 00           defb 00h    	; 0
3917 4A           defb 4Ah    	; 74, 'J'
3918 D2           defb D2h    	; 210,  -46
3919 8C           defb 8Ch    	; 140, -116
391A 18           defb 18h    	; 24
391B 50           defb 50h    	; 80, 'P'
391C 55           defb 55h    	; 85, 'U'
391D 53           defb 53h    	; 83, 'S'
391E C8           defb C8h    	; 200,  -56
391F 0A           defb 0Ah    	; 10
3920 C5           defb C5h    	; 197,  -59
3921 50           defb 50h    	; 80, 'P'
3922 4F           defb 4Fh    	; 79, 'O'
3923 D0           defb D0h    	; 208,  -48
3924 0A           defb 0Ah    	; 10
3925 C1           defb C1h    	; 193,  -63
3926 41           defb 41h    	; 65, 'A'
3927 44           defb 44h    	; 68, 'D'
3928 C4           defb C4h    	; 196,  -60
3929 32           defb 32h    	; 50, '2'
392A 00           defb 00h    	; 0
392B 41           defb 41h    	; 65, 'A'
392C 44           defb 44h    	; 68, 'D'
392D C3           defb C3h    	; 195,  -61
392E 34           defb 34h    	; 52, '4'
392F 00           defb 00h    	; 0
3930 42           defb 42h    	; 66, 'B'
3931 49           defb 49h    	; 73, 'I'
3932 D4           defb D4h    	; 212,  -44
3933 16           defb 16h    	; 22
3934 46           defb 46h    	; 70, 'F'
3935 58           defb 58h    	; 88, 'X'
3936 4F           defb 4Fh    	; 79, 'O'
3937 D2           defb D2h    	; 210,  -46
3938 12           defb 12h    	; 18
3939 AE           defb AEh    	; 174,  -82
393A 41           defb 41h    	; 65, 'A'
393B 4E           defb 4Eh    	; 78, 'N'
393C C4           defb C4h    	; 196,  -60
393D 12           defb 12h    	; 18
393E A6           defb A6h    	; 166,  -90
393F 4E           defb 4Eh    	; 78, 'N'
3940 4F           defb 4Fh    	; 79, 'O'
3941 D0           defb D0h    	; 208,  -48
3942 00           defb 00h    	; 0
3943 00           defb 00h    	; 0
3944 4E           defb 4Eh    	; 78, 'N'
3945 45           defb 45h    	; 69, 'E'
3946 C7           defb C7h    	; 199,  -57
3947 02           defb 02h    	; 2
3948 44           defb 44h    	; 68, 'D'
3949 48           defb 48h    	; 72, 'H'
394A 41           defb 41h    	; 65, 'A'
394B 4C           defb 4Ch    	; 76, 'L'
394C D4           defb D4h    	; 212,  -44
394D 00           defb 00h    	; 0
394E 76           defb 76h    	; 118, 'v'
394F FF           defb FFh    	; 255,   -1
3950 C4           defb C4h    	; 196,  -60
3951 28           defb 28h    	; 40, '('
3952 00           defb 00h    	; 0
3953 4F           defb 4Fh    	; 79, 'O'
3954 41           defb 41h    	; 65, 'A'
3955 C4           defb C4h    	; 196,  -60
3956 26           defb 26h    	; 38, '&'
3957 00           defb 00h    	; 0
3958 44           defb 44h    	; 68, 'D'
3959 C9           defb C9h    	; 201,  -55
395A 02           defb 02h    	; 2
395B A0           defb A0h    	; 160,  -96
395C 44           defb 44h    	; 68, 'D'
395D 49           defb 49h    	; 73, 'I'
395E D2           defb D2h    	; 210,  -46
395F 02           defb 02h    	; 2
3960 B0           defb B0h    	; 176,  -80
3961 44           defb 44h    	; 68, 'D'
3962 C4           defb C4h    	; 196,  -60
3963 02           defb 02h    	; 2
3964 A8           defb A8h    	; 168,  -88
3965 44           defb 44h    	; 68, 'D'
3966 44           defb 44h    	; 68, 'D'
3967 D2           defb D2h    	; 210,  -46
3968 02           defb 02h    	; 2
3969 B8           defb B8h    	; 184,  -72
396A FF           defb FFh    	; 255,   -1
396B 41           defb 41h    	; 65, 'A'
396C 4C           defb 4Ch    	; 76, 'L'
396D CC           defb CCh    	; 204,  -52
396E AA           defb AAh    	; 170,  -86
396F 00           defb 00h    	; 0
3970 D0           defb D0h    	; 208,  -48
3971 12           defb 12h    	; 18
3972 BE           defb BEh    	; 190,  -66
3973 43           defb 43h    	; 67, 'C'
3974 C6           defb C6h    	; 198,  -58
3975 00           defb 00h    	; 0
3976 3F           defb 3Fh    	; 63, '?'
3977 50           defb 50h    	; 80, 'P'
3978 CC           defb CCh    	; 204,  -52
3979 00           defb 00h    	; 0
397A 2F           defb 2Fh    	; 47, '/'
397B 50           defb 50h    	; 80, 'P'
397C C9           defb C9h    	; 201,  -55
397D 02           defb 02h    	; 2
397E A1           defb A1h    	; 161,  -95
397F 50           defb 50h    	; 80, 'P'
3980 49           defb 49h    	; 73, 'I'
3981 D2           defb D2h    	; 210,  -46
3982 02           defb 02h    	; 2
3983 B1           defb B1h    	; 177,  -79
3984 50           defb 50h    	; 80, 'P'
3985 C4           defb C4h    	; 196,  -60
3986 02           defb 02h    	; 2
3987 A9           defb A9h    	; 169,  -87
3988 50           defb 50h    	; 80, 'P'
3989 44           defb 44h    	; 68, 'D'
398A D2           defb D2h    	; 210,  -46
398B 02           defb 02h    	; 2
398C B9           defb B9h    	; 185,  -71
398D FF           defb FFh    	; 255,   -1
398E 45           defb 45h    	; 69, 'E'
398F C3           defb C3h    	; 195,  -61
3990 10           defb 10h    	; 16
3991 0B           defb 0Bh    	; 11
3992 4A           defb 4Ah    	; 74, 'J'
3993 4E           defb 4Eh    	; 78, 'N'
3994 DA           defb DAh    	; 218,  -38
3995 0E           defb 0Eh    	; 14
3996 10           defb 10h    	; 16
3997 C2           defb C2h    	; 194,  -62
3998 1A           defb 1Ah    	; 26
3999 00           defb 00h    	; 0
399A D7           defb D7h    	; 215,  -41
399B 18           defb 18h    	; 24
399C 00           defb 00h    	; 0
399D D3           defb D3h    	; 211,  -45
399E 1C           defb 1Ch    	; 28
399F 00           defb 00h    	; 0
39A0 41           defb 41h    	; 65, 'A'
39A1 C1           defb C1h    	; 193,  -63
39A2 00           defb 00h    	; 0
39A3 27           defb 27h    	; 39, '''
39A4 C9           defb C9h    	; 201,  -55
39A5 00           defb 00h    	; 0
39A6 F3           defb F3h    	; 243,  -13
39A7 FF           defb FFh    	; 255,   -1
39A8 4E           defb 4Eh    	; 78, 'N'
39A9 C3           defb C3h    	; 195,  -61
39AA 10           defb 10h    	; 16
39AB 03           defb 03h    	; 3
39AC CD           defb CDh    	; 205,  -51
39AD 22           defb 22h    	; 34, '"'
39AE 00           defb 00h    	; 0
39AF CE           defb CEh    	; 206,  -50
39B0 30           defb 30h    	; 48, '0'
39B1 00           defb 00h    	; 0
39B2 4E           defb 4Eh    	; 78, 'N'
39B3 C9           defb C9h    	; 201,  -55
39B4 02           defb 02h    	; 2
39B5 A2           defb A2h    	; 162,  -94
39B6 4E           defb 4Eh    	; 78, 'N'
39B7 49           defb 49h    	; 73, 'I'
39B8 D2           defb D2h    	; 210,  -46
39B9 02           defb 02h    	; 2
39BA B2           defb B2h    	; 178,  -78
39BB 4E           defb 4Eh    	; 78, 'N'
39BC C4           defb C4h    	; 196,  -60
39BD 02           defb 02h    	; 2
39BE AA           defb AAh    	; 170,  -86
39BF 4E           defb 4Eh    	; 78, 'N'
39C0 44           defb 44h    	; 68, 'D'
39C1 D2           defb D2h    	; 210,  -46
39C2 02           defb 02h    	; 2
39C3 BA           defb BAh    	; 186,  -70
39C4 FF           defb FFh    	; 255,   -1
39C5 42           defb 42h    	; 66, 'B'
39C6 C3           defb C3h    	; 195,  -61
39C7 36           defb 36h    	; 54, '6'
39C8 00           defb 00h    	; 0
39C9 43           defb 43h    	; 67, 'C'
39CA C6           defb C6h    	; 198,  -58
39CB 00           defb 00h    	; 0
39CC 37           defb 37h    	; 55, '7'
39CD 4C           defb 4Ch    	; 76, 'L'
39CE C1           defb C1h    	; 193,  -63
39CF 14           defb 14h    	; 20
39D0 26           defb 26h    	; 38, '&'
39D1 52           defb 52h    	; 82, 'R'
39D2 C1           defb C1h    	; 193,  -63
39D3 14           defb 14h    	; 20
39D4 2E           defb 2Eh    	; 46, '.'
39D5 52           defb 52h    	; 82, 'R'
39D6 CC           defb CCh    	; 204,  -52
39D7 14           defb 14h    	; 20
39D8 3E           defb 3Eh    	; 62, '>'
39D9 45           defb 45h    	; 69, 'E'
39DA D4           defb D4h    	; 212,  -44
39DB 16           defb 16h    	; 22
39DC C6           defb C6h    	; 198,  -58
39DD 55           defb 55h    	; 85, 'U'
39DE C2           defb C2h    	; 194,  -62
39DF 12           defb 12h    	; 18
39E0 96           defb 96h    	; 150, -106
39E1 FF           defb FFh    	; 255,   -1
39E2 D2           defb D2h    	; 210,  -46
39E3 12           defb 12h    	; 18
39E4 B6           defb B6h    	; 182,  -74
39E5 52           defb 52h    	; 82, 'R'
39E6 C7           defb C7h    	; 199,  -57
39E7 20           defb 20h    	; 32, ' '
39E8 00           defb 00h    	; 0
39E9 55           defb 55h    	; 85, 'U'
39EA D4           defb D4h    	; 212,  -44
39EB 38           defb 38h    	; 56, '8'
39EC 00           defb 00h    	; 0
39ED 55           defb 55h    	; 85, 'U'
39EE 54           defb 54h    	; 84, 'T'
39EF C9           defb C9h    	; 201,  -55
39F0 02           defb 02h    	; 2
39F1 A3           defb A3h    	; 163,  -93
39F2 54           defb 54h    	; 84, 'T'
39F3 49           defb 49h    	; 73, 'I'
39F4 D2           defb D2h    	; 210,  -46
39F5 02           defb 02h    	; 2
39F6 B3           defb B3h    	; 179,  -77
39F7 55           defb 55h    	; 85, 'U'
39F8 54           defb 54h    	; 84, 'T'
39F9 C4           defb C4h    	; 196,  -60
39FA 02           defb 02h    	; 2
39FB AB           defb ABh    	; 171,  -85
39FC 54           defb 54h    	; 84, 'T'
39FD 44           defb 44h    	; 68, 'D'
39FE D2           defb D2h    	; 210,  -46
39FF 02           defb 02h    	; 2
3A00 BB           defb BBh    	; 187,  -69
3A01 FF           defb FFh    	; 255,   -1
3A02 D8           defb D8h    	; 216,  -40
3A03 2E           defb 2Eh    	; 46, '.'
3A04 00           defb 00h    	; 0
3A05 58           defb 58h    	; 88, 'X'
3A06 D8           defb D8h    	; 216,  -40
3A07 00           defb 00h    	; 0
3A08 D9           defb D9h    	; 217,  -39
3A09 51           defb 51h    	; 81, 'Q'
3A0A D5           defb D5h    	; 213,  -43
3A0B 1E           defb 1Eh    	; 30
3A0C 00           defb 00h    	; 0
3A0D C9           defb C9h    	; 201,  -55
3A0E 00           defb 00h    	; 0
3A0F FB           defb FBh    	; 251,   -5
3A10 4E           defb 4Eh    	; 78, 'N'
3A11 C4           defb C4h    	; 196,  -60
3A12 04           defb 04h    	; 4
3A13 FF           defb FFh    	; 255,   -1
3A14 FF           defb FFh    	; 255,   -1
3A15 45           defb 45h    	; 69, 'E'
3A16 D4           defb D4h    	; 212,  -44
3A17 88           defb 88h    	; 136, -120
3A18 C0           defb C0h    	; 192,  -64
3A19 53           defb 53h    	; 83, 'S'
3A1A D4           defb D4h    	; 212,  -44
3A1B 06           defb 06h    	; 6
3A1C C7           defb C7h    	; 199,  -57
3A1D 45           defb 45h    	; 69, 'E'
3A1E D3           defb D3h    	; 211,  -45
3A1F 16           defb 16h    	; 22
3A20 86           defb 86h    	; 134, -122
3A21 CC           defb CCh    	; 204,  -52
3A22 14           defb 14h    	; 20
3A23 16           defb 16h    	; 22
3A24 4C           defb 4Ch    	; 76, 'L'
3A25 C3           defb C3h    	; 195,  -61
3A26 14           defb 14h    	; 20
3A27 06           defb 06h    	; 6
3A28 4C           defb 4Ch    	; 76, 'L'
3A29 43           defb 43h    	; 67, 'C'
3A2A C1           defb C1h    	; 193,  -63
3A2B 00           defb 00h    	; 0
3A2C 07           defb 07h    	; 7
3A2D 4C           defb 4Ch    	; 76, 'L'
3A2E C1           defb C1h    	; 193,  -63
3A2F 00           defb 00h    	; 0
3A30 17           defb 17h    	; 23
3A31 D2           defb D2h    	; 210,  -46
3A32 14           defb 14h    	; 20
3A33 1E           defb 1Eh    	; 30
3A34 52           defb 52h    	; 82, 'R'
3A35 C3           defb C3h    	; 195,  -61
3A36 14           defb 14h    	; 20
3A37 0E           defb 0Eh    	; 14
3A38 52           defb 52h    	; 82, 'R'
3A39 43           defb 43h    	; 67, 'C'
3A3A C1           defb C1h    	; 193,  -63
3A3B 00           defb 00h    	; 0
3A3C 0F           defb 0Fh    	; 15
3A3D 52           defb 52h    	; 82, 'R'
3A3E C1           defb C1h    	; 193,  -63
3A3F 00           defb 00h    	; 0
3A40 1F           defb 1Fh    	; 31
3A41 4C           defb 4Ch    	; 76, 'L'
3A42 C4           defb C4h    	; 196,  -60
3A43 24           defb 24h    	; 36, '$'
3A44 6F           defb 6Fh    	; 111, 'o'
3A45 52           defb 52h    	; 82, 'R'
3A46 C4           defb C4h    	; 196,  -60
3A47 24           defb 24h    	; 36, '$'
3A48 67           defb 67h    	; 103, 'g'
3A49 45           defb 45h    	; 69, 'E'
3A4A 54           defb 54h    	; 84, 'T'
3A4B C9           defb C9h    	; 201,  -55
3A4C 02           defb 02h    	; 2
3A4D 4D           defb 4Dh    	; 77, 'M'
3A4E 45           defb 45h    	; 69, 'E'
3A4F 54           defb 54h    	; 84, 'T'
3A50 CE           defb CEh    	; 206,  -50
3A51 02           defb 02h    	; 2
3A52 45           defb 45h    	; 69, 'E'
3A53 FF           defb FFh    	; 255,   -1
3A54 43           defb 43h    	; 67, 'C'
3A55 4F           defb 4Fh    	; 79, 'O'
3A56 4D           defb 4Dh    	; 77, 'M'
3A57 50           defb 50h    	; 80, 'P'
3A58 C4           defb C4h    	; 196,  -60
3A59 C8           defb C8h    	; 200,  -56
3A5A 19           defb 19h    	; 25
3A5B 46           defb 46h    	; 70, 'F'
3A5C 45           defb 45h    	; 69, 'E'
3A5D 00           defb 00h    	; 0
3A5E FF           defb FFh    	; 255,   -1
3A5F FF           defb FFh    	; 255,   -1
3A60 21           defb 21h    	; 33, '!'
3A61 FF           defb FFh    	; 255,   -1
3A62 00           defb 00h    	; 0
3A63 22           defb 22h    	; 34, '"'
3A64 A0           defb A0h    	; 160,  -96
3A65 40           defb 40h    	; 64, '@'
3A66 21           defb 21h    	; 33, '!'
3A67 64           defb 64h    	; 100, 'd'
3A68 00           defb 00h    	; 0
3A69 22           defb 22h    	; 34, '"'
3A6A A2           defb A2h    	; 162,  -94
3A6B 40           defb 40h    	; 64, '@'
3A6C 21           defb 21h    	; 33, '!'
3A6D 19           defb 19h    	; 25
3A6E 3B           defb 3Bh    	; 59, ';'
3A6F 22           defb 22h    	; 34, '"'
3A70 00           defb 00h    	; 0
3A71 40           defb 40h    	; 64, '@'
3A72 21           defb 21h    	; 33, '!'
3A73 85           defb 85h    	; 133, -123
3A74 3A           defb 3Ah    	; 58, ':'
3A75 22           defb 22h    	; 34, '"'
3A76 10           defb 10h    	; 16
3A77 40           defb 40h    	; 64, '@'
3A78 C9           defb C9h    	; 201,  -55
3A79 E7           defb E7h    	; 231,  -25
3A7A CD           defb CDh    	; 205,  -51
3A7B CD           defb CDh    	; 205,  -51
3A7C 10           defb 10h    	; 16
3A7D D5           defb D5h    	; 213,  -43
3A7E CD           defb CDh    	; 205,  -51
3A7F 09           defb 09h    	; 9
3A80 0A           defb 0Ah    	; 10
3A81 D1           defb D1h    	; 209,  -47
3A82 C9           defb C9h    	; 201,  -55
3A83 00           defb 00h    	; 0
3A84 00           defb 00h    	; 0
3A85 FE           defb FEh    	; 254,   -2
3A86 04           defb 04h    	; 4
3A87 20           defb 20h    	; 32, ' '
3A88 54           defb 54h    	; 84, 'T'
3A89 CD           defb CDh    	; 205,  -51
3A8A 79           defb 79h    	; 121, 'y'
3A8B 3A           defb 3Ah    	; 58, ':'
3A8C 22           defb 22h    	; 34, '"'
3A8D A0           defb A0h    	; 160,  -96
3A8E 40           defb 40h    	; 64, '@'
3A8F CD           defb CDh    	; 205,  -51
3A90 79           defb 79h    	; 121, 'y'
3A91 3A           defb 3Ah    	; 58, ':'
3A92 7D           defb 7Dh    	; 125, '}'
3A93 32           defb 32h    	; 50, '2'
3A94 A2           defb A2h    	; 162,  -94
3A95 40           defb 40h    	; 64, '@'
3A96 2A           defb 2Ah    	; 42, '*'
3A97 A0           defb A0h    	; 160,  -96
3A98 40           defb 40h    	; 64, '@'
3A99 4F           defb 4Fh    	; 79, 'O'
3A9A 3E           defb 3Eh    	; 62, '>'
3A9B 07           defb 07h    	; 7
3A9C A5           defb A5h    	; 165,  -91
3A9D 3C           defb 3Ch    	; 60, '<'
3A9E 47           defb 47h    	; 71, 'G'
3A9F CB           defb CBh    	; 203,  -53
3AA0 3C           defb 3Ch    	; 60, '<'
3AA1 CB           defb CBh    	; 203,  -53
3AA2 1D           defb 1Dh    	; 29
3AA3 61           defb 61h    	; 97, 'a'
3AA4 CB           defb CBh    	; 203,  -53
3AA5 3C           defb 3Ch    	; 60, '<'
3AA6 CB           defb CBh    	; 203,  -53
3AA7 1D           defb 1Dh    	; 29
3AA8 CB           defb CBh    	; 203,  -53
3AA9 3C           defb 3Ch    	; 60, '<'
3AAA CB           defb CBh    	; 203,  -53
3AAB 1D           defb 1Dh    	; 29
3AAC 97           defb 97h    	; 151, -105
3AAD 37           defb 37h    	; 55, '7'
3AAE 17           defb 17h    	; 23
3AAF 10           defb 10h    	; 16
3AB0 FD           defb FDh    	; 253,   -3
3AB1 01           defb 01h    	; 1
3AB2 00           defb 00h    	; 0
3AB3 80           defb 80h    	; 128, -128
3AB4 00           defb 00h    	; 0
3AB5 09           defb 09h    	; 9
3AB6 4F           defb 4Fh    	; 79, 'O'
3AB7 3A           defb 3Ah    	; 58, ':'
3AB8 4F           defb 4Fh    	; 79, 'O'
3AB9 40           defb 40h    	; 64, '@'
3ABA D3           defb D3h    	; 211,  -45
3ABB FF           defb FFh    	; 255,   -1
3ABC E6           defb E6h    	; 230,  -26
3ABD 03           defb 03h    	; 3
3ABE 28           defb 28h    	; 40, '('
3ABF 12           defb 12h    	; 18
3AC0 FE           defb FEh    	; 254,   -2
3AC1 01           defb 01h    	; 1
3AC2 28           defb 28h    	; 40, '('
3AC3 09           defb 09h    	; 9
3AC4 FE           defb FEh    	; 254,   -2
3AC5 02           defb 02h    	; 2
3AC6 20           defb 20h    	; 32, ' '
3AC7 10           defb 10h    	; 16
3AC8 79           defb 79h    	; 121, 'y'
3AC9 AE           defb AEh    	; 174,  -82
3ACA 77           defb 77h    	; 119, 'w'
3ACB 18           defb 18h    	; 24
3ACC 0C           defb 0Ch    	; 12
3ACD 79           defb 79h    	; 121, 'y'
3ACE B6           defb B6h    	; 182,  -74
3ACF 77           defb 77h    	; 119, 'w'
3AD0 18           defb 18h    	; 24
3AD1 07           defb 07h    	; 7
3AD2 79           defb 79h    	; 121, 'y'
3AD3 2F           defb 2Fh    	; 47, '/'
3AD4 A6           defb A6h    	; 166,  -90
3AD5 77           defb 77h    	; 119, 'w'
3AD6 18           defb 18h    	; 24
3AD7 01           defb 01h    	; 1
3AD8 79           defb 79h    	; 121, 'y'
3AD9 A6           defb A6h    	; 166,  -90
3ADA D3           defb D3h    	; 211,  -45
3ADB 7F           defb 7Fh    	; 127
3ADC C9           defb C9h    	; 201,  -55
3ADD FE           defb FEh    	; 254,   -2
3ADE 03           defb 03h    	; 3
3ADF 20           defb 20h    	; 32, ' '
3AE0 67           defb 67h    	; 103, 'g'
3AE1 E7           defb E7h    	; 231,  -25
3AE2 21           defb 21h    	; 33, '!'
3AE3 26           defb 26h    	; 38, '&'
3AE4 E4           defb E4h    	; 228,  -28
3AE5 E7           defb E7h    	; 231,  -25
3AE6 FE           defb FEh    	; 254,   -2
3AE7 42           defb 42h    	; 66, 'B'
3AE8 20           defb 20h    	; 32, ' '
3AE9 02           defb 02h    	; 2
3AEA CB           defb CBh    	; 203,  -53
3AEB AD           defb ADh    	; 173,  -83
3AEC E7           defb E7h    	; 231,  -25
3AED FE           defb FEh    	; 254,   -2
3AEE 4B           defb 4Bh    	; 75, 'K'
3AEF 20           defb 20h    	; 32, ' '
3AF0 02           defb 02h    	; 2
3AF1 CB           defb CBh    	; 203,  -53
3AF2 95           defb 95h    	; 149, -107
3AF3 E7           defb E7h    	; 231,  -25
3AF4 0E           defb 0Eh    	; 14
3AF5 00           defb 00h    	; 0
3AF6 D5           defb D5h    	; 213,  -43
3AF7 EB           defb EBh    	; 235,  -21
3AF8 CD           defb CDh    	; 205,  -51
3AF9 33           defb 33h    	; 51, '3'
3AFA 05           defb 05h    	; 5
3AFB D5           defb D5h    	; 213,  -43
3AFC FE           defb FEh    	; 254,   -2
3AFD 20           defb 20h    	; 32, ' '
3AFE 28           defb 28h    	; 40, '('
3AFF 05           defb 05h    	; 5
3B00 FE           defb FEh    	; 254,   -2
3B01 FF           defb FFh    	; 255,   -1
3B02 20           defb 20h    	; 32, ' '
3B03 0D           defb 0Dh    	; 13
3B04 4F           defb 4Fh    	; 79, 'O'
3B05 21           defb 21h    	; 33, '!'
3B06 00           defb 00h    	; 0
3B07 80           defb 80h    	; 128, -128
3B08 11           defb 11h    	; 17
3B09 01           defb 01h    	; 1
3B0A 80           defb 80h    	; 128, -128
3B0B 71           defb 71h    	; 113, 'q'
3B0C 01           defb 01h    	; 1
3B0D FF           defb FFh    	; 255,   -1
3B0E 3F           defb 3Fh    	; 63, '?'
3B0F ED           defb EDh    	; 237,  -19
3B10 B0           defb B0h    	; 176,  -80
3B11 E1           defb E1h    	; 225,  -31
3B12 7E           defb 7Eh    	; 126, '~'
3B13 CD           defb CDh    	; 205,  -51
3B14 BE           defb BEh    	; 190,  -66
3B15 05           defb 05h    	; 5
3B16 D1           defb D1h    	; 209,  -47
3B17 E7           defb E7h    	; 231,  -25
3B18 C9           defb C9h    	; 201,  -55
3B19 C1           defb C1h    	; 193,  -63
3B1A C1           defb C1h    	; 193,  -63
3B1B D1           defb D1h    	; 209,  -47
3B1C E7           defb E7h    	; 231,  -25
3B1D 22           defb 22h    	; 34, '"'
3B1E A0           defb A0h    	; 160,  -96
3B1F 40           defb 40h    	; 64, '@'
3B20 CD           defb CDh    	; 205,  -51
3B21 CD           defb CDh    	; 205,  -51
3B22 10           defb 10h    	; 16
3B23 D5           defb D5h    	; 213,  -43
3B24 CD           defb CDh    	; 205,  -51
3B25 09           defb 09h    	; 9
3B26 0A           defb 0Ah    	; 10
3B27 3A           defb 3Ah    	; 58, ':'
3B28 4F           defb 4Fh    	; 79, 'O'
3B29 40           defb 40h    	; 64, '@'
3B2A F5           defb F5h    	; 245,  -11
3B2B 3E           defb 3Eh    	; 62, '>'
3B2C 03           defb 03h    	; 3
3B2D 32           defb 32h    	; 50, '2'
3B2E 4F           defb 4Fh    	; 79, 'O'
3B2F 40           defb 40h    	; 64, '@'
3B30 CD           defb CDh    	; 205,  -51
3B31 92           defb 92h    	; 146, -110
3B32 3A           defb 3Ah    	; 58, ':'
3B33 D1           defb D1h    	; 209,  -47
3B34 21           defb 21h    	; 33, '!'
3B35 B0           defb B0h    	; 176,  -80
3B36 12           defb 12h    	; 18
3B37 E5           defb E5h    	; 229,  -27
3B38 21           defb 21h    	; 33, '!'
3B39 3A           defb 3Ah    	; 58, ':'
3B3A 06           defb 06h    	; 6
3B3B E5           defb E5h    	; 229,  -27
3B3C A7           defb A7h    	; 167,  -89
3B3D ED           defb EDh    	; 237,  -19
3B3E 62           defb 62h    	; 98, 'b'
3B3F A7           defb A7h    	; 167,  -89
3B40 28           defb 28h    	; 40, '('
3B41 01           defb 01h    	; 1
3B42 23           defb 23h    	; 35, '#'
3B43 7A           defb 7Ah    	; 122, 'z'
3B44 32           defb 32h    	; 50, '2'
3B45 4F           defb 4Fh    	; 79, 'O'
3B46 40           defb 40h    	; 64, '@'
3B47 C9           defb C9h    	; 201,  -55
3B48 FE           defb FEh    	; 254,   -2
3B49 05           defb 05h    	; 5
3B4A C2           defb C2h    	; 194,  -62
3B4B 7C           defb 7Ch    	; 124, '|'
3B4C 15           defb 15h    	; 21
3B4D CD           defb CDh    	; 205,  -51
3B4E 79           defb 79h    	; 121, 'y'
3B4F 3A           defb 3Ah    	; 58, ':'
3B50 E5           defb E5h    	; 229,  -27
3B51 CD           defb CDh    	; 205,  -51
3B52 79           defb 79h    	; 121, 'y'
3B53 3A           defb 3Ah    	; 58, ':'
3B54 C1           defb C1h    	; 193,  -63
3B55 D5           defb D5h    	; 213,  -43
3B56 E5           defb E5h    	; 229,  -27
3B57 C5           defb C5h    	; 197,  -59
3B58 E1           defb E1h    	; 225,  -31
3B59 ED           defb EDh    	; 237,  -19
3B5A 5B           defb 5Bh    	; 91, '['
3B5B A0           defb A0h    	; 160,  -96
3B5C 40           defb 40h    	; 64, '@'
3B5D CD           defb CDh    	; 205,  -51
3B5E F0           defb F0h    	; 240,  -16
3B5F 3B           defb 3Bh    	; 59, ';'
3B60 E3           defb E3h    	; 227,  -29
3B61 47           defb 47h    	; 71, 'G'
3B62 ED           defb EDh    	; 237,  -19
3B63 5B           defb 5Bh    	; 91, '['
3B64 A2           defb A2h    	; 162,  -94
3B65 40           defb 40h    	; 64, '@'
3B66 CD           defb CDh    	; 205,  -51
3B67 F0           defb F0h    	; 240,  -16
3B68 3B           defb 3Bh    	; 59, ';'
3B69 87           defb 87h    	; 135, -121
3B6A 87           defb 87h    	; 135, -121
3B6B B0           defb B0h    	; 176,  -80
3B6C 47           defb 47h    	; 71, 'G'
3B6D 3E           defb 3Eh    	; 62, '>'
3B6E FC           defb FCh    	; 252,   -4
3B6F D1           defb D1h    	; 209,  -47
3B70 A7           defb A7h    	; 167,  -89
3B71 ED           defb EDh    	; 237,  -19
3B72 52           defb 52h    	; 82, 'R'
3B73 19           defb 19h    	; 25
3B74 30           defb 30h    	; 48, '0'
3B75 03           defb 03h    	; 3
3B76 3E           defb 3Eh    	; 62, '>'
3B77 F3           defb F3h    	; 243,  -13
3B78 EB           defb EBh    	; 235,  -21
3B79 4F           defb 4Fh    	; 79, 'O'
3B7A 97           defb 97h    	; 151, -105
3B7B B4           defb B4h    	; 180,  -76
3B7C B5           defb B5h    	; 181,  -75
3B7D 20           defb 20h    	; 32, ' '
3B7E 03           defb 03h    	; 3
3B7F D1           defb D1h    	; 209,  -47
3B80 C9           defb C9h    	; 201,  -55
3B81 00           defb 00h    	; 0
3B82 E5           defb E5h    	; 229,  -27
3B83 C5           defb C5h    	; 197,  -59
3B84 EB           defb EBh    	; 235,  -21
3B85 97           defb 97h    	; 151, -105
3B86 4F           defb 4Fh    	; 79, 'O'
3B87 CB           defb CBh    	; 203,  -53
3B88 23           defb 23h    	; 35, '#'
3B89 CB           defb CBh    	; 203,  -53
3B8A 12           defb 12h    	; 18
3B8B 38           defb 38h    	; 56, '8'
3B8C 06           defb 06h    	; 6
3B8D CB           defb CBh    	; 203,  -53
3B8E 25           defb 25h    	; 37, '%'
3B8F CB           defb CBh    	; 203,  -53
3B90 14           defb 14h    	; 20
3B91 18           defb 18h    	; 24
3B92 F4           defb F4h    	; 244,  -12
3B93 CB           defb CBh    	; 203,  -53
3B94 1A           defb 1Ah    	; 26
3B95 CB           defb CBh    	; 203,  -53
3B96 1B           defb 1Bh    	; 27
3B97 00           defb 00h    	; 0
3B98 06           defb 06h    	; 6
3B99 10           defb 10h    	; 16
3B9A A7           defb A7h    	; 167,  -89
3B9B ED           defb EDh    	; 237,  -19
3B9C 52           defb 52h    	; 82, 'R'
3B9D 30           defb 30h    	; 48, '0'
3B9E 01           defb 01h    	; 1
3B9F 19           defb 19h    	; 25
3BA0 3F           defb 3Fh    	; 63, '?'
3BA1 CB           defb CBh    	; 203,  -53
3BA2 11           defb 11h    	; 17
3BA3 CB           defb CBh    	; 203,  -53
3BA4 17           defb 17h    	; 23
3BA5 CB           defb CBh    	; 203,  -53
3BA6 3A           defb 3Ah    	; 58, ':'
3BA7 CB           defb CBh    	; 203,  -53
3BA8 1B           defb 1Bh    	; 27
3BA9 10           defb 10h    	; 16
3BAA EF           defb EFh    	; 239,  -17
3BAB 47           defb 47h    	; 71, 'G'
3BAC CB           defb CBh    	; 203,  -53
3BAD 21           defb 21h    	; 33, '!'
3BAE CB           defb CBh    	; 203,  -53
3BAF 10           defb 10h    	; 16
3BB0 30           defb 30h    	; 48, '0'
3BB1 01           defb 01h    	; 1
3BB2 0B           defb 0Bh    	; 11
3BB3 D1           defb D1h    	; 209,  -47
3BB4 21           defb 21h    	; 33, '!'
3BB5 00           defb 00h    	; 0
3BB6 80           defb 80h    	; 128, -128
3BB7 09           defb 09h    	; 9
3BB8 7A           defb 7Ah    	; 122, 'z'
3BB9 38           defb 38h    	; 56, '8'
3BBA 01           defb 01h    	; 1
3BBB A3           defb A3h    	; 163,  -93
3BBC D9           defb D9h    	; 217,  -39
3BBD 4F           defb 4Fh    	; 79, 'O'
3BBE 2A           defb 2Ah    	; 42, '*'
3BBF A0           defb A0h    	; 160,  -96
3BC0 40           defb 40h    	; 64, '@'
3BC1 3A           defb 3Ah    	; 58, ':'
3BC2 A2           defb A2h    	; 162,  -94
3BC3 40           defb 40h    	; 64, '@'
3BC4 CB           defb CBh    	; 203,  -53
3BC5 41           defb 41h    	; 65, 'A'
3BC6 28           defb 28h    	; 40, '('
3BC7 07           defb 07h    	; 7
3BC8 23           defb 23h    	; 35, '#'
3BC9 CB           defb CBh    	; 203,  -53
3BCA 49           defb 49h    	; 73, 'I'
3BCB 28           defb 28h    	; 40, '('
3BCC 02           defb 02h    	; 2
3BCD 2B           defb 2Bh    	; 43, '+'
3BCE 2B           defb 2Bh    	; 43, '+'
3BCF CB           defb CBh    	; 203,  -53
3BD0 51           defb 51h    	; 81, 'Q'
3BD1 28           defb 28h    	; 40, '('
3BD2 07           defb 07h    	; 7
3BD3 3C           defb 3Ch    	; 60, '<'
3BD4 CB           defb CBh    	; 203,  -53
3BD5 59           defb 59h    	; 89, 'Y'
3BD6 28           defb 28h    	; 40, '('
3BD7 02           defb 02h    	; 2
3BD8 3D           defb 3Dh    	; 61, '='
3BD9 3D           defb 3Dh    	; 61, '='
3BDA 00           defb 00h    	; 0
3BDB 22           defb 22h    	; 34, '"'
3BDC A0           defb A0h    	; 160,  -96
3BDD 40           defb 40h    	; 64, '@'
3BDE 32           defb 32h    	; 50, '2'
3BDF A2           defb A2h    	; 162,  -94
3BE0 40           defb 40h    	; 64, '@'
3BE1 CD           defb CDh    	; 205,  -51
3BE2 99           defb 99h    	; 153, -103
3BE3 3A           defb 3Ah    	; 58, ':'
3BE4 E1           defb E1h    	; 225,  -31
3BE5 2B           defb 2Bh    	; 43, '+'
3BE6 E5           defb E5h    	; 229,  -27
3BE7 97           defb 97h    	; 151, -105
3BE8 B4           defb B4h    	; 180,  -76
3BE9 B5           defb B5h    	; 181,  -75
3BEA D9           defb D9h    	; 217,  -39
3BEB 20           defb 20h    	; 32, ' '
3BEC CA           defb CAh    	; 202,  -54
3BED E1           defb E1h    	; 225,  -31
3BEE D1           defb D1h    	; 209,  -47
3BEF C9           defb C9h    	; 201,  -55
3BF0 3E           defb 3Eh    	; 62, '>'
3BF1 01           defb 01h    	; 1
3BF2 A7           defb A7h    	; 167,  -89
3BF3 ED           defb EDh    	; 237,  -19
3BF4 52           defb 52h    	; 82, 'R'
3BF5 CB           defb CBh    	; 203,  -53
3BF6 7C           defb 7Ch    	; 124, '|'
3BF7 C8           defb C8h    	; 200,  -56
3BF8 3E           defb 3Eh    	; 62, '>'
3BF9 03           defb 03h    	; 3
3BFA 19           defb 19h    	; 25
3BFB EB           defb EBh    	; 235,  -21
3BFC 18           defb 18h    	; 24
3BFD F4           defb F4h    	; 244,  -12
3BFE FF           defb FFh    	; 255,   -1
3BFF FF           defb FFh    	; 255,   -1
3C00 B7           defb B7h    	; 183,  -73
3C01 FE           defb FEh    	; 254,   -2
3C02 02           defb 02h    	; 2
3C03 28           defb 28h    	; 40, '('
3C04 16           defb 16h    	; 22
3C05 FE           defb FEh    	; 254,   -2
3C06 01           defb 01h    	; 1
3C07 C0           defb C0h    	; 192,  -64
3C08 CD           defb CDh    	; 205,  -51
3C09 F6           defb F6h    	; 246,  -10
3C0A 0D           defb 0Dh    	; 13
3C0B 79           defb 79h    	; 121, 'y'
3C0C FE           defb FEh    	; 254,   -2
3C0D 01           defb 01h    	; 1
3C0E 28           defb 28h    	; 40, '('
3C0F 6C           defb 6Ch    	; 108, 'l'
3C10 FE           defb FEh    	; 254,   -2
3C11 02           defb 02h    	; 2
3C12 CA           defb CAh    	; 202,  -54
3C13 AB           defb ABh    	; 171,  -85
3C14 3C           defb 3Ch    	; 60, '<'
3C15 FE           defb FEh    	; 254,   -2
3C16 04           defb 04h    	; 4
3C17 CA           defb CAh    	; 202,  -54
3C18 AB           defb ABh    	; 171,  -85
3C19 3C           defb 3Ch    	; 60, '<'
3C1A C9           defb C9h    	; 201,  -55
3C1B 79           defb 79h    	; 121, 'y'
3C1C FE           defb FEh    	; 254,   -2
3C1D 01           defb 01h    	; 1
3C1E C0           defb C0h    	; 192,  -64
3C1F 21           defb 21h    	; 33, '!'
3C20 5E           defb 5Eh    	; 94, '^'
3C21 3C           defb 3Ch    	; 60, '<'
3C22 06           defb 06h    	; 6
3C23 00           defb 00h    	; 0
3C24 1E           defb 1Eh    	; 30
3C25 0D           defb 0Dh    	; 13
3C26 CD           defb CDh    	; 205,  -51
3C27 51           defb 51h    	; 81, 'Q'
3C28 3C           defb 3Ch    	; 60, '<'
3C29 7C           defb 7Ch    	; 124, '|'
3C2A FE           defb FEh    	; 254,   -2
3C2B 00           defb 00h    	; 0
3C2C 38           defb 38h    	; 56, '8'
3C2D F1           defb F1h    	; 241,  -15
3C2E E5           defb E5h    	; 229,  -27
3C2F 21           defb 21h    	; 33, '!'
3C30 6B           defb 6Bh    	; 107, 'k'
3C31 3C           defb 3Ch    	; 60, '<'
3C32 06           defb 06h    	; 6
3C33 00           defb 00h    	; 0
3C34 1E           defb 1Eh    	; 30
3C35 0B           defb 0Bh    	; 11
3C36 CD           defb CDh    	; 205,  -51
3C37 51           defb 51h    	; 81, 'Q'
3C38 3C           defb 3Ch    	; 60, '<'
3C39 7C           defb 7Ch    	; 124, '|'
3C3A FE           defb FEh    	; 254,   -2
3C3B 00           defb 00h    	; 0
3C3C 38           defb 38h    	; 56, '8'
3C3D F1           defb F1h    	; 241,  -15
3C3E E5           defb E5h    	; 229,  -27
3C3F 3E           defb 3Eh    	; 62, '>'
3C40 0D           defb 0Dh    	; 13
3C41 EF           defb EFh    	; 239,  -17
3C42 21           defb 21h    	; 33, '!'
3C43 76           defb 76h    	; 118, 'v'
3C44 3C           defb 3Ch    	; 60, '<'
3C45 1E           defb 1Eh    	; 30
3C46 06           defb 06h    	; 6
3C47 CD           defb CDh    	; 205,  -51
3C48 38           defb 38h    	; 56, '8'
3C49 15           defb 15h    	; 21
3C4A CD           defb CDh    	; 205,  -51
3C4B 46           defb 46h    	; 70, 'F'
3C4C 05           defb 05h    	; 5
3C4D E1           defb E1h    	; 225,  -31
3C4E C1           defb C1h    	; 193,  -63
3C4F 18           defb 18h    	; 24
3C50 31           defb 31h    	; 49, '1'
3C51 3E           defb 3Eh    	; 62, '>'
3C52 0D           defb 0Dh    	; 13
3C53 EF           defb EFh    	; 239,  -17
3C54 CD           defb CDh    	; 205,  -51
3C55 38           defb 38h    	; 56, '8'
3C56 15           defb 15h    	; 21
3C57 CD           defb CDh    	; 205,  -51
3C58 46           defb 46h    	; 70, 'F'
3C59 05           defb 05h    	; 5
3C5A CD           defb CDh    	; 205,  -51
3C5B DC           defb DCh    	; 220,  -36
3C5C 01           defb 01h    	; 1
3C5D C9           defb C9h    	; 201,  -55
3C5E 53           defb 53h    	; 83, 'S'
3C5F 54           defb 54h    	; 84, 'T'
3C60 41           defb 41h    	; 65, 'A'
3C61 52           defb 52h    	; 82, 'R'
3C62 54           defb 54h    	; 84, 'T'
3C63 3F           defb 3Fh    	; 63, '?'
3C64 20           defb 20h    	; 32, ' '
3C65 28           defb 28h    	; 40, '('
3C66 48           defb 48h    	; 72, 'H'
3C67 45           defb 45h    	; 69, 'E'
3C68 58           defb 58h    	; 88, 'X'
3C69 29           defb 29h    	; 41, ')'
3C6A 0D           defb 0Dh    	; 13
3C6B 45           defb 45h    	; 69, 'E'
3C6C 4E           defb 4Eh    	; 78, 'N'
3C6D 44           defb 44h    	; 68, 'D'
3C6E 3F           defb 3Fh    	; 63, '?'
3C6F 20           defb 20h    	; 32, ' '
3C70 28           defb 28h    	; 40, '('
3C71 48           defb 48h    	; 72, 'H'
3C72 45           defb 45h    	; 69, 'E'
3C73 58           defb 58h    	; 88, 'X'
3C74 29           defb 29h    	; 41, ')'
3C75 0D           defb 0Dh    	; 13
3C76 4E           defb 4Eh    	; 78, 'N'
3C77 41           defb 41h    	; 65, 'A'
3C78 4D           defb 4Dh    	; 77, 'M'
3C79 45           defb 45h    	; 69, 'E'
3C7A 3F           defb 3Fh    	; 63, '?'
3C7B 0D           defb 0Dh    	; 13
3C7C 2A           defb 2Ah    	; 42, '*'
3C7D 18           defb 18h    	; 24
3C7E 40           defb 40h    	; 64, '@'
3C7F 01           defb 01h    	; 1
3C80 16           defb 16h    	; 22
3C81 40           defb 40h    	; 64, '@'
3C82 D9           defb D9h    	; 217,  -39
3C83 21           defb 21h    	; 33, '!'
3C84 00           defb 00h    	; 0
3C85 E0           defb E0h    	; 224,  -32
3C86 D9           defb D9h    	; 217,  -39
3C87 E5           defb E5h    	; 229,  -27
3C88 C5           defb C5h    	; 197,  -59
3C89 21           defb 21h    	; 33, '!'
3C8A EA           defb EAh    	; 234,  -22
3C8B 3C           defb 3Ch    	; 60, '<'
3C8C 22           defb 22h    	; 34, '"'
3C8D 0C           defb 0Ch    	; 12
3C8E 40           defb 40h    	; 64, '@'
3C8F 97           defb 97h    	; 151, -105
3C90 47           defb 47h    	; 71, 'G'
3C91 CF           defb CFh    	; 207,  -49
3C92 10           defb 10h    	; 16
3C93 FD           defb FDh    	; 253,   -3
3C94 47           defb 47h    	; 71, 'G'
3C95 CF           defb CFh    	; 207,  -49
3C96 10           defb 10h    	; 16
3C97 FD           defb FDh    	; 253,   -3
3C98 CD           defb CDh    	; 205,  -51
3C99 FB           defb FBh    	; 251,   -5
3C9A 3C           defb 3Ch    	; 60, '<'
3C9B 3E           defb 3Eh    	; 62, '>'
3C9C A5           defb A5h    	; 165,  -91
3C9D C1           defb C1h    	; 193,  -63
3C9E E1           defb E1h    	; 225,  -31
3C9F CD           defb CDh    	; 205,  -51
3CA0 BB           defb BBh    	; 187,  -69
3CA1 06           defb 06h    	; 6
3CA2 CD           defb CDh    	; 205,  -51
3CA3 A6           defb A6h    	; 166,  -90
3CA4 07           defb 07h    	; 7
3CA5 C3           defb C3h    	; 195,  -61
3CA6 01           defb 01h    	; 1
3CA7 20           defb 20h    	; 32, ' '
3CA8 11           defb 11h    	; 17
3CA9 04           defb 04h    	; 4
3CAA 00           defb 00h    	; 0
3CAB C5           defb C5h    	; 197,  -59
3CAC CD           defb CDh    	; 205,  -51
3CAD CA           defb CAh    	; 202,  -54
3CAE 3C           defb 3Ch    	; 60, '<'
3CAF A7           defb A7h    	; 167,  -89
3CB0 C1           defb C1h    	; 193,  -63
3CB1 20           defb 20h    	; 32, ' '
3CB2 F8           defb F8h    	; 248,   -8
3CB3 79           defb 79h    	; 121, 'y'
3CB4 FE           defb FEh    	; 254,   -2
3CB5 04           defb 04h    	; 4
3CB6 28           defb 28h    	; 40, '('
3CB7 0E           defb 0Eh    	; 14
3CB8 CD           defb CDh    	; 205,  -51
3CB9 D2           defb D2h    	; 210,  -46
3CBA 07           defb 07h    	; 7
3CBB BA           defb BAh    	; 186,  -70
3CBC C0           defb C0h    	; 192,  -64
3CBD CF           defb CFh    	; 207,  -49
3CBE 20           defb 20h    	; 32, ' '
3CBF E8           defb E8h    	; 232,  -24
3CC0 CD           defb CDh    	; 205,  -51
3CC1 63           defb 63h    	; 99, 'c'
3CC2 0D           defb 0Dh    	; 13
3CC3 C3           defb C3h    	; 195,  -61
3CC4 01           defb 01h    	; 1
3CC5 20           defb 20h    	; 32, ' '
3CC6 CF           defb CFh    	; 207,  -49
3CC7 C3           defb C3h    	; 195,  -61
3CC8 64           defb 64h    	; 100, 'd'
3CC9 25           defb 25h    	; 37, '%'
3CCA 3E           defb 3Eh    	; 62, '>'
3CCB 0D           defb 0Dh    	; 13
3CCC EF           defb EFh    	; 239,  -17
3CCD 21           defb 21h    	; 33, '!'
3CCE 2B           defb 2Bh    	; 43, '+'
3CCF 3D           defb 3Dh    	; 61, '='
3CD0 22           defb 22h    	; 34, '"'
3CD1 0C           defb 0Ch    	; 12
3CD2 40           defb 40h    	; 64, '@'
3CD3 06           defb 06h    	; 6
3CD4 60           defb 60h    	; 96, '`'
3CD5 CD           defb CDh    	; 205,  -51
3CD6 38           defb 38h    	; 56, '8'
3CD7 3D           defb 3Dh    	; 61, '='
3CD8 38           defb 38h    	; 56, '8'
3CD9 F9           defb F9h    	; 249,   -7
3CDA 10           defb 10h    	; 16
3CDB F9           defb F9h    	; 249,   -7
3CDC CD           defb CDh    	; 205,  -51
3CDD 38           defb 38h    	; 56, '8'
3CDE 3D           defb 3Dh    	; 61, '='
3CDF 30           defb 30h    	; 48, '0'
3CE0 FB           defb FBh    	; 251,   -5
3CE1 CF           defb CFh    	; 207,  -49
3CE2 FE           defb FEh    	; 254,   -2
3CE3 A5           defb A5h    	; 165,  -91
3CE4 20           defb 20h    	; 32, ' '
3CE5 ED           defb EDh    	; 237,  -19
3CE6 D5           defb D5h    	; 213,  -43
3CE7 C3           defb C3h    	; 195,  -61
3CE8 04           defb 04h    	; 4
3CE9 07           defb 07h    	; 7
3CEA C5           defb C5h    	; 197,  -59
3CEB 06           defb 06h    	; 6
3CEC 08           defb 08h    	; 8
3CED B7           defb B7h    	; 183,  -73
3CEE 1F           defb 1Fh    	; 31
3CEF DC           defb DCh    	; 220,  -36
3CF0 FB           defb FBh    	; 251,   -5
3CF1 3C           defb 3Ch    	; 60, '<'
3CF2 D4           defb D4h    	; 212,  -44
3CF3 15           defb 15h    	; 21
3CF4 3D           defb 3Dh    	; 61, '='
3CF5 10           defb 10h    	; 16
3CF6 F7           defb F7h    	; 247,   -9
3CF7 1F           defb 1Fh    	; 31
3CF8 C1           defb C1h    	; 193,  -63
3CF9 E1           defb E1h    	; 225,  -31
3CFA C9           defb C9h    	; 201,  -55
3CFB 08           defb 08h    	; 8
3CFC D9           defb D9h    	; 217,  -39
3CFD D3           defb D3h    	; 211,  -45
3CFE FF           defb FFh    	; 255,   -1
3CFF 7D           defb 7Dh    	; 125, '}'
3D00 EE           defb EEh    	; 238,  -18
3D01 80           defb 80h    	; 128, -128
3D02 6F           defb 6Fh    	; 111, 'o'
3D03 77           defb 77h    	; 119, 'w'
3D04 06           defb 06h    	; 6
3D05 1C           defb 1Ch    	; 28
3D06 10           defb 10h    	; 16
3D07 FE           defb FEh    	; 254,   -2
3D08 EE           defb EEh    	; 238,  -18
3D09 80           defb 80h    	; 128, -128
3D0A 6F           defb 6Fh    	; 111, 'o'
3D0B 77           defb 77h    	; 119, 'w'
3D0C 06           defb 06h    	; 6
3D0D 1D           defb 1Dh    	; 29
3D0E 10           defb 10h    	; 16
3D0F FE           defb FEh    	; 254,   -2
3D10 D3           defb D3h    	; 211,  -45
3D11 7F           defb 7Fh    	; 127
3D12 08           defb 08h    	; 8
3D13 D9           defb D9h    	; 217,  -39
3D14 C9           defb C9h    	; 201,  -55
3D15 08           defb 08h    	; 8
3D16 D9           defb D9h    	; 217,  -39
3D17 D3           defb D3h    	; 211,  -45
3D18 FF           defb FFh    	; 255,   -1
3D19 7D           defb 7Dh    	; 125, '}'
3D1A EE           defb EEh    	; 238,  -18
3D1B 80           defb 80h    	; 128, -128
3D1C 6F           defb 6Fh    	; 111, 'o'
3D1D 77           defb 77h    	; 119, 'w'
3D1E 06           defb 06h    	; 6
3D1F 1C           defb 1Ch    	; 28
3D20 10           defb 10h    	; 16
3D21 FE           defb FEh    	; 254,   -2
3D22 06           defb 06h    	; 6
3D23 1D           defb 1Dh    	; 29
3D24 10           defb 10h    	; 16
3D25 FE           defb FEh    	; 254,   -2
3D26 D3           defb D3h    	; 211,  -45
3D27 7F           defb 7Fh    	; 127
3D28 08           defb 08h    	; 8
3D29 D9           defb D9h    	; 217,  -39
3D2A C9           defb C9h    	; 201,  -55
3D2B C5           defb C5h    	; 197,  -59
3D2C 06           defb 06h    	; 6
3D2D 08           defb 08h    	; 8
3D2E AF           defb AFh    	; 175,  -81
3D2F CD           defb CDh    	; 205,  -51
3D30 38           defb 38h    	; 56, '8'
3D31 3D           defb 3Dh    	; 61, '='
3D32 1F           defb 1Fh    	; 31
3D33 10           defb 10h    	; 16
3D34 FA           defb FAh    	; 250,   -6
3D35 C1           defb C1h    	; 193,  -63
3D36 E1           defb E1h    	; 225,  -31
3D37 C9           defb C9h    	; 201,  -55
3D38 08           defb 08h    	; 8
3D39 D9           defb D9h    	; 217,  -39
3D3A D3           defb D3h    	; 211,  -45
3D3B FF           defb FFh    	; 255,   -1
3D3C 21           defb 21h    	; 33, '!'
3D3D 83           defb 83h    	; 131, -125
3D3E E8           defb E8h    	; 232,  -24
3D3F 4E           defb 4Eh    	; 78, 'N'
3D40 7E           defb 7Eh    	; 126, '~'
3D41 A9           defb A9h    	; 169,  -87
3D42 1F           defb 1Fh    	; 31
3D43 30           defb 30h    	; 48, '0'
3D44 FB           defb FBh    	; 251,   -5
3D45 06           defb 06h    	; 6
3D46 22           defb 22h    	; 34, '"'
3D47 10           defb 10h    	; 16
3D48 FE           defb FEh    	; 254,   -2
3D49 7E           defb 7Eh    	; 126, '~'
3D4A A9           defb A9h    	; 169,  -87
3D4B 1F           defb 1Fh    	; 31
3D4C D3           defb D3h    	; 211,  -45
3D4D 7F           defb 7Fh    	; 127
3D4E 30           defb 30h    	; 48, '0'
3D4F 04           defb 04h    	; 4
3D50 08           defb 08h    	; 8
3D51 D9           defb D9h    	; 217,  -39
3D52 B7           defb B7h    	; 183,  -73
3D53 C9           defb C9h    	; 201,  -55
3D54 08           defb 08h    	; 8
3D55 D9           defb D9h    	; 217,  -39
3D56 37           defb 37h    	; 55, '7'
3D57 C9           defb C9h    	; 201,  -55
3D58 FF           defb FFh    	; 255,   -1
3D59 FF           defb FFh    	; 255,   -1
3D5A FF           defb FFh    	; 255,   -1
3D5B FF           defb FFh    	; 255,   -1
3D5C FF           defb FFh    	; 255,   -1
3D5D FF           defb FFh    	; 255,   -1
3D5E FF           defb FFh    	; 255,   -1
3D5F FF           defb FFh    	; 255,   -1
3D60 FF           defb FFh    	; 255,   -1
3D61 FF           defb FFh    	; 255,   -1
3D62 FF           defb FFh    	; 255,   -1
3D63 FF           defb FFh    	; 255,   -1
3D64 FF           defb FFh    	; 255,   -1
3D65 FF           defb FFh    	; 255,   -1
3D66 FF           defb FFh    	; 255,   -1
3D67 FF           defb FFh    	; 255,   -1
3D68 FF           defb FFh    	; 255,   -1
3D69 FF           defb FFh    	; 255,   -1
3D6A FF           defb FFh    	; 255,   -1
3D6B FF           defb FFh    	; 255,   -1
3D6C FF           defb FFh    	; 255,   -1
3D6D FF           defb FFh    	; 255,   -1
3D6E FF           defb FFh    	; 255,   -1
3D6F FF           defb FFh    	; 255,   -1
3D70 FF           defb FFh    	; 255,   -1
3D71 FF           defb FFh    	; 255,   -1
3D72 FF           defb FFh    	; 255,   -1
3D73 FF           defb FFh    	; 255,   -1
3D74 FF           defb FFh    	; 255,   -1
3D75 FF           defb FFh    	; 255,   -1
3D76 FF           defb FFh    	; 255,   -1
3D77 FF           defb FFh    	; 255,   -1
3D78 FF           defb FFh    	; 255,   -1
3D79 FF           defb FFh    	; 255,   -1
3D7A FF           defb FFh    	; 255,   -1
3D7B FF           defb FFh    	; 255,   -1
3D7C FF           defb FFh    	; 255,   -1
3D7D FF           defb FFh    	; 255,   -1
3D7E FF           defb FFh    	; 255,   -1
3D7F FF           defb FFh    	; 255,   -1
3D80 FF           defb FFh    	; 255,   -1
3D81 FF           defb FFh    	; 255,   -1
3D82 FF           defb FFh    	; 255,   -1
3D83 FF           defb FFh    	; 255,   -1
3D84 FF           defb FFh    	; 255,   -1
3D85 FF           defb FFh    	; 255,   -1
3D86 FF           defb FFh    	; 255,   -1
3D87 FF           defb FFh    	; 255,   -1
3D88 FF           defb FFh    	; 255,   -1
3D89 FF           defb FFh    	; 255,   -1
3D8A FF           defb FFh    	; 255,   -1
3D8B FF           defb FFh    	; 255,   -1
3D8C FF           defb FFh    	; 255,   -1
3D8D FF           defb FFh    	; 255,   -1
3D8E FF           defb FFh    	; 255,   -1
3D8F FF           defb FFh    	; 255,   -1
3D90 FF           defb FFh    	; 255,   -1
3D91 FF           defb FFh    	; 255,   -1
3D92 FF           defb FFh    	; 255,   -1
3D93 FF           defb FFh    	; 255,   -1
3D94 FF           defb FFh    	; 255,   -1
3D95 FF           defb FFh    	; 255,   -1
3D96 FF           defb FFh    	; 255,   -1
3D97 FF           defb FFh    	; 255,   -1
3D98 FF           defb FFh    	; 255,   -1
3D99 FF           defb FFh    	; 255,   -1
3D9A FF           defb FFh    	; 255,   -1
3D9B FF           defb FFh    	; 255,   -1
3D9C FF           defb FFh    	; 255,   -1
3D9D FF           defb FFh    	; 255,   -1
3D9E FF           defb FFh    	; 255,   -1
3D9F FF           defb FFh    	; 255,   -1
3DA0 FF           defb FFh    	; 255,   -1
3DA1 FF           defb FFh    	; 255,   -1
3DA2 FF           defb FFh    	; 255,   -1
3DA3 FF           defb FFh    	; 255,   -1
3DA4 FF           defb FFh    	; 255,   -1
3DA5 FF           defb FFh    	; 255,   -1
3DA6 FF           defb FFh    	; 255,   -1
3DA7 FF           defb FFh    	; 255,   -1
3DA8 FF           defb FFh    	; 255,   -1
3DA9 FF           defb FFh    	; 255,   -1
3DAA FF           defb FFh    	; 255,   -1
3DAB FF           defb FFh    	; 255,   -1
3DAC FF           defb FFh    	; 255,   -1
3DAD FF           defb FFh    	; 255,   -1
3DAE FF           defb FFh    	; 255,   -1
3DAF FF           defb FFh    	; 255,   -1
3DB0 FF           defb FFh    	; 255,   -1
3DB1 FF           defb FFh    	; 255,   -1
3DB2 FF           defb FFh    	; 255,   -1
3DB3 FF           defb FFh    	; 255,   -1
3DB4 FF           defb FFh    	; 255,   -1
3DB5 FF           defb FFh    	; 255,   -1
3DB6 FF           defb FFh    	; 255,   -1
3DB7 FF           defb FFh    	; 255,   -1
3DB8 FF           defb FFh    	; 255,   -1
3DB9 FF           defb FFh    	; 255,   -1
3DBA FF           defb FFh    	; 255,   -1
3DBB FF           defb FFh    	; 255,   -1
3DBC FF           defb FFh    	; 255,   -1
3DBD FF           defb FFh    	; 255,   -1
3DBE FF           defb FFh    	; 255,   -1
3DBF FF           defb FFh    	; 255,   -1
3DC0 FF           defb FFh    	; 255,   -1
3DC1 FF           defb FFh    	; 255,   -1
3DC2 FF           defb FFh    	; 255,   -1
3DC3 FF           defb FFh    	; 255,   -1
3DC4 FF           defb FFh    	; 255,   -1
3DC5 FF           defb FFh    	; 255,   -1
3DC6 FF           defb FFh    	; 255,   -1
3DC7 FF           defb FFh    	; 255,   -1
3DC8 FF           defb FFh    	; 255,   -1
3DC9 FF           defb FFh    	; 255,   -1
3DCA FF           defb FFh    	; 255,   -1
3DCB FF           defb FFh    	; 255,   -1
3DCC FF           defb FFh    	; 255,   -1
3DCD FF           defb FFh    	; 255,   -1
3DCE FF           defb FFh    	; 255,   -1
3DCF FF           defb FFh    	; 255,   -1
3DD0 FF           defb FFh    	; 255,   -1
3DD1 FF           defb FFh    	; 255,   -1
3DD2 FF           defb FFh    	; 255,   -1
3DD3 FF           defb FFh    	; 255,   -1
3DD4 FF           defb FFh    	; 255,   -1
3DD5 FF           defb FFh    	; 255,   -1
3DD6 FF           defb FFh    	; 255,   -1
3DD7 FF           defb FFh    	; 255,   -1
3DD8 FF           defb FFh    	; 255,   -1
3DD9 FF           defb FFh    	; 255,   -1
3DDA FF           defb FFh    	; 255,   -1
3DDB FF           defb FFh    	; 255,   -1
3DDC FF           defb FFh    	; 255,   -1
3DDD FF           defb FFh    	; 255,   -1
3DDE FF           defb FFh    	; 255,   -1
3DDF FF           defb FFh    	; 255,   -1
3DE0 FF           defb FFh    	; 255,   -1
3DE1 FF           defb FFh    	; 255,   -1
3DE2 FF           defb FFh    	; 255,   -1
3DE3 FF           defb FFh    	; 255,   -1
3DE4 FF           defb FFh    	; 255,   -1
3DE5 FF           defb FFh    	; 255,   -1
3DE6 FF           defb FFh    	; 255,   -1
3DE7 FF           defb FFh    	; 255,   -1
3DE8 FF           defb FFh    	; 255,   -1
3DE9 FF           defb FFh    	; 255,   -1
3DEA FF           defb FFh    	; 255,   -1
3DEB FF           defb FFh    	; 255,   -1
3DEC FF           defb FFh    	; 255,   -1
3DED FF           defb FFh    	; 255,   -1
3DEE FF           defb FFh    	; 255,   -1
3DEF FF           defb FFh    	; 255,   -1
3DF0 FF           defb FFh    	; 255,   -1
3DF1 FF           defb FFh    	; 255,   -1
3DF2 FF           defb FFh    	; 255,   -1
3DF3 FF           defb FFh    	; 255,   -1
3DF4 FF           defb FFh    	; 255,   -1
3DF5 FF           defb FFh    	; 255,   -1
3DF6 FF           defb FFh    	; 255,   -1
3DF7 FF           defb FFh    	; 255,   -1
3DF8 FF           defb FFh    	; 255,   -1
3DF9 FF           defb FFh    	; 255,   -1
3DFA FF           defb FFh    	; 255,   -1
3DFB FF           defb FFh    	; 255,   -1
3DFC FF           defb FFh    	; 255,   -1
3DFD FF           defb FFh    	; 255,   -1
3DFE FF           defb FFh    	; 255,   -1
3DFF FF           defb FFh    	; 255,   -1
3E00 FF           defb FFh    	; 255,   -1
3E01 FF           defb FFh    	; 255,   -1
3E02 FF           defb FFh    	; 255,   -1
3E03 FF           defb FFh    	; 255,   -1
3E04 FF           defb FFh    	; 255,   -1
3E05 FF           defb FFh    	; 255,   -1
3E06 FF           defb FFh    	; 255,   -1
3E07 FF           defb FFh    	; 255,   -1
3E08 FF           defb FFh    	; 255,   -1
3E09 FF           defb FFh    	; 255,   -1
3E0A FF           defb FFh    	; 255,   -1
3E0B FF           defb FFh    	; 255,   -1
3E0C FF           defb FFh    	; 255,   -1
3E0D FF           defb FFh    	; 255,   -1
3E0E FF           defb FFh    	; 255,   -1
3E0F FF           defb FFh    	; 255,   -1
3E10 FF           defb FFh    	; 255,   -1
3E11 FF           defb FFh    	; 255,   -1
3E12 FF           defb FFh    	; 255,   -1
3E13 FF           defb FFh    	; 255,   -1
3E14 FF           defb FFh    	; 255,   -1
3E15 FF           defb FFh    	; 255,   -1
3E16 FF           defb FFh    	; 255,   -1
3E17 FF           defb FFh    	; 255,   -1
3E18 FF           defb FFh    	; 255,   -1
3E19 FF           defb FFh    	; 255,   -1
3E1A FF           defb FFh    	; 255,   -1
3E1B FF           defb FFh    	; 255,   -1
3E1C FF           defb FFh    	; 255,   -1
3E1D FF           defb FFh    	; 255,   -1
3E1E FF           defb FFh    	; 255,   -1
3E1F FF           defb FFh    	; 255,   -1
3E20 FF           defb FFh    	; 255,   -1
3E21 FF           defb FFh    	; 255,   -1
3E22 FF           defb FFh    	; 255,   -1
3E23 FF           defb FFh    	; 255,   -1
3E24 FF           defb FFh    	; 255,   -1
3E25 FF           defb FFh    	; 255,   -1
3E26 FF           defb FFh    	; 255,   -1
3E27 FF           defb FFh    	; 255,   -1
3E28 FF           defb FFh    	; 255,   -1
3E29 FF           defb FFh    	; 255,   -1
3E2A FF           defb FFh    	; 255,   -1
3E2B FF           defb FFh    	; 255,   -1
3E2C FF           defb FFh    	; 255,   -1
3E2D FF           defb FFh    	; 255,   -1
3E2E FF           defb FFh    	; 255,   -1
3E2F FF           defb FFh    	; 255,   -1
3E30 FF           defb FFh    	; 255,   -1
3E31 FF           defb FFh    	; 255,   -1
3E32 FF           defb FFh    	; 255,   -1
3E33 FF           defb FFh    	; 255,   -1
3E34 FF           defb FFh    	; 255,   -1
3E35 FF           defb FFh    	; 255,   -1
3E36 FF           defb FFh    	; 255,   -1
3E37 FF           defb FFh    	; 255,   -1
3E38 FF           defb FFh    	; 255,   -1
3E39 FF           defb FFh    	; 255,   -1
3E3A FF           defb FFh    	; 255,   -1
3E3B FF           defb FFh    	; 255,   -1
3E3C FF           defb FFh    	; 255,   -1
3E3D FF           defb FFh    	; 255,   -1
3E3E FF           defb FFh    	; 255,   -1
3E3F FF           defb FFh    	; 255,   -1
3E40 FF           defb FFh    	; 255,   -1
3E41 FF           defb FFh    	; 255,   -1
3E42 FF           defb FFh    	; 255,   -1
3E43 FF           defb FFh    	; 255,   -1
3E44 FF           defb FFh    	; 255,   -1
3E45 FF           defb FFh    	; 255,   -1
3E46 FF           defb FFh    	; 255,   -1
3E47 FF           defb FFh    	; 255,   -1
3E48 FF           defb FFh    	; 255,   -1
3E49 FF           defb FFh    	; 255,   -1
3E4A FF           defb FFh    	; 255,   -1
3E4B FF           defb FFh    	; 255,   -1
3E4C FF           defb FFh    	; 255,   -1
3E4D FF           defb FFh    	; 255,   -1
3E4E FF           defb FFh    	; 255,   -1
3E4F FF           defb FFh    	; 255,   -1
3E50 FF           defb FFh    	; 255,   -1
3E51 FF           defb FFh    	; 255,   -1
3E52 FF           defb FFh    	; 255,   -1
3E53 FF           defb FFh    	; 255,   -1
3E54 FF           defb FFh    	; 255,   -1
3E55 FF           defb FFh    	; 255,   -1
3E56 FF           defb FFh    	; 255,   -1
3E57 FF           defb FFh    	; 255,   -1
3E58 FF           defb FFh    	; 255,   -1
3E59 FF           defb FFh    	; 255,   -1
3E5A FF           defb FFh    	; 255,   -1
3E5B FF           defb FFh    	; 255,   -1
3E5C FF           defb FFh    	; 255,   -1
3E5D FF           defb FFh    	; 255,   -1
3E5E FF           defb FFh    	; 255,   -1
3E5F FF           defb FFh    	; 255,   -1
3E60 FF           defb FFh    	; 255,   -1
3E61 FF           defb FFh    	; 255,   -1
3E62 FF           defb FFh    	; 255,   -1
3E63 FF           defb FFh    	; 255,   -1
3E64 FF           defb FFh    	; 255,   -1
3E65 FF           defb FFh    	; 255,   -1
3E66 FF           defb FFh    	; 255,   -1
3E67 FF           defb FFh    	; 255,   -1
3E68 FF           defb FFh    	; 255,   -1
3E69 FF           defb FFh    	; 255,   -1
3E6A FF           defb FFh    	; 255,   -1
3E6B FF           defb FFh    	; 255,   -1
3E6C FF           defb FFh    	; 255,   -1
3E6D FF           defb FFh    	; 255,   -1
3E6E FF           defb FFh    	; 255,   -1
3E6F FF           defb FFh    	; 255,   -1
3E70 FF           defb FFh    	; 255,   -1
3E71 FF           defb FFh    	; 255,   -1
3E72 FF           defb FFh    	; 255,   -1
3E73 FF           defb FFh    	; 255,   -1
3E74 FF           defb FFh    	; 255,   -1
3E75 FF           defb FFh    	; 255,   -1
3E76 FF           defb FFh    	; 255,   -1
3E77 FF           defb FFh    	; 255,   -1
3E78 FF           defb FFh    	; 255,   -1
3E79 FF           defb FFh    	; 255,   -1
3E7A FF           defb FFh    	; 255,   -1
3E7B FF           defb FFh    	; 255,   -1
3E7C FF           defb FFh    	; 255,   -1
3E7D FF           defb FFh    	; 255,   -1
3E7E FF           defb FFh    	; 255,   -1
3E7F FF           defb FFh    	; 255,   -1
3E80 FF           defb FFh    	; 255,   -1
3E81 FF           defb FFh    	; 255,   -1
3E82 FF           defb FFh    	; 255,   -1
3E83 FF           defb FFh    	; 255,   -1
3E84 FF           defb FFh    	; 255,   -1
3E85 FF           defb FFh    	; 255,   -1
3E86 FF           defb FFh    	; 255,   -1
3E87 FF           defb FFh    	; 255,   -1
3E88 FF           defb FFh    	; 255,   -1
3E89 FF           defb FFh    	; 255,   -1
3E8A FF           defb FFh    	; 255,   -1
3E8B FF           defb FFh    	; 255,   -1
3E8C FF           defb FFh    	; 255,   -1
3E8D FF           defb FFh    	; 255,   -1
3E8E FF           defb FFh    	; 255,   -1
3E8F FF           defb FFh    	; 255,   -1
3E90 FF           defb FFh    	; 255,   -1
3E91 FF           defb FFh    	; 255,   -1
3E92 FF           defb FFh    	; 255,   -1
3E93 FF           defb FFh    	; 255,   -1
3E94 FF           defb FFh    	; 255,   -1
3E95 FF           defb FFh    	; 255,   -1
3E96 FF           defb FFh    	; 255,   -1
3E97 FF           defb FFh    	; 255,   -1
3E98 FF           defb FFh    	; 255,   -1
3E99 FF           defb FFh    	; 255,   -1
3E9A FF           defb FFh    	; 255,   -1
3E9B FF           defb FFh    	; 255,   -1
3E9C FF           defb FFh    	; 255,   -1
3E9D FF           defb FFh    	; 255,   -1
3E9E FF           defb FFh    	; 255,   -1
3E9F FF           defb FFh    	; 255,   -1
3EA0 FF           defb FFh    	; 255,   -1
3EA1 FF           defb FFh    	; 255,   -1
3EA2 FF           defb FFh    	; 255,   -1
3EA3 FF           defb FFh    	; 255,   -1
3EA4 FF           defb FFh    	; 255,   -1
3EA5 FF           defb FFh    	; 255,   -1
3EA6 FF           defb FFh    	; 255,   -1
3EA7 FF           defb FFh    	; 255,   -1
3EA8 FF           defb FFh    	; 255,   -1
3EA9 FF           defb FFh    	; 255,   -1
3EAA FF           defb FFh    	; 255,   -1
3EAB FF           defb FFh    	; 255,   -1
3EAC FF           defb FFh    	; 255,   -1
3EAD FF           defb FFh    	; 255,   -1
3EAE FF           defb FFh    	; 255,   -1
3EAF FF           defb FFh    	; 255,   -1
3EB0 FF           defb FFh    	; 255,   -1
3EB1 FF           defb FFh    	; 255,   -1
3EB2 FF           defb FFh    	; 255,   -1
3EB3 FF           defb FFh    	; 255,   -1
3EB4 FF           defb FFh    	; 255,   -1
3EB5 FF           defb FFh    	; 255,   -1
3EB6 FF           defb FFh    	; 255,   -1
3EB7 FF           defb FFh    	; 255,   -1
3EB8 FF           defb FFh    	; 255,   -1
3EB9 FF           defb FFh    	; 255,   -1
3EBA FF           defb FFh    	; 255,   -1
3EBB FF           defb FFh    	; 255,   -1
3EBC FF           defb FFh    	; 255,   -1
3EBD FF           defb FFh    	; 255,   -1
3EBE FF           defb FFh    	; 255,   -1
3EBF FF           defb FFh    	; 255,   -1
3EC0 FF           defb FFh    	; 255,   -1
3EC1 FF           defb FFh    	; 255,   -1
3EC2 FF           defb FFh    	; 255,   -1
3EC3 FF           defb FFh    	; 255,   -1
3EC4 FF           defb FFh    	; 255,   -1
3EC5 FF           defb FFh    	; 255,   -1
3EC6 FF           defb FFh    	; 255,   -1
3EC7 FF           defb FFh    	; 255,   -1
3EC8 FF           defb FFh    	; 255,   -1
3EC9 FF           defb FFh    	; 255,   -1
3ECA FF           defb FFh    	; 255,   -1
3ECB FF           defb FFh    	; 255,   -1
3ECC FF           defb FFh    	; 255,   -1
3ECD FF           defb FFh    	; 255,   -1
3ECE FF           defb FFh    	; 255,   -1
3ECF FF           defb FFh    	; 255,   -1
3ED0 FF           defb FFh    	; 255,   -1
3ED1 FF           defb FFh    	; 255,   -1
3ED2 FF           defb FFh    	; 255,   -1
3ED3 FF           defb FFh    	; 255,   -1
3ED4 FF           defb FFh    	; 255,   -1
3ED5 FF           defb FFh    	; 255,   -1
3ED6 FF           defb FFh    	; 255,   -1
3ED7 FF           defb FFh    	; 255,   -1
3ED8 FF           defb FFh    	; 255,   -1
3ED9 FF           defb FFh    	; 255,   -1
3EDA FF           defb FFh    	; 255,   -1
3EDB FF           defb FFh    	; 255,   -1
3EDC FF           defb FFh    	; 255,   -1
3EDD FF           defb FFh    	; 255,   -1
3EDE FF           defb FFh    	; 255,   -1
3EDF FF           defb FFh    	; 255,   -1
3EE0 FF           defb FFh    	; 255,   -1
3EE1 FF           defb FFh    	; 255,   -1
3EE2 FF           defb FFh    	; 255,   -1
3EE3 FF           defb FFh    	; 255,   -1
3EE4 FF           defb FFh    	; 255,   -1
3EE5 FF           defb FFh    	; 255,   -1
3EE6 FF           defb FFh    	; 255,   -1
3EE7 FF           defb FFh    	; 255,   -1
3EE8 FF           defb FFh    	; 255,   -1
3EE9 FF           defb FFh    	; 255,   -1
3EEA FF           defb FFh    	; 255,   -1
3EEB FF           defb FFh    	; 255,   -1
3EEC FF           defb FFh    	; 255,   -1
3EED FF           defb FFh    	; 255,   -1
3EEE FF           defb FFh    	; 255,   -1
3EEF FF           defb FFh    	; 255,   -1
3EF0 FF           defb FFh    	; 255,   -1
3EF1 FF           defb FFh    	; 255,   -1
3EF2 FF           defb FFh    	; 255,   -1
3EF3 FF           defb FFh    	; 255,   -1
3EF4 FF           defb FFh    	; 255,   -1
3EF5 FF           defb FFh    	; 255,   -1
3EF6 FF           defb FFh    	; 255,   -1
3EF7 FF           defb FFh    	; 255,   -1
3EF8 FF           defb FFh    	; 255,   -1
3EF9 FF           defb FFh    	; 255,   -1
3EFA FF           defb FFh    	; 255,   -1
3EFB FF           defb FFh    	; 255,   -1
3EFC FF           defb FFh    	; 255,   -1
3EFD FF           defb FFh    	; 255,   -1
3EFE FF           defb FFh    	; 255,   -1
3EFF FF           defb FFh    	; 255,   -1
3F00 FF           defb FFh    	; 255,   -1
3F01 FF           defb FFh    	; 255,   -1
3F02 FF           defb FFh    	; 255,   -1
3F03 FF           defb FFh    	; 255,   -1
3F04 FF           defb FFh    	; 255,   -1
3F05 FF           defb FFh    	; 255,   -1
3F06 FF           defb FFh    	; 255,   -1
3F07 FF           defb FFh    	; 255,   -1
3F08 FF           defb FFh    	; 255,   -1
3F09 FF           defb FFh    	; 255,   -1
3F0A FF           defb FFh    	; 255,   -1
3F0B FF           defb FFh    	; 255,   -1
3F0C FF           defb FFh    	; 255,   -1
3F0D FF           defb FFh    	; 255,   -1
3F0E FF           defb FFh    	; 255,   -1
3F0F FF           defb FFh    	; 255,   -1
3F10 FF           defb FFh    	; 255,   -1
3F11 FF           defb FFh    	; 255,   -1
3F12 FF           defb FFh    	; 255,   -1
3F13 FF           defb FFh    	; 255,   -1
3F14 FF           defb FFh    	; 255,   -1
3F15 FF           defb FFh    	; 255,   -1
3F16 FF           defb FFh    	; 255,   -1
3F17 FF           defb FFh    	; 255,   -1
3F18 FF           defb FFh    	; 255,   -1
3F19 FF           defb FFh    	; 255,   -1
3F1A FF           defb FFh    	; 255,   -1
3F1B FF           defb FFh    	; 255,   -1
3F1C FF           defb FFh    	; 255,   -1
3F1D FF           defb FFh    	; 255,   -1
3F1E FF           defb FFh    	; 255,   -1
3F1F FF           defb FFh    	; 255,   -1
3F20 FF           defb FFh    	; 255,   -1
3F21 FF           defb FFh    	; 255,   -1
3F22 FF           defb FFh    	; 255,   -1
3F23 FF           defb FFh    	; 255,   -1
3F24 FF           defb FFh    	; 255,   -1
3F25 FF           defb FFh    	; 255,   -1
3F26 FF           defb FFh    	; 255,   -1
3F27 FF           defb FFh    	; 255,   -1
3F28 FF           defb FFh    	; 255,   -1
3F29 FF           defb FFh    	; 255,   -1
3F2A FF           defb FFh    	; 255,   -1
3F2B FF           defb FFh    	; 255,   -1
3F2C FF           defb FFh    	; 255,   -1
3F2D FF           defb FFh    	; 255,   -1
3F2E FF           defb FFh    	; 255,   -1
3F2F FF           defb FFh    	; 255,   -1
3F30 FF           defb FFh    	; 255,   -1
3F31 FF           defb FFh    	; 255,   -1
3F32 FF           defb FFh    	; 255,   -1
3F33 FF           defb FFh    	; 255,   -1
3F34 FF           defb FFh    	; 255,   -1
3F35 FF           defb FFh    	; 255,   -1
3F36 FF           defb FFh    	; 255,   -1
3F37 FF           defb FFh    	; 255,   -1
3F38 FF           defb FFh    	; 255,   -1
3F39 FF           defb FFh    	; 255,   -1
3F3A FF           defb FFh    	; 255,   -1
3F3B FF           defb FFh    	; 255,   -1
3F3C FF           defb FFh    	; 255,   -1
3F3D FF           defb FFh    	; 255,   -1
3F3E FF           defb FFh    	; 255,   -1
3F3F FF           defb FFh    	; 255,   -1
3F40 FF           defb FFh    	; 255,   -1
3F41 FF           defb FFh    	; 255,   -1
3F42 FF           defb FFh    	; 255,   -1
3F43 FF           defb FFh    	; 255,   -1
3F44 FF           defb FFh    	; 255,   -1
3F45 FF           defb FFh    	; 255,   -1
3F46 FF           defb FFh    	; 255,   -1
3F47 FF           defb FFh    	; 255,   -1
3F48 FF           defb FFh    	; 255,   -1
3F49 FF           defb FFh    	; 255,   -1
3F4A FF           defb FFh    	; 255,   -1
3F4B FF           defb FFh    	; 255,   -1
3F4C FF           defb FFh    	; 255,   -1
3F4D FF           defb FFh    	; 255,   -1
3F4E FF           defb FFh    	; 255,   -1
3F4F FF           defb FFh    	; 255,   -1
3F50 FF           defb FFh    	; 255,   -1
3F51 FF           defb FFh    	; 255,   -1
3F52 FF           defb FFh    	; 255,   -1
3F53 FF           defb FFh    	; 255,   -1
3F54 FF           defb FFh    	; 255,   -1
3F55 FF           defb FFh    	; 255,   -1
3F56 FF           defb FFh    	; 255,   -1
3F57 FF           defb FFh    	; 255,   -1
3F58 FF           defb FFh    	; 255,   -1
3F59 FF           defb FFh    	; 255,   -1
3F5A FF           defb FFh    	; 255,   -1
3F5B FF           defb FFh    	; 255,   -1
3F5C FF           defb FFh    	; 255,   -1
3F5D FF           defb FFh    	; 255,   -1
3F5E FF           defb FFh    	; 255,   -1
3F5F FF           defb FFh    	; 255,   -1
3F60 FF           defb FFh    	; 255,   -1
3F61 FF           defb FFh    	; 255,   -1
3F62 FF           defb FFh    	; 255,   -1
3F63 FF           defb FFh    	; 255,   -1
3F64 FF           defb FFh    	; 255,   -1
3F65 FF           defb FFh    	; 255,   -1
3F66 FF           defb FFh    	; 255,   -1
3F67 FF           defb FFh    	; 255,   -1
3F68 FF           defb FFh    	; 255,   -1
3F69 FF           defb FFh    	; 255,   -1
3F6A FF           defb FFh    	; 255,   -1
3F6B FF           defb FFh    	; 255,   -1
3F6C FF           defb FFh    	; 255,   -1
3F6D FF           defb FFh    	; 255,   -1
3F6E FF           defb FFh    	; 255,   -1
3F6F FF           defb FFh    	; 255,   -1
3F70 FF           defb FFh    	; 255,   -1
3F71 FF           defb FFh    	; 255,   -1
3F72 FF           defb FFh    	; 255,   -1
3F73 FF           defb FFh    	; 255,   -1
3F74 FF           defb FFh    	; 255,   -1
3F75 FF           defb FFh    	; 255,   -1
3F76 FF           defb FFh    	; 255,   -1
3F77 FF           defb FFh    	; 255,   -1
3F78 FF           defb FFh    	; 255,   -1
3F79 FF           defb FFh    	; 255,   -1
3F7A FF           defb FFh    	; 255,   -1
3F7B FF           defb FFh    	; 255,   -1
3F7C FF           defb FFh    	; 255,   -1
3F7D FF           defb FFh    	; 255,   -1
3F7E FF           defb FFh    	; 255,   -1
3F7F FF           defb FFh    	; 255,   -1
3F80 FF           defb FFh    	; 255,   -1
3F81 FF           defb FFh    	; 255,   -1
3F82 FF           defb FFh    	; 255,   -1
3F83 FF           defb FFh    	; 255,   -1
3F84 FF           defb FFh    	; 255,   -1
3F85 FF           defb FFh    	; 255,   -1
3F86 FF           defb FFh    	; 255,   -1
3F87 FF           defb FFh    	; 255,   -1
3F88 FF           defb FFh    	; 255,   -1
3F89 FF           defb FFh    	; 255,   -1
3F8A FF           defb FFh    	; 255,   -1
3F8B FF           defb FFh    	; 255,   -1
3F8C FF           defb FFh    	; 255,   -1
3F8D FF           defb FFh    	; 255,   -1
3F8E FF           defb FFh    	; 255,   -1
3F8F FF           defb FFh    	; 255,   -1
3F90 FF           defb FFh    	; 255,   -1
3F91 FF           defb FFh    	; 255,   -1
3F92 FF           defb FFh    	; 255,   -1
3F93 FF           defb FFh    	; 255,   -1
3F94 FF           defb FFh    	; 255,   -1
3F95 FF           defb FFh    	; 255,   -1
3F96 FF           defb FFh    	; 255,   -1
3F97 FF           defb FFh    	; 255,   -1
3F98 FF           defb FFh    	; 255,   -1
3F99 FF           defb FFh    	; 255,   -1
3F9A FF           defb FFh    	; 255,   -1
3F9B FF           defb FFh    	; 255,   -1
3F9C FF           defb FFh    	; 255,   -1
3F9D FF           defb FFh    	; 255,   -1
3F9E FF           defb FFh    	; 255,   -1
3F9F FF           defb FFh    	; 255,   -1
3FA0 FF           defb FFh    	; 255,   -1
3FA1 FF           defb FFh    	; 255,   -1
3FA2 FF           defb FFh    	; 255,   -1
3FA3 FF           defb FFh    	; 255,   -1
3FA4 FF           defb FFh    	; 255,   -1
3FA5 FF           defb FFh    	; 255,   -1
3FA6 FF           defb FFh    	; 255,   -1
3FA7 FF           defb FFh    	; 255,   -1
3FA8 FF           defb FFh    	; 255,   -1
3FA9 FF           defb FFh    	; 255,   -1
3FAA FF           defb FFh    	; 255,   -1
3FAB FF           defb FFh    	; 255,   -1
3FAC FF           defb FFh    	; 255,   -1
3FAD FF           defb FFh    	; 255,   -1
3FAE FF           defb FFh    	; 255,   -1
3FAF FF           defb FFh    	; 255,   -1
3FB0 FF           defb FFh    	; 255,   -1
3FB1 FF           defb FFh    	; 255,   -1
3FB2 FF           defb FFh    	; 255,   -1
3FB3 FF           defb FFh    	; 255,   -1
3FB4 FF           defb FFh    	; 255,   -1
3FB5 FF           defb FFh    	; 255,   -1
3FB6 FF           defb FFh    	; 255,   -1
3FB7 FF           defb FFh    	; 255,   -1
3FB8 FF           defb FFh    	; 255,   -1
3FB9 FF           defb FFh    	; 255,   -1
3FBA FF           defb FFh    	; 255,   -1
3FBB FF           defb FFh    	; 255,   -1
3FBC FF           defb FFh    	; 255,   -1
3FBD FF           defb FFh    	; 255,   -1
3FBE FF           defb FFh    	; 255,   -1
3FBF FF           defb FFh    	; 255,   -1
3FC0 FF           defb FFh    	; 255,   -1
3FC1 FF           defb FFh    	; 255,   -1
3FC2 FF           defb FFh    	; 255,   -1
3FC3 FF           defb FFh    	; 255,   -1
3FC4 FF           defb FFh    	; 255,   -1
3FC5 FF           defb FFh    	; 255,   -1
3FC6 FF           defb FFh    	; 255,   -1
3FC7 FF           defb FFh    	; 255,   -1
3FC8 FF           defb FFh    	; 255,   -1
3FC9 FF           defb FFh    	; 255,   -1
3FCA FF           defb FFh    	; 255,   -1
3FCB FF           defb FFh    	; 255,   -1
3FCC FF           defb FFh    	; 255,   -1
3FCD FF           defb FFh    	; 255,   -1
3FCE FF           defb FFh    	; 255,   -1
3FCF FF           defb FFh    	; 255,   -1
3FD0 FF           defb FFh    	; 255,   -1
3FD1 FF           defb FFh    	; 255,   -1
3FD2 FF           defb FFh    	; 255,   -1
3FD3 FF           defb FFh    	; 255,   -1
3FD4 FF           defb FFh    	; 255,   -1
3FD5 FF           defb FFh    	; 255,   -1
3FD6 FF           defb FFh    	; 255,   -1
3FD7 FF           defb FFh    	; 255,   -1
3FD8 FF           defb FFh    	; 255,   -1
3FD9 FF           defb FFh    	; 255,   -1
3FDA FF           defb FFh    	; 255,   -1
3FDB FF           defb FFh    	; 255,   -1
3FDC FF           defb FFh    	; 255,   -1
3FDD FF           defb FFh    	; 255,   -1
3FDE FF           defb FFh    	; 255,   -1
3FDF FF           defb FFh    	; 255,   -1
3FE0 FF           defb FFh    	; 255,   -1
3FE1 FF           defb FFh    	; 255,   -1
3FE2 FF           defb FFh    	; 255,   -1
3FE3 FF           defb FFh    	; 255,   -1
3FE4 FF           defb FFh    	; 255,   -1
3FE5 FF           defb FFh    	; 255,   -1
3FE6 FF           defb FFh    	; 255,   -1
3FE7 FF           defb FFh    	; 255,   -1
3FE8 FF           defb FFh    	; 255,   -1
3FE9 FF           defb FFh    	; 255,   -1
3FEA FF           defb FFh    	; 255,   -1
3FEB FF           defb FFh    	; 255,   -1
3FEC FF           defb FFh    	; 255,   -1
3FED FF           defb FFh    	; 255,   -1
3FEE FF           defb FFh    	; 255,   -1
3FEF FF           defb FFh    	; 255,   -1
3FF0 FF           defb FFh    	; 255,   -1
3FF1 FF           defb FFh    	; 255,   -1
3FF2 FF           defb FFh    	; 255,   -1
3FF3 FF           defb FFh    	; 255,   -1
3FF4 FF           defb FFh    	; 255,   -1
3FF5 FF           defb FFh    	; 255,   -1


; Subroutine: Size=10, CC=1.
; Called by: SUB142[2652h].
; Calls: SUB126.
3FF6 SETUP_HL_STARTBASIC:
3FF6 11 00 3C     ld   de,3C00h 	; 15360
3FF9 ED 53 50 40  ld   (DATA14),de 	; 4050h
3FFD C3 50 1D     jp   SUB126 	; 1D50h
; ...
; ...
; ...